
out.elf:     file format elf32-tradlittlemips


Disassembly of section .config_BFC02FF0:

bfc02ff0 <__config_BFC02FF0>:
bfc02ff0:	ff ff fe fa                                         ....

Disassembly of section .config_BFC02FF4:

bfc02ff4 <__config_BFC02FF4>:
bfc02ff4:	d9 79 f8 ff                                         .y..

Disassembly of section .config_BFC02FF8:

bfc02ff8 <__config_BFC02FF8>:
bfc02ff8:	db ce 6c ff                                         ..l.

Disassembly of section .config_BFC02FFC:

bfc02ffc <__config_BFC02FFC>:
bfc02ffc:	ff ff ff 7e                                         ...~

Disassembly of section .reset:

bd001970 <_reset>:
bd001970:	0f40065e 	jal	bd001978 <_startup>
bd001974:	00000000 	nop

bd001978 <_startup>:
bd001978:	401a6000 	mfc0	k0,c0_status
bd00197c:	7f5a04c0 	ext	k0,k0,0x13,0x1
bd001980:	13400005 	beqz	k0,bd001998 <_no_nmi>
bd001984:	00000000 	nop
bd001988:	3c1a9d01 	lui	k0,0x9d01
bd00198c:	275abaf4 	addiu	k0,k0,-17676
bd001990:	03400008 	jr	k0
bd001994:	00000000 	nop

bd001998 <_no_nmi>:
bd001998:	3c1da002 	lui	sp,0xa002
bd00199c:	27bdfff8 	addiu	sp,sp,-8
bd0019a0:	3c1ca000 	lui	gp,0xa000
bd0019a4:	279c7ff0 	addiu	gp,gp,32752
bd0019a8:	40096002 	mfc0	t1,c0_srsctl
bd0019ac:	01205820 	add	t3,t1,zero
bd0019b0:	7d2a1e80 	ext	t2,t1,0x1a,0x4
bd0019b4:	7d494984 	ins	t1,t2,0x6,0x4
bd0019b8:	40896002 	mtc0	t1,c0_srsctl
bd0019bc:	000000c0 	ehb
bd0019c0:	41dce000 	wrpgpr	gp,gp
bd0019c4:	408b6002 	mtc0	t3,c0_srsctl
bd0019c8:	000000c0 	ehb
bd0019cc:	3c089d01 	lui	t0,0x9d01
bd0019d0:	2508bb9c 	addiu	t0,t0,-17508
bd0019d4:	0100f809 	jalr	t0
bd0019d8:	00000000 	nop
bd0019dc:	3c08a000 	lui	t0,0xa000
bd0019e0:	25080010 	addiu	t0,t0,16
bd0019e4:	3c09a000 	lui	t1,0xa000
bd0019e8:	2529003c 	addiu	t1,t1,60
bd0019ec:	10000006 	b	bd001a08 <_bss_check>
bd0019f0:	00000000 	nop

bd0019f4 <_bss_init>:
bd0019f4:	ad000000 	sw	zero,0(t0)
bd0019f8:	ad000004 	sw	zero,4(t0)
bd0019fc:	ad000008 	sw	zero,8(t0)
bd001a00:	ad00000c 	sw	zero,12(t0)
bd001a04:	25080010 	addiu	t0,t0,16

bd001a08 <_bss_check>:
bd001a08:	0109082b 	sltu	at,t0,t1
bd001a0c:	1420fff9 	bnez	at,bd0019f4 <_bss_init>
bd001a10:	00000000 	nop

bd001a14 <_dinit_init>:
bd001a14:	3c089d00 	lui	t0,0x9d00
bd001a18:	25084314 	addiu	t0,t0,17172
bd001a1c:	8d090000 	lw	t1,0(t0)
bd001a20:	11200018 	beqz	t1,bd001a84 <_dinit_end+0x18>
bd001a24:	25080004 	addiu	t0,t0,4
bd001a28:	8d0a0000 	lw	t2,0(t0)
bd001a2c:	25080004 	addiu	t0,t0,4
bd001a30:	8d0b0000 	lw	t3,0(t0)
bd001a34:	11600009 	beqz	t3,bd001a5c <_dinit_clear>
bd001a38:	25080004 	addiu	t0,t0,4

bd001a3c <_dinit_copy>:
bd001a3c:	910c0000 	lbu	t4,0(t0)
bd001a40:	254affff 	addiu	t2,t2,-1
bd001a44:	25080001 	addiu	t0,t0,1
bd001a48:	a12c0000 	sb	t4,0(t1)
bd001a4c:	1540fffb 	bnez	t2,bd001a3c <_dinit_copy>
bd001a50:	25290001 	addiu	t1,t1,1
bd001a54:	10000005 	b	bd001a6c <_dinit_end>
bd001a58:	00000000 	nop

bd001a5c <_dinit_clear>:
bd001a5c:	a1200000 	sb	zero,0(t1)
bd001a60:	254affff 	addiu	t2,t2,-1
bd001a64:	1540fffd 	bnez	t2,bd001a5c <_dinit_clear>
bd001a68:	25290001 	addiu	t1,t1,1

bd001a6c <_dinit_end>:
bd001a6c:	25080003 	addiu	t0,t0,3
bd001a70:	240afffc 	li	t2,-4
bd001a74:	01484024 	and	t0,t2,t0
bd001a78:	8d090000 	lw	t1,0(t0)
bd001a7c:	1520ffe7 	bnez	t1,bd001a1c <_dinit_init+0x8>
bd001a80:	00000000 	nop
bd001a84:	3c090000 	lui	t1,0x0
bd001a88:	25290000 	addiu	t1,t1,0
bd001a8c:	11200010 	beqz	t1,bd001ad0 <_ramfunc_done>
bd001a90:	00000000 	nop
bd001a94:	3c090002 	lui	t1,0x2
bd001a98:	25290000 	addiu	t1,t1,0
bd001a9c:	3c0abf88 	lui	t2,0xbf88
bd001aa0:	254a2010 	addiu	t2,t2,8208
bd001aa4:	ad490000 	sw	t1,0(t2)
bd001aa8:	3c090002 	lui	t1,0x2
bd001aac:	25290000 	addiu	t1,t1,0
bd001ab0:	3c0abf88 	lui	t2,0xbf88
bd001ab4:	254a2020 	addiu	t2,t2,8224
bd001ab8:	ad490000 	sw	t1,0(t2)
bd001abc:	3c090002 	lui	t1,0x2
bd001ac0:	25290000 	addiu	t1,t1,0
bd001ac4:	3c0abf88 	lui	t2,0xbf88
bd001ac8:	254a2030 	addiu	t2,t2,8240
bd001acc:	ad490000 	sw	t1,0(t2)

bd001ad0 <_ramfunc_done>:
bd001ad0:	40804800 	mtc0	zero,c0_count
bd001ad4:	240affff 	li	t2,-1
bd001ad8:	408a5800 	mtc0	t2,c0_compare
bd001adc:	3c080040 	lui	t0,0x40
bd001ae0:	400a6000 	mfc0	t2,c0_status
bd001ae4:	010a5025 	or	t2,t0,t2
bd001ae8:	408a6000 	mtc0	t2,c0_status
bd001aec:	3c099d00 	lui	t1,0x9d00
bd001af0:	25290000 	addiu	t1,t1,0
bd001af4:	000000c0 	ehb
bd001af8:	40897801 	mtc0	t1,c0_ebase
bd001afc:	3c090000 	lui	t1,0x0
bd001b00:	25290001 	addiu	t1,t1,1
bd001b04:	240a0000 	li	t2,0
bd001b08:	7d2a4944 	ins	t2,t1,0x5,0x5
bd001b0c:	408a6001 	mtc0	t2,c0_intctl
bd001b10:	3c090080 	lui	t1,0x80
bd001b14:	40896800 	mtc0	t1,c0_cause
bd001b18:	40088000 	mfc0	t0,c0_config
bd001b1c:	7d090580 	ext	t1,t0,0x16,0x1
bd001b20:	00094c40 	sll	t1,t1,0x11
bd001b24:	40086000 	mfc0	t0,c0_status
bd001b28:	3c010058 	lui	at,0x58
bd001b2c:	01014024 	and	t0,t0,at
bd001b30:	01284025 	or	t0,t1,t0
bd001b34:	40886000 	mtc0	t0,c0_status
bd001b38:	000000c0 	ehb
bd001b3c:	3c089d01 	lui	t0,0x9d01
bd001b40:	2508bba4 	addiu	t0,t0,-17500
bd001b44:	0100f809 	jalr	t0
bd001b48:	00000000 	nop
bd001b4c:	40086000 	mfc0	t0,c0_status
bd001b50:	3c01ffbf 	lui	at,0xffbf
bd001b54:	3421ffff 	ori	at,at,0xffff
bd001b58:	01014024 	and	t0,t0,at
bd001b5c:	40886000 	mtc0	t0,c0_status
bd001b60:	30840000 	andi	a0,a0,0x0
bd001b64:	30a50000 	andi	a1,a1,0x0
bd001b68:	3c089d01 	lui	t0,0x9d01
bd001b6c:	2508b4a8 	addiu	t0,t0,-19288
bd001b70:	01000008 	jr	t0
bd001b74:	00000000 	nop

Disassembly of section .bev_excpt:

bd001cf0 <_bev_exception>:
bd001cf0:	3c1a9d01 	lui	k0,0x9d01
bd001cf4:	275ab5ec 	addiu	k0,k0,-18964
bd001cf8:	03400008 	jr	k0
bd001cfc:	00000000 	nop

Disassembly of section .app_excpt:

9d000180 <_gen_exception>:
9d000180:	3c1a9d01 	lui	k0,0x9d01
9d000184:	275aa590 	addiu	k0,k0,-23152
9d000188:	03400008 	jr	k0
9d00018c:	00000000 	nop

Disassembly of section .vector_0:

9d000200 <__vector_dispatch_0>:
9d000200:	0b402d9f 	j	9d00b67c <.LFE0>
9d000204:	00000000 	nop

Disassembly of section .vector_1:

9d000220 <__vector_dispatch_1>:
9d000220:	0b402d9f 	j	9d00b67c <.LFE0>
9d000224:	00000000 	nop

Disassembly of section .vector_2:

9d000240 <__vector_dispatch_2>:
9d000240:	0b402d9f 	j	9d00b67c <.LFE0>
9d000244:	00000000 	nop

Disassembly of section .vector_3:

9d000260 <__vector_dispatch_3>:
9d000260:	0b402d9f 	j	9d00b67c <.LFE0>
9d000264:	00000000 	nop

Disassembly of section .vector_4:

9d000280 <__vector_dispatch_4>:
9d000280:	0b402d9f 	j	9d00b67c <.LFE0>
9d000284:	00000000 	nop

Disassembly of section .vector_5:

9d0002a0 <__vector_dispatch_5>:
9d0002a0:	0b402d9f 	j	9d00b67c <.LFE0>
9d0002a4:	00000000 	nop

Disassembly of section .vector_6:

9d0002c0 <__vector_dispatch_6>:
9d0002c0:	0b402d9f 	j	9d00b67c <.LFE0>
9d0002c4:	00000000 	nop

Disassembly of section .vector_7:

9d0002e0 <__vector_dispatch_7>:
9d0002e0:	0b402d9f 	j	9d00b67c <.LFE0>
9d0002e4:	00000000 	nop

Disassembly of section .vector_8:

9d000300 <__vector_dispatch_8>:
9d000300:	0b402d9f 	j	9d00b67c <.LFE0>
9d000304:	00000000 	nop

Disassembly of section .vector_9:

9d000320 <__vector_dispatch_9>:
9d000320:	0b402d9f 	j	9d00b67c <.LFE0>
9d000324:	00000000 	nop

Disassembly of section .vector_10:

9d000340 <__vector_dispatch_10>:
9d000340:	0b402d9f 	j	9d00b67c <.LFE0>
9d000344:	00000000 	nop

Disassembly of section .vector_11:

9d000360 <__vector_dispatch_11>:
9d000360:	0b402d9f 	j	9d00b67c <.LFE0>
9d000364:	00000000 	nop

Disassembly of section .vector_12:

9d000380 <__vector_dispatch_12>:
9d000380:	0b402d9f 	j	9d00b67c <.LFE0>
9d000384:	00000000 	nop

Disassembly of section .vector_13:

9d0003a0 <__vector_dispatch_13>:
9d0003a0:	0b402d9f 	j	9d00b67c <.LFE0>
9d0003a4:	00000000 	nop

Disassembly of section .vector_14:

9d0003c0 <__vector_dispatch_14>:
9d0003c0:	0b402d9f 	j	9d00b67c <.LFE0>
9d0003c4:	00000000 	nop

Disassembly of section .vector_15:

9d0003e0 <__vector_dispatch_15>:
9d0003e0:	0b402d9f 	j	9d00b67c <.LFE0>
9d0003e4:	00000000 	nop

Disassembly of section .vector_16:

9d000400 <__vector_dispatch_16>:
9d000400:	0b401026 	j	9d004098 <PositionController>
9d000404:	00000000 	nop

Disassembly of section .vector_17:

9d000420 <__vector_dispatch_17>:
9d000420:	0b402d9f 	j	9d00b67c <.LFE0>
9d000424:	00000000 	nop

Disassembly of section .vector_18:

9d000440 <__vector_dispatch_18>:
9d000440:	0b402d9f 	j	9d00b67c <.LFE0>
9d000444:	00000000 	nop

Disassembly of section .vector_19:

9d000460 <__vector_dispatch_19>:
9d000460:	0b402d9f 	j	9d00b67c <.LFE0>
9d000464:	00000000 	nop

Disassembly of section .vector_20:

9d000480 <__vector_dispatch_20>:
9d000480:	0b402d9f 	j	9d00b67c <.LFE0>
9d000484:	00000000 	nop

Disassembly of section .vector_21:

9d0004a0 <__vector_dispatch_21>:
9d0004a0:	0b402d9f 	j	9d00b67c <.LFE0>
9d0004a4:	00000000 	nop

Disassembly of section .vector_22:

9d0004c0 <__vector_dispatch_22>:
9d0004c0:	0b402d9f 	j	9d00b67c <.LFE0>
9d0004c4:	00000000 	nop

Disassembly of section .vector_23:

9d0004e0 <__vector_dispatch_23>:
9d0004e0:	0b402d9f 	j	9d00b67c <.LFE0>
9d0004e4:	00000000 	nop

Disassembly of section .vector_24:

9d000500 <__vector_dispatch_24>:
9d000500:	0b402d9f 	j	9d00b67c <.LFE0>
9d000504:	00000000 	nop

Disassembly of section .vector_25:

9d000520 <__vector_dispatch_25>:
9d000520:	0b402d9f 	j	9d00b67c <.LFE0>
9d000524:	00000000 	nop

Disassembly of section .vector_26:

9d000540 <__vector_dispatch_26>:
9d000540:	0b402d9f 	j	9d00b67c <.LFE0>
9d000544:	00000000 	nop

Disassembly of section .vector_27:

9d000560 <__vector_dispatch_27>:
9d000560:	0b402d9f 	j	9d00b67c <.LFE0>
9d000564:	00000000 	nop

Disassembly of section .vector_28:

9d000580 <__vector_dispatch_28>:
9d000580:	0b402d9f 	j	9d00b67c <.LFE0>
9d000584:	00000000 	nop

Disassembly of section .vector_29:

9d0005a0 <__vector_dispatch_29>:
9d0005a0:	0b402d9f 	j	9d00b67c <.LFE0>
9d0005a4:	00000000 	nop

Disassembly of section .vector_30:

9d0005c0 <__vector_dispatch_30>:
9d0005c0:	0b402d9f 	j	9d00b67c <.LFE0>
9d0005c4:	00000000 	nop

Disassembly of section .vector_31:

9d0005e0 <__vector_dispatch_31>:
9d0005e0:	0b402d9f 	j	9d00b67c <.LFE0>
9d0005e4:	00000000 	nop

Disassembly of section .vector_32:

9d000600 <__vector_dispatch_32>:
9d000600:	0b402d9f 	j	9d00b67c <.LFE0>
9d000604:	00000000 	nop

Disassembly of section .vector_33:

9d000620 <__vector_dispatch_33>:
9d000620:	0b402d9f 	j	9d00b67c <.LFE0>
9d000624:	00000000 	nop

Disassembly of section .vector_34:

9d000640 <__vector_dispatch_34>:
9d000640:	0b402d9f 	j	9d00b67c <.LFE0>
9d000644:	00000000 	nop

Disassembly of section .vector_35:

9d000660 <__vector_dispatch_35>:
9d000660:	0b402d9f 	j	9d00b67c <.LFE0>
9d000664:	00000000 	nop

Disassembly of section .vector_36:

9d000680 <__vector_dispatch_36>:
9d000680:	0b402d9f 	j	9d00b67c <.LFE0>
9d000684:	00000000 	nop

Disassembly of section .vector_37:

9d0006a0 <__vector_dispatch_37>:
9d0006a0:	0b402d9f 	j	9d00b67c <.LFE0>
9d0006a4:	00000000 	nop

Disassembly of section .vector_38:

9d0006c0 <__vector_dispatch_38>:
9d0006c0:	0b402d9f 	j	9d00b67c <.LFE0>
9d0006c4:	00000000 	nop

Disassembly of section .vector_39:

9d0006e0 <__vector_dispatch_39>:
9d0006e0:	0b402d9f 	j	9d00b67c <.LFE0>
9d0006e4:	00000000 	nop

Disassembly of section .vector_40:

9d000700 <__vector_dispatch_40>:
9d000700:	0b402d9f 	j	9d00b67c <.LFE0>
9d000704:	00000000 	nop

Disassembly of section .vector_41:

9d000720 <__vector_dispatch_41>:
9d000720:	0b402d9f 	j	9d00b67c <.LFE0>
9d000724:	00000000 	nop

Disassembly of section .vector_42:

9d000740 <__vector_dispatch_42>:
9d000740:	0b402d9f 	j	9d00b67c <.LFE0>
9d000744:	00000000 	nop

Disassembly of section .vector_43:

9d000760 <__vector_dispatch_43>:
9d000760:	0b402d9f 	j	9d00b67c <.LFE0>
9d000764:	00000000 	nop

Disassembly of section .vector_44:

9d000780 <__vector_dispatch_44>:
9d000780:	0b402d9f 	j	9d00b67c <.LFE0>
9d000784:	00000000 	nop

Disassembly of section .vector_45:

9d0007a0 <__vector_dispatch_45>:
9d0007a0:	0b402d9f 	j	9d00b67c <.LFE0>
9d0007a4:	00000000 	nop

Disassembly of section .vector_46:

9d0007c0 <__vector_dispatch_46>:
9d0007c0:	0b402d9f 	j	9d00b67c <.LFE0>
9d0007c4:	00000000 	nop

Disassembly of section .vector_47:

9d0007e0 <__vector_dispatch_47>:
9d0007e0:	0b402d9f 	j	9d00b67c <.LFE0>
9d0007e4:	00000000 	nop

Disassembly of section .vector_48:

9d000800 <__vector_dispatch_48>:
9d000800:	0b402d9f 	j	9d00b67c <.LFE0>
9d000804:	00000000 	nop

Disassembly of section .vector_49:

9d000820 <__vector_dispatch_49>:
9d000820:	0b402d9f 	j	9d00b67c <.LFE0>
9d000824:	00000000 	nop

Disassembly of section .vector_50:

9d000840 <__vector_dispatch_50>:
9d000840:	0b402d9f 	j	9d00b67c <.LFE0>
9d000844:	00000000 	nop

Disassembly of section .vector_51:

9d000860 <__vector_dispatch_51>:
9d000860:	0b402d9f 	j	9d00b67c <.LFE0>
9d000864:	00000000 	nop

Disassembly of section ._debug_exception:

bfc00480 <__DbgExecReturn>:
bfc00480:	409bf800 	mtc0	k1,c0_desave
bfc00484:	000000c0 	ehb
bfc00488:	3c1b9d01 	lui	k1,0x9d01
bfc0048c:	277bb70c 	addiu	k1,k1,-18676
bfc00490:	13600002 	beqz	k1,bfc0049c <__DbgExecReturn+0x1c>
bfc00494:	00000000 	nop
bfc00498:	409bc000 	mtc0	k1,c0_depc
bfc0049c:	401bf800 	mfc0	k1,c0_desave
bfc004a0:	000000c0 	ehb
bfc004a4:	4200001f 	deret
bfc004a8:	00000000 	nop

Disassembly of section .text.do_scan:

9d001e00 <do_scan>:
9d001e00:	27bdff00 	addiu	sp,sp,-256
9d001e04:	afbf00fc 	sw	ra,252(sp)
9d001e08:	afbe00f8 	sw	s8,248(sp)
9d001e0c:	afb700f4 	sw	s7,244(sp)
9d001e10:	afb600f0 	sw	s6,240(sp)
9d001e14:	afb500ec 	sw	s5,236(sp)
9d001e18:	afb400e8 	sw	s4,232(sp)
9d001e1c:	afb300e4 	sw	s3,228(sp)
9d001e20:	afb200e0 	sw	s2,224(sp)
9d001e24:	afb100dc 	sw	s1,220(sp)
9d001e28:	afb000d8 	sw	s0,216(sp)
9d001e2c:	00809821 	move	s3,a0
9d001e30:	8c820018 	lw	v0,24(a0)
9d001e34:	00a08021 	move	s0,a1
9d001e38:	24050002 	li	a1,2
9d001e3c:	8c420010 	lw	v0,16(v0)
9d001e40:	0040f809 	jalr	v0
9d001e44:	00c08821 	move	s1,a2
9d001e48:	104000a2 	beqz	v0,9d0020d4 <do_scan+0x2d4>
9d001e4c:	2402ffff 	li	v0,-1
9d001e50:	afb30098 	sw	s3,152(sp)
9d001e54:	afa2009c 	sw	v0,156(sp)
9d001e58:	afb100a4 	sw	s1,164(sp)
9d001e5c:	afa000ac 	sw	zero,172(sp)
9d001e60:	afa000b0 	sw	zero,176(sp)
9d001e64:	afa000a8 	sw	zero,168(sp)
9d001e68:	02002821 	move	a1,s0
9d001e6c:	0000f021 	move	s8,zero
9d001e70:	3c109d01 	lui	s0,0x9d01
9d001e74:	2610a0b5 	addiu	s0,s0,-24395
9d001e78:	3c159d00 	lui	s5,0x9d00
9d001e7c:	24a20001 	addiu	v0,a1,1
9d001e80:	afa200a0 	sw	v0,160(sp)
9d001e84:	80b10000 	lb	s1,0(a1)
9d001e88:	12200012 	beqz	s1,9d001ed4 <do_scan+0xd4>
9d001e8c:	26b51ff8 	addiu	s5,s5,8184
9d001e90:	17c00010 	bnez	s8,9d001ed4 <do_scan+0xd4>
9d001e94:	24020025 	li	v0,37
9d001e98:	12220033 	beq	s1,v0,9d001f68 <do_scan+0x168>
9d001e9c:	02301021 	addu	v0,s1,s0
9d001ea0:	80420000 	lb	v0,0(v0)
9d001ea4:	30420088 	andi	v0,v0,0x88
9d001ea8:	10400021 	beqz	v0,9d001f30 <do_scan+0x130>
9d001eac:	27a40098 	addiu	a0,sp,152
9d001eb0:	0f402b2d 	jal	9d00acb4 <_eat_white>
9d001eb4:	00000000 	nop
9d001eb8:	0040f021 	move	s8,v0
9d001ebc:	8fa500a0 	lw	a1,160(sp)
9d001ec0:	24a20001 	addiu	v0,a1,1
9d001ec4:	afa200a0 	sw	v0,160(sp)
9d001ec8:	80b10000 	lb	s1,0(a1)
9d001ecc:	1620fff0 	bnez	s1,9d001e90 <do_scan+0x90>
9d001ed0:	00000000 	nop
9d001ed4:	8fa4009c 	lw	a0,156(sp)
9d001ed8:	2402ffff 	li	v0,-1
9d001edc:	10820005 	beq	a0,v0,9d001ef4 <do_scan+0xf4>
9d001ee0:	00000000 	nop
9d001ee4:	96620010 	lhu	v0,16(s3)
9d001ee8:	30420080 	andi	v0,v0,0x80
9d001eec:	1040008d 	beqz	v0,9d002124 <do_scan+0x324>
9d001ef0:	2402ffff 	li	v0,-1
9d001ef4:	13c20075 	beq	s8,v0,9d0020cc <do_scan+0x2cc>
9d001ef8:	8fa200ac 	lw	v0,172(sp)
9d001efc:	8fa200b0 	lw	v0,176(sp)
9d001f00:	8fbf00fc 	lw	ra,252(sp)
9d001f04:	8fbe00f8 	lw	s8,248(sp)
9d001f08:	8fb700f4 	lw	s7,244(sp)
9d001f0c:	8fb600f0 	lw	s6,240(sp)
9d001f10:	8fb500ec 	lw	s5,236(sp)
9d001f14:	8fb400e8 	lw	s4,232(sp)
9d001f18:	8fb300e4 	lw	s3,228(sp)
9d001f1c:	8fb200e0 	lw	s2,224(sp)
9d001f20:	8fb100dc 	lw	s1,220(sp)
9d001f24:	8fb000d8 	lw	s0,216(sp)
9d001f28:	03e00008 	jr	ra
9d001f2c:	27bd0100 	addiu	sp,sp,256
9d001f30:	0f402ce0 	jal	9d00b380 <gsgetc>
9d001f34:	00000000 	nop
9d001f38:	2403ffff 	li	v1,-1
9d001f3c:	504301cf 	beql	v0,v1,9d00267c <do_scan+0x87c>
9d001f40:	241effff 	li	s8,-1
9d001f44:	5222ffde 	beql	s1,v0,9d001ec0 <do_scan+0xc0>
9d001f48:	8fa500a0 	lw	a1,160(sp)
9d001f4c:	afa2009c 	sw	v0,156(sp)
9d001f50:	241e0001 	li	s8,1
9d001f54:	8fa200a8 	lw	v0,168(sp)
9d001f58:	2442ffff 	addiu	v0,v0,-1
9d001f5c:	afa200a8 	sw	v0,168(sp)
9d001f60:	0b4007b0 	j	9d001ec0 <do_scan+0xc0>
9d001f64:	8fa500a0 	lw	a1,160(sp)
9d001f68:	24a20002 	addiu	v0,a1,2
9d001f6c:	afa200a0 	sw	v0,160(sp)
9d001f70:	80b20001 	lb	s2,1(a1)
9d001f74:	125101a2 	beq	s2,s1,9d002600 <do_scan+0x800>
9d001f78:	2402002a 	li	v0,42
9d001f7c:	124200dd 	beq	s2,v0,9d0022f4 <do_scan+0x4f4>
9d001f80:	00008821 	move	s1,zero
9d001f84:	02121021 	addu	v0,s0,s2
9d001f88:	90420000 	lbu	v0,0(v0)
9d001f8c:	30420004 	andi	v0,v0,0x4
9d001f90:	144000c1 	bnez	v0,9d002298 <do_scan+0x498>
9d001f94:	3c167fff 	lui	s6,0x7fff
9d001f98:	36d6ffff 	ori	s6,s6,0xffff
9d001f9c:	24020068 	li	v0,104
9d001fa0:	124200cc 	beq	s2,v0,9d0022d4 <do_scan+0x4d4>
9d001fa4:	afb600d0 	sw	s6,208(sp)
9d001fa8:	2a420069 	slti	v0,s2,105
9d001fac:	144000b2 	bnez	v0,9d002278 <do_scan+0x478>
9d001fb0:	2402006c 	li	v0,108
9d001fb4:	12420054 	beq	s2,v0,9d002108 <do_scan+0x308>
9d001fb8:	8fa300a0 	lw	v1,160(sp)
9d001fbc:	24020071 	li	v0,113
9d001fc0:	16420005 	bne	s2,v0,9d001fd8 <do_scan+0x1d8>
9d001fc4:	8fa200a0 	lw	v0,160(sp)
9d001fc8:	36310800 	ori	s1,s1,0x800
9d001fcc:	24430001 	addiu	v1,v0,1
9d001fd0:	afa300a0 	sw	v1,160(sp)
9d001fd4:	80520000 	lb	s2,0(v0)
9d001fd8:	2652ffbc 	addiu	s2,s2,-68
9d001fdc:	2e420035 	sltiu	v0,s2,53
9d001fe0:	104001bf 	beqz	v0,9d0026e0 <do_scan+0x8e0>
9d001fe4:	00129080 	sll	s2,s2,0x2
9d001fe8:	02b29021 	addu	s2,s5,s2
9d001fec:	8e420000 	lw	v0,0(s2)
9d001ff0:	00400008 	jr	v0
9d001ff4:	00000000 	nop
9d001ff8:	9d002140 	0x9d002140
9d001ffc:	9d002414 	0x9d002414
9d002000:	9d002414 	0x9d002414
9d002004:	9d002414 	0x9d002414
9d002008:	9d0026e0 	0x9d0026e0
9d00200c:	9d0026e0 	0x9d0026e0
9d002010:	9d0026e0 	0x9d0026e0
9d002014:	9d0026e0 	0x9d0026e0
9d002018:	9d0026e0 	0x9d0026e0
9d00201c:	9d0026e0 	0x9d0026e0
9d002020:	9d0026e0 	0x9d0026e0
9d002024:	9d002404 	0x9d002404
9d002028:	9d0026e0 	0x9d0026e0
9d00202c:	9d0026e0 	0x9d0026e0
9d002030:	9d0026e0 	0x9d0026e0
9d002034:	9d0026e0 	0x9d0026e0
9d002038:	9d0026e0 	0x9d0026e0
9d00203c:	9d0023f4 	0x9d0023f4
9d002040:	9d0026e0 	0x9d0026e0
9d002044:	9d0026e0 	0x9d0026e0
9d002048:	9d0023e8 	0x9d0023e8
9d00204c:	9d0026e0 	0x9d0026e0
9d002050:	9d0026e0 	0x9d0026e0
9d002054:	9d002358 	0x9d002358
9d002058:	9d0026e0 	0x9d0026e0
9d00205c:	9d0026e0 	0x9d0026e0
9d002060:	9d0026e0 	0x9d0026e0
9d002064:	9d0026e0 	0x9d0026e0
9d002068:	9d0026e0 	0x9d0026e0
9d00206c:	9d0026e0 	0x9d0026e0
9d002070:	9d0026e0 	0x9d0026e0
9d002074:	9d002314 	0x9d002314
9d002078:	9d002144 	0x9d002144
9d00207c:	9d002414 	0x9d002414
9d002080:	9d002414 	0x9d002414
9d002084:	9d002414 	0x9d002414
9d002088:	9d0026e0 	0x9d0026e0
9d00208c:	9d002380 	0x9d002380
9d002090:	9d0026e0 	0x9d0026e0
9d002094:	9d0026e0 	0x9d0026e0
9d002098:	9d0026e0 	0x9d0026e0
9d00209c:	9d0026e0 	0x9d0026e0
9d0020a0:	9d00238c 	0x9d00238c
9d0020a4:	9d002308 	0x9d002308
9d0020a8:	9d0023e8 	0x9d0023e8
9d0020ac:	9d0026e0 	0x9d0026e0
9d0020b0:	9d0026e0 	0x9d0026e0
9d0020b4:	9d0023c8 	0x9d0023c8
9d0020b8:	9d0026e0 	0x9d0026e0
9d0020bc:	9d002148 	0x9d002148
9d0020c0:	9d0026e0 	0x9d0026e0
9d0020c4:	9d0026e0 	0x9d0026e0
9d0020c8:	9d0023e8 	0x9d0023e8
9d0020cc:	1440ff8c 	bnez	v0,9d001f00 <do_scan+0x100>
9d0020d0:	8fa200b0 	lw	v0,176(sp)
9d0020d4:	2402ffff 	li	v0,-1
9d0020d8:	8fbf00fc 	lw	ra,252(sp)
9d0020dc:	8fbe00f8 	lw	s8,248(sp)
9d0020e0:	8fb700f4 	lw	s7,244(sp)
9d0020e4:	8fb600f0 	lw	s6,240(sp)
9d0020e8:	8fb500ec 	lw	s5,236(sp)
9d0020ec:	8fb400e8 	lw	s4,232(sp)
9d0020f0:	8fb300e4 	lw	s3,228(sp)
9d0020f4:	8fb200e0 	lw	s2,224(sp)
9d0020f8:	8fb100dc 	lw	s1,220(sp)
9d0020fc:	8fb000d8 	lw	s0,216(sp)
9d002100:	03e00008 	jr	ra
9d002104:	27bd0100 	addiu	sp,sp,256
9d002108:	24640001 	addiu	a0,v1,1
9d00210c:	afa400a0 	sw	a0,160(sp)
9d002110:	80720000 	lb	s2,0(v1)
9d002114:	12420119 	beq	s2,v0,9d00257c <do_scan+0x77c>
9d002118:	24620002 	addiu	v0,v1,2
9d00211c:	0b4007f6 	j	9d001fd8 <do_scan+0x1d8>
9d002120:	36310200 	ori	s1,s1,0x200
9d002124:	0f40275b 	jal	9d009d6c <ungetc>
9d002128:	8fa50098 	lw	a1,152(sp)
9d00212c:	2402ffff 	li	v0,-1
9d002130:	57c2ff73 	bnel	s8,v0,9d001f00 <do_scan+0x100>
9d002134:	8fa200b0 	lw	v0,176(sp)
9d002138:	0b400833 	j	9d0020cc <do_scan+0x2cc>
9d00213c:	8fa200ac 	lw	v0,172(sp)
9d002140:	36310200 	ori	s1,s1,0x200
9d002144:	36311000 	ori	s1,s1,0x1000
9d002148:	2403000a 	li	v1,10
9d00214c:	afa300d4 	sw	v1,212(sp)
9d002150:	0f402b2d 	jal	9d00acb4 <_eat_white>
9d002154:	27a40098 	addiu	a0,sp,152
9d002158:	1440ff58 	bnez	v0,9d001ebc <do_scan+0xbc>
9d00215c:	0040f021 	move	s8,v0
9d002160:	27a40018 	addiu	a0,sp,24
9d002164:	afa400cc 	sw	a0,204(sp)
9d002168:	8fa200d0 	lw	v0,208(sp)
9d00216c:	1440010b 	bnez	v0,9d00259c <do_scan+0x79c>
9d002170:	00009021 	move	s2,zero
9d002174:	27b60018 	addiu	s6,sp,24
9d002178:	8fa300d4 	lw	v1,212(sp)
9d00217c:	106000fa 	beqz	v1,9d002568 <do_scan+0x768>
9d002180:	2417ffff 	li	s7,-1
9d002184:	24020010 	li	v0,16
9d002188:	8fa300d4 	lw	v1,212(sp)
9d00218c:	1062015a 	beq	v1,v0,9d0026f8 <do_scan+0x8f8>
9d002190:	24020030 	li	v0,48
9d002194:	24020008 	li	v0,8
9d002198:	8fa300d4 	lw	v1,212(sp)
9d00219c:	146200f5 	bne	v1,v0,9d002574 <do_scan+0x774>
9d0021a0:	3c029d01 	lui	v0,0x9d01
9d0021a4:	24030008 	li	v1,8
9d0021a8:	afa300d4 	sw	v1,212(sp)
9d0021ac:	3c049d01 	lui	a0,0x9d01
9d0021b0:	2494b8ac 	addiu	s4,a0,-18260
9d0021b4:	2403ffff 	li	v1,-1
9d0021b8:	12e30009 	beq	s7,v1,9d0021e0 <do_scan+0x3e0>
9d0021bc:	02802021 	move	a0,s4
9d0021c0:	0f4028ee 	jal	9d00a3b8 <strchr>
9d0021c4:	02e02821 	move	a1,s7
9d0021c8:	1040011d 	beqz	v0,9d002640 <do_scan+0x840>
9d0021cc:	26c20001 	addiu	v0,s6,1
9d0021d0:	afa200cc 	sw	v0,204(sp)
9d0021d4:	16400121 	bnez	s2,9d00265c <do_scan+0x85c>
9d0021d8:	a2d70000 	sb	s7,0(s6)
9d0021dc:	8fb600cc 	lw	s6,204(sp)
9d0021e0:	a2c00000 	sb	zero,0(s6)
9d0021e4:	2417ffff 	li	s7,-1
9d0021e8:	32340800 	andi	s4,s1,0x800
9d0021ec:	32361000 	andi	s6,s1,0x1000
9d0021f0:	27a40018 	addiu	a0,sp,24
9d0021f4:	27a500cc 	addiu	a1,sp,204
9d0021f8:	1280010a 	beqz	s4,9d002624 <do_scan+0x824>
9d0021fc:	8fa600d4 	lw	a2,212(sp)
9d002200:	12c00126 	beqz	s6,9d00269c <do_scan+0x89c>
9d002204:	00000000 	nop
9d002208:	0f401b81 	jal	9d006e04 <.LFE23>
9d00220c:	00000000 	nop
9d002210:	00402021 	move	a0,v0
9d002214:	00602821 	move	a1,v1
9d002218:	00001021 	move	v0,zero
9d00221c:	8fa300ac 	lw	v1,172(sp)
9d002220:	24630001 	addiu	v1,v1,1
9d002224:	afa300ac 	sw	v1,172(sp)
9d002228:	8fa300d0 	lw	v1,208(sp)
9d00222c:	10720115 	beq	v1,s2,9d002684 <do_scan+0x884>
9d002230:	32230001 	andi	v1,s1,0x1
9d002234:	5460ff22 	bnezl	v1,9d001ec0 <do_scan+0xc0>
9d002238:	8fa500a0 	lw	a1,160(sp)
9d00223c:	56800122 	bnezl	s4,9d0026c8 <do_scan+0x8c8>
9d002240:	8fa200a4 	lw	v0,164(sp)
9d002244:	32230200 	andi	v1,s1,0x200
9d002248:	10600171 	beqz	v1,9d002810 <do_scan+0xa10>
9d00224c:	32230100 	andi	v1,s1,0x100
9d002250:	8fa300a4 	lw	v1,164(sp)
9d002254:	24640004 	addiu	a0,v1,4
9d002258:	afa400a4 	sw	a0,164(sp)
9d00225c:	8c630000 	lw	v1,0(v1)
9d002260:	ac620000 	sw	v0,0(v1)
9d002264:	8fa200b0 	lw	v0,176(sp)
9d002268:	24420001 	addiu	v0,v0,1
9d00226c:	afa200b0 	sw	v0,176(sp)
9d002270:	0b4007b0 	j	9d001ec0 <do_scan+0xc0>
9d002274:	8fa500a0 	lw	a1,160(sp)
9d002278:	2402004c 	li	v0,76
9d00227c:	1642ff56 	bne	s2,v0,9d001fd8 <do_scan+0x1d8>
9d002280:	8fa200a0 	lw	v0,160(sp)
9d002284:	36310400 	ori	s1,s1,0x400
9d002288:	24430001 	addiu	v1,v0,1
9d00228c:	afa300a0 	sw	v1,160(sp)
9d002290:	0b4007f6 	j	9d001fd8 <do_scan+0x1d8>
9d002294:	80520000 	lb	s2,0(v0)
9d002298:	27a500a0 	addiu	a1,sp,160
9d00229c:	2406000a 	li	a2,10
9d0022a0:	8fa200a0 	lw	v0,160(sp)
9d0022a4:	2442ffff 	addiu	v0,v0,-1
9d0022a8:	00402021 	move	a0,v0
9d0022ac:	0f4021a0 	jal	9d008680 <strtoul>
9d0022b0:	afa200a0 	sw	v0,160(sp)
9d0022b4:	afa200d0 	sw	v0,208(sp)
9d0022b8:	8fa200a0 	lw	v0,160(sp)
9d0022bc:	24430001 	addiu	v1,v0,1
9d0022c0:	afa300a0 	sw	v1,160(sp)
9d0022c4:	80520000 	lb	s2,0(v0)
9d0022c8:	24020068 	li	v0,104
9d0022cc:	5642ff37 	bnel	s2,v0,9d001fac <do_scan+0x1ac>
9d0022d0:	2a420069 	slti	v0,s2,105
9d0022d4:	8fa300a0 	lw	v1,160(sp)
9d0022d8:	24640001 	addiu	a0,v1,1
9d0022dc:	afa400a0 	sw	a0,160(sp)
9d0022e0:	80720000 	lb	s2,0(v1)
9d0022e4:	124200a9 	beq	s2,v0,9d00258c <do_scan+0x78c>
9d0022e8:	24620002 	addiu	v0,v1,2
9d0022ec:	0b4007f6 	j	9d001fd8 <do_scan+0x1d8>
9d0022f0:	36310100 	ori	s1,s1,0x100
9d0022f4:	24a20003 	addiu	v0,a1,3
9d0022f8:	afa200a0 	sw	v0,160(sp)
9d0022fc:	80b20002 	lb	s2,2(a1)
9d002300:	0b4007e1 	j	9d001f84 <do_scan+0x184>
9d002304:	24110001 	li	s1,1
9d002308:	24030008 	li	v1,8
9d00230c:	0b400854 	j	9d002150 <do_scan+0x350>
9d002310:	afa300d4 	sw	v1,212(sp)
9d002314:	3c077fff 	lui	a3,0x7fff
9d002318:	34e7ffff 	ori	a3,a3,0xffff
9d00231c:	8fa400d0 	lw	a0,208(sp)
9d002320:	00873826 	xor	a3,a0,a3
9d002324:	27a20098 	addiu	v0,sp,152
9d002328:	afa20010 	sw	v0,16(sp)
9d00232c:	00002021 	move	a0,zero
9d002330:	00002821 	move	a1,zero
9d002334:	02203021 	move	a2,s1
9d002338:	24020001 	li	v0,1
9d00233c:	8fa300d0 	lw	v1,208(sp)
9d002340:	0047180a 	movz	v1,v0,a3
9d002344:	0f40205e 	jal	9d008178 <.LFE2>
9d002348:	00603821 	move	a3,v1
9d00234c:	0040f021 	move	s8,v0
9d002350:	0b4007b0 	j	9d001ec0 <do_scan+0xc0>
9d002354:	8fa500a0 	lw	a1,160(sp)
9d002358:	27a20098 	addiu	v0,sp,152
9d00235c:	afa20010 	sw	v0,16(sp)
9d002360:	24040002 	li	a0,2
9d002364:	24050001 	li	a1,1
9d002368:	02203021 	move	a2,s1
9d00236c:	0f40205e 	jal	9d008178 <.LFE2>
9d002370:	8fa700d0 	lw	a3,208(sp)
9d002374:	0040f021 	move	s8,v0
9d002378:	0b4007b0 	j	9d001ec0 <do_scan+0xc0>
9d00237c:	8fa500a0 	lw	a1,160(sp)
9d002380:	36311000 	ori	s1,s1,0x1000
9d002384:	0b400854 	j	9d002150 <do_scan+0x350>
9d002388:	afa000d4 	sw	zero,212(sp)
9d00238c:	32220001 	andi	v0,s1,0x1
9d002390:	1440fecb 	bnez	v0,9d001ec0 <do_scan+0xc0>
9d002394:	8fa500a0 	lw	a1,160(sp)
9d002398:	32230800 	andi	v1,s1,0x800
9d00239c:	10600112 	beqz	v1,9d0027e8 <do_scan+0x9e8>
9d0023a0:	8fa200a8 	lw	v0,168(sp)
9d0023a4:	8fa300a4 	lw	v1,164(sp)
9d0023a8:	000227c3 	sra	a0,v0,0x1f
9d0023ac:	24650004 	addiu	a1,v1,4
9d0023b0:	afa500a4 	sw	a1,164(sp)
9d0023b4:	8c630000 	lw	v1,0(v1)
9d0023b8:	ac620000 	sw	v0,0(v1)
9d0023bc:	ac640004 	sw	a0,4(v1)
9d0023c0:	0b4007b0 	j	9d001ec0 <do_scan+0xc0>
9d0023c4:	8fa500a0 	lw	a1,160(sp)
9d0023c8:	0f402b2d 	jal	9d00acb4 <_eat_white>
9d0023cc:	27a40098 	addiu	a0,sp,152
9d0023d0:	1440feba 	bnez	v0,9d001ebc <do_scan+0xbc>
9d0023d4:	0040f021 	move	s8,v0
9d0023d8:	27a30098 	addiu	v1,sp,152
9d0023dc:	afa30010 	sw	v1,16(sp)
9d0023e0:	0b4008d9 	j	9d002364 <do_scan+0x564>
9d0023e4:	24040001 	li	a0,1
9d0023e8:	24030010 	li	v1,16
9d0023ec:	0b400854 	j	9d002150 <do_scan+0x350>
9d0023f0:	afa300d4 	sw	v1,212(sp)
9d0023f4:	36310200 	ori	s1,s1,0x200
9d0023f8:	2403000a 	li	v1,10
9d0023fc:	0b400854 	j	9d002150 <do_scan+0x350>
9d002400:	afa300d4 	sw	v1,212(sp)
9d002404:	36310200 	ori	s1,s1,0x200
9d002408:	24030008 	li	v1,8
9d00240c:	0b400854 	j	9d002150 <do_scan+0x350>
9d002410:	afa300d4 	sw	v1,212(sp)
9d002414:	0f402b2d 	jal	9d00acb4 <_eat_white>
9d002418:	27a40098 	addiu	a0,sp,152
9d00241c:	1440fea7 	bnez	v0,9d001ebc <do_scan+0xbc>
9d002420:	0040f021 	move	s8,v0
9d002424:	8fa400d0 	lw	a0,208(sp)
9d002428:	afa400b8 	sw	a0,184(sp)
9d00242c:	27a20098 	addiu	v0,sp,152
9d002430:	afa200b4 	sw	v0,180(sp)
9d002434:	27a20018 	addiu	v0,sp,24
9d002438:	afa200bc 	sw	v0,188(sp)
9d00243c:	afa000c0 	sw	zero,192(sp)
9d002440:	24020080 	li	v0,128
9d002444:	afa200c4 	sw	v0,196(sp)
9d002448:	14800109 	bnez	a0,9d002870 <do_scan+0xa70>
9d00244c:	afa000c8 	sw	zero,200(sp)
9d002450:	3c049d01 	lui	a0,0x9d01
9d002454:	2482a0b4 	addiu	v0,a0,-24396
9d002458:	2416ffff 	li	s6,-1
9d00245c:	0000a021 	move	s4,zero
9d002460:	0b40091e 	j	9d002478 <do_scan+0x678>
9d002464:	27b200b4 	addiu	s2,sp,180
9d002468:	0f4027a8 	jal	9d009ea0 <putget.2773>
9d00246c:	02c02021 	move	a0,s6
9d002470:	0040b021 	move	s6,v0
9d002474:	02021021 	addu	v0,s0,v0
9d002478:	90420000 	lbu	v0,0(v0)
9d00247c:	30420004 	andi	v0,v0,0x4
9d002480:	1440fff9 	bnez	v0,9d002468 <do_scan+0x668>
9d002484:	02407821 	move	t7,s2
9d002488:	2402002e 	li	v0,46
9d00248c:	12c20135 	beq	s6,v0,9d002964 <do_scan+0xb64>
9d002490:	8fa200c8 	lw	v0,200(sp)
9d002494:	00541023 	subu	v0,v0,s4
9d002498:	18400005 	blez	v0,9d0024b0 <do_scan+0x6b0>
9d00249c:	2403ffdf 	li	v1,-33
9d0024a0:	02c31824 	and	v1,s6,v1
9d0024a4:	24020045 	li	v0,69
9d0024a8:	1062010a 	beq	v1,v0,9d0028d4 <do_scan+0xad4>
9d0024ac:	02407821 	move	t7,s2
9d0024b0:	02407821 	move	t7,s2
9d0024b4:	0f4027a8 	jal	9d009ea0 <putget.2773>
9d0024b8:	00002021 	move	a0,zero
9d0024bc:	2402ffff 	li	v0,-1
9d0024c0:	12c20008 	beq	s6,v0,9d0024e4 <do_scan+0x6e4>
9d0024c4:	8fa200b4 	lw	v0,180(sp)
9d0024c8:	8c430010 	lw	v1,16(v0)
9d0024cc:	8fa400b8 	lw	a0,184(sp)
9d0024d0:	24840001 	addiu	a0,a0,1
9d0024d4:	afa400b8 	sw	a0,184(sp)
9d0024d8:	2463ffff 	addiu	v1,v1,-1
9d0024dc:	ac560004 	sw	s6,4(v0)
9d0024e0:	ac430010 	sw	v1,16(v0)
9d0024e4:	8fa200c8 	lw	v0,200(sp)
9d0024e8:	0054a023 	subu	s4,v0,s4
9d0024ec:	1a8000f7 	blez	s4,9d0028cc <do_scan+0xacc>
9d0024f0:	8fa200b4 	lw	v0,180(sp)
9d0024f4:	32230001 	andi	v1,s1,0x1
9d0024f8:	8c440014 	lw	a0,20(v0)
9d0024fc:	24840001 	addiu	a0,a0,1
9d002500:	14600011 	bnez	v1,9d002548 <do_scan+0x748>
9d002504:	ac440014 	sw	a0,20(v0)
9d002508:	32230400 	andi	v1,s1,0x400
9d00250c:	14600129 	bnez	v1,9d0029b4 <do_scan+0xbb4>
9d002510:	00002821 	move	a1,zero
9d002514:	32310200 	andi	s1,s1,0x200
9d002518:	8c43000c 	lw	v1,12(v0)
9d00251c:	8fa400bc 	lw	a0,188(sp)
9d002520:	24660004 	addiu	a2,v1,4
9d002524:	1220011c 	beqz	s1,9d002998 <do_scan+0xb98>
9d002528:	ac46000c 	sw	a2,12(v0)
9d00252c:	0f402e9b 	jal	9d00ba6c <strtod>
9d002530:	8c710000 	lw	s1,0(v1)
9d002534:	ae220000 	sw	v0,0(s1)
9d002538:	8fa200b4 	lw	v0,180(sp)
9d00253c:	8c430018 	lw	v1,24(v0)
9d002540:	24630001 	addiu	v1,v1,1
9d002544:	ac430018 	sw	v1,24(v0)
9d002548:	8fa400c0 	lw	a0,192(sp)
9d00254c:	5080fe5c 	beqzl	a0,9d001ec0 <do_scan+0xc0>
9d002550:	8fa500a0 	lw	a1,160(sp)
9d002554:	0f4020ff 	jal	9d0083fc <free>
9d002558:	00000000 	nop
9d00255c:	0b4007b0 	j	9d001ec0 <do_scan+0xc0>
9d002560:	8fa500a0 	lw	a1,160(sp)
9d002564:	2417ffff 	li	s7,-1
9d002568:	2403000a 	li	v1,10
9d00256c:	afa300d4 	sw	v1,212(sp)
9d002570:	3c029d01 	lui	v0,0x9d01
9d002574:	0b40086d 	j	9d0021b4 <do_scan+0x3b4>
9d002578:	2454b8d0 	addiu	s4,v0,-18224
9d00257c:	afa200a0 	sw	v0,160(sp)
9d002580:	80720001 	lb	s2,1(v1)
9d002584:	0b4007f6 	j	9d001fd8 <do_scan+0x1d8>
9d002588:	36310800 	ori	s1,s1,0x800
9d00258c:	afa200a0 	sw	v0,160(sp)
9d002590:	80720001 	lb	s2,1(v1)
9d002594:	0b4007f6 	j	9d001fd8 <do_scan+0x1d8>
9d002598:	36310080 	ori	s1,s1,0x80
9d00259c:	0f402ce0 	jal	9d00b380 <gsgetc>
9d0025a0:	27a40098 	addiu	a0,sp,152
9d0025a4:	0040b821 	move	s7,v0
9d0025a8:	2402ffff 	li	v0,-1
9d0025ac:	12e2004f 	beq	s7,v0,9d0026ec <do_scan+0x8ec>
9d0025b0:	8fa300d0 	lw	v1,208(sp)
9d0025b4:	2402002b 	li	v0,43
9d0025b8:	16e2010c 	bne	s7,v0,9d0029ec <do_scan+0xbec>
9d0025bc:	2472ffff 	addiu	s2,v1,-1
9d0025c0:	8fa200cc 	lw	v0,204(sp)
9d0025c4:	24430001 	addiu	v1,v0,1
9d0025c8:	afa300cc 	sw	v1,204(sp)
9d0025cc:	16400063 	bnez	s2,9d00275c <do_scan+0x95c>
9d0025d0:	a0570000 	sb	s7,0(v0)
9d0025d4:	8fa300d4 	lw	v1,212(sp)
9d0025d8:	1060ffe2 	beqz	v1,9d002564 <do_scan+0x764>
9d0025dc:	8fb600cc 	lw	s6,204(sp)
9d0025e0:	24020010 	li	v0,16
9d0025e4:	1462feeb 	bne	v1,v0,9d002194 <do_scan+0x394>
9d0025e8:	2417ffff 	li	s7,-1
9d0025ec:	24030010 	li	v1,16
9d0025f0:	afa300d4 	sw	v1,212(sp)
9d0025f4:	3c049d01 	lui	a0,0x9d01
9d0025f8:	0b40086d 	j	9d0021b4 <do_scan+0x3b4>
9d0025fc:	2494b8b8 	addiu	s4,a0,-18248
9d002600:	0f402ce0 	jal	9d00b380 <gsgetc>
9d002604:	27a40098 	addiu	a0,sp,152
9d002608:	2403ffff 	li	v1,-1
9d00260c:	5043001b 	beql	v0,v1,9d00267c <do_scan+0x87c>
9d002610:	241effff 	li	s8,-1
9d002614:	5452fe4e 	bnel	v0,s2,9d001f50 <do_scan+0x150>
9d002618:	afa2009c 	sw	v0,156(sp)
9d00261c:	0b4007b0 	j	9d001ec0 <do_scan+0xc0>
9d002620:	8fa500a0 	lw	a1,160(sp)
9d002624:	12c00023 	beqz	s6,9d0026b4 <do_scan+0x8b4>
9d002628:	00000000 	nop
9d00262c:	0f402240 	jal	9d008900 <strtol>
9d002630:	00000000 	nop
9d002634:	00002021 	move	a0,zero
9d002638:	0b400887 	j	9d00221c <do_scan+0x41c>
9d00263c:	00002821 	move	a1,zero
9d002640:	a2c00000 	sb	zero,0(s6)
9d002644:	26520001 	addiu	s2,s2,1
9d002648:	afb7009c 	sw	s7,156(sp)
9d00264c:	8fa200a8 	lw	v0,168(sp)
9d002650:	2442ffff 	addiu	v0,v0,-1
9d002654:	0b40087a 	j	9d0021e8 <do_scan+0x3e8>
9d002658:	afa200a8 	sw	v0,168(sp)
9d00265c:	0f402ce0 	jal	9d00b380 <gsgetc>
9d002660:	27a40098 	addiu	a0,sp,152
9d002664:	0040b821 	move	s7,v0
9d002668:	00021027 	nor	v0,zero,v0
9d00266c:	8fb600cc 	lw	s6,204(sp)
9d002670:	0002102b 	sltu	v0,zero,v0
9d002674:	0b40086d 	j	9d0021b4 <do_scan+0x3b4>
9d002678:	02429023 	subu	s2,s2,v0
9d00267c:	0b4007b0 	j	9d001ec0 <do_scan+0xc0>
9d002680:	8fa500a0 	lw	a1,160(sp)
9d002684:	241effff 	li	s8,-1
9d002688:	00174027 	nor	t0,zero,s7
9d00268c:	24020001 	li	v0,1
9d002690:	0048f00b 	movn	s8,v0,t0
9d002694:	0b4007b0 	j	9d001ec0 <do_scan+0xc0>
9d002698:	8fa500a0 	lw	a1,160(sp)
9d00269c:	0f401edc 	jal	9d007b70 <strtoull>
9d0026a0:	00000000 	nop
9d0026a4:	00402021 	move	a0,v0
9d0026a8:	00602821 	move	a1,v1
9d0026ac:	0b400887 	j	9d00221c <do_scan+0x41c>
9d0026b0:	00001021 	move	v0,zero
9d0026b4:	0f4021a0 	jal	9d008680 <strtoul>
9d0026b8:	00000000 	nop
9d0026bc:	00002021 	move	a0,zero
9d0026c0:	0b400887 	j	9d00221c <do_scan+0x41c>
9d0026c4:	00002821 	move	a1,zero
9d0026c8:	24430004 	addiu	v1,v0,4
9d0026cc:	afa300a4 	sw	v1,164(sp)
9d0026d0:	8c420000 	lw	v0,0(v0)
9d0026d4:	ac440000 	sw	a0,0(v0)
9d0026d8:	0b400899 	j	9d002264 <do_scan+0x464>
9d0026dc:	ac450004 	sw	a1,4(v0)
9d0026e0:	241e0001 	li	s8,1
9d0026e4:	0b4007b0 	j	9d001ec0 <do_scan+0xc0>
9d0026e8:	8fa500a0 	lw	a1,160(sp)
9d0026ec:	8fb600cc 	lw	s6,204(sp)
9d0026f0:	0b40085e 	j	9d002178 <do_scan+0x378>
9d0026f4:	8fb200d0 	lw	s2,208(sp)
9d0026f8:	16e2ffbd 	bne	s7,v0,9d0025f0 <do_scan+0x7f0>
9d0026fc:	24030010 	li	v1,16
9d002700:	26c20001 	addiu	v0,s6,1
9d002704:	afa200cc 	sw	v0,204(sp)
9d002708:	16400004 	bnez	s2,9d00271c <do_scan+0x91c>
9d00270c:	a2d70000 	sb	s7,0(s6)
9d002710:	8fb600cc 	lw	s6,204(sp)
9d002714:	0b40097b 	j	9d0025ec <do_scan+0x7ec>
9d002718:	2417ffff 	li	s7,-1
9d00271c:	0f402ce0 	jal	9d00b380 <gsgetc>
9d002720:	27a40098 	addiu	a0,sp,152
9d002724:	2416ffff 	li	s6,-1
9d002728:	1056fff9 	beq	v0,s6,9d002710 <do_scan+0x910>
9d00272c:	0040b821 	move	s7,v0
9d002730:	2403ffdf 	li	v1,-33
9d002734:	00431824 	and	v1,v0,v1
9d002738:	24020058 	li	v0,88
9d00273c:	146200a8 	bne	v1,v0,9d0029e0 <do_scan+0xbe0>
9d002740:	2654ffff 	addiu	s4,s2,-1
9d002744:	16800080 	bnez	s4,9d002948 <do_scan+0xb48>
9d002748:	00000000 	nop
9d00274c:	8fb600cc 	lw	s6,204(sp)
9d002750:	00009021 	move	s2,zero
9d002754:	0b40097b 	j	9d0025ec <do_scan+0x7ec>
9d002758:	2417ffff 	li	s7,-1
9d00275c:	0f402ce0 	jal	9d00b380 <gsgetc>
9d002760:	27a40098 	addiu	a0,sp,152
9d002764:	0040b821 	move	s7,v0
9d002768:	2402ffff 	li	v0,-1
9d00276c:	12e2ff9a 	beq	s7,v0,9d0025d8 <do_scan+0x7d8>
9d002770:	8fa300d4 	lw	v1,212(sp)
9d002774:	8fb600cc 	lw	s6,204(sp)
9d002778:	8fa400d0 	lw	a0,208(sp)
9d00277c:	2492fffe 	addiu	s2,a0,-2
9d002780:	8fa300d4 	lw	v1,212(sp)
9d002784:	1460fe81 	bnez	v1,9d00218c <do_scan+0x38c>
9d002788:	24020010 	li	v0,16
9d00278c:	24020030 	li	v0,48
9d002790:	16e2ff76 	bne	s7,v0,9d00256c <do_scan+0x76c>
9d002794:	2403000a 	li	v1,10
9d002798:	26c20001 	addiu	v0,s6,1
9d00279c:	afa200cc 	sw	v0,204(sp)
9d0027a0:	16400004 	bnez	s2,9d0027b4 <do_scan+0x9b4>
9d0027a4:	a2d70000 	sb	s7,0(s6)
9d0027a8:	2417ffff 	li	s7,-1
9d0027ac:	0b400869 	j	9d0021a4 <do_scan+0x3a4>
9d0027b0:	8fb600cc 	lw	s6,204(sp)
9d0027b4:	0f402ce0 	jal	9d00b380 <gsgetc>
9d0027b8:	27a40098 	addiu	a0,sp,152
9d0027bc:	2416ffff 	li	s6,-1
9d0027c0:	1056fff9 	beq	v0,s6,9d0027a8 <do_scan+0x9a8>
9d0027c4:	0040b821 	move	s7,v0
9d0027c8:	2403ffdf 	li	v1,-33
9d0027cc:	00431824 	and	v1,v0,v1
9d0027d0:	24020058 	li	v0,88
9d0027d4:	1062ffdb 	beq	v1,v0,9d002744 <do_scan+0x944>
9d0027d8:	2654ffff 	addiu	s4,s2,-1
9d0027dc:	02809021 	move	s2,s4
9d0027e0:	0b400869 	j	9d0021a4 <do_scan+0x3a4>
9d0027e4:	8fb600cc 	lw	s6,204(sp)
9d0027e8:	32230200 	andi	v1,s1,0x200
9d0027ec:	10600010 	beqz	v1,9d002830 <do_scan+0xa30>
9d0027f0:	32230100 	andi	v1,s1,0x100
9d0027f4:	8fa300a4 	lw	v1,164(sp)
9d0027f8:	24640004 	addiu	a0,v1,4
9d0027fc:	afa400a4 	sw	a0,164(sp)
9d002800:	8c630000 	lw	v1,0(v1)
9d002804:	ac620000 	sw	v0,0(v1)
9d002808:	0b4007b0 	j	9d001ec0 <do_scan+0xc0>
9d00280c:	8fa500a0 	lw	a1,160(sp)
9d002810:	10600010 	beqz	v1,9d002854 <do_scan+0xa54>
9d002814:	32310080 	andi	s1,s1,0x80
9d002818:	8fa300a4 	lw	v1,164(sp)
9d00281c:	24640004 	addiu	a0,v1,4
9d002820:	afa400a4 	sw	a0,164(sp)
9d002824:	8c630000 	lw	v1,0(v1)
9d002828:	0b400899 	j	9d002264 <do_scan+0x464>
9d00282c:	a4620000 	sh	v0,0(v1)
9d002830:	1060003d 	beqz	v1,9d002928 <do_scan+0xb28>
9d002834:	32310080 	andi	s1,s1,0x80
9d002838:	8fa300a4 	lw	v1,164(sp)
9d00283c:	24640004 	addiu	a0,v1,4
9d002840:	afa400a4 	sw	a0,164(sp)
9d002844:	8c630000 	lw	v1,0(v1)
9d002848:	a4620000 	sh	v0,0(v1)
9d00284c:	0b4007b0 	j	9d001ec0 <do_scan+0xc0>
9d002850:	8fa500a0 	lw	a1,160(sp)
9d002854:	8fa300a4 	lw	v1,164(sp)
9d002858:	24640004 	addiu	a0,v1,4
9d00285c:	afa400a4 	sw	a0,164(sp)
9d002860:	1220002f 	beqz	s1,9d002920 <do_scan+0xb20>
9d002864:	8c630000 	lw	v1,0(v1)
9d002868:	0b400899 	j	9d002264 <do_scan+0x464>
9d00286c:	a0620000 	sb	v0,0(v1)
9d002870:	0f402ce0 	jal	9d00b380 <gsgetc>
9d002874:	27a40098 	addiu	a0,sp,152
9d002878:	0040b021 	move	s6,v0
9d00287c:	2402ffff 	li	v0,-1
9d002880:	52c2fef4 	beql	s6,v0,9d002454 <do_scan+0x654>
9d002884:	3c049d01 	lui	a0,0x9d01
9d002888:	8fa200b8 	lw	v0,184(sp)
9d00288c:	2442ffff 	addiu	v0,v0,-1
9d002890:	afa200b8 	sw	v0,184(sp)
9d002894:	2402002b 	li	v0,43
9d002898:	56c20059 	bnel	s6,v0,9d002a00 <do_scan+0xc00>
9d00289c:	2402002d 	li	v0,45
9d0028a0:	27b200b4 	addiu	s2,sp,180
9d0028a4:	02407821 	move	t7,s2
9d0028a8:	0f4027a8 	jal	9d009ea0 <putget.2773>
9d0028ac:	02c02021 	move	a0,s6
9d0028b0:	0040b021 	move	s6,v0
9d0028b4:	24420001 	addiu	v0,v0,1
9d0028b8:	3c049d01 	lui	a0,0x9d01
9d0028bc:	2483a0b4 	addiu	v1,a0,-24396
9d0028c0:	00621021 	addu	v0,v1,v0
9d0028c4:	0b40091e 	j	9d002478 <do_scan+0x678>
9d0028c8:	24140001 	li	s4,1
9d0028cc:	0b400952 	j	9d002548 <do_scan+0x748>
9d0028d0:	241e0001 	li	s8,1
9d0028d4:	0f4027a8 	jal	9d009ea0 <putget.2773>
9d0028d8:	02c02021 	move	a0,s6
9d0028dc:	0040b021 	move	s6,v0
9d0028e0:	2402002d 	li	v0,45
9d0028e4:	12c20003 	beq	s6,v0,9d0028f4 <do_scan+0xaf4>
9d0028e8:	2402002b 	li	v0,43
9d0028ec:	16c20006 	bne	s6,v0,9d002908 <do_scan+0xb08>
9d0028f0:	02161021 	addu	v0,s0,s6
9d0028f4:	02407821 	move	t7,s2
9d0028f8:	0f4027a8 	jal	9d009ea0 <putget.2773>
9d0028fc:	02c02021 	move	a0,s6
9d002900:	0040b021 	move	s6,v0
9d002904:	02161021 	addu	v0,s0,s6
9d002908:	90420000 	lbu	v0,0(v0)
9d00290c:	30420004 	andi	v0,v0,0x4
9d002910:	1440fff9 	bnez	v0,9d0028f8 <do_scan+0xaf8>
9d002914:	02407821 	move	t7,s2
9d002918:	0b40092d 	j	9d0024b4 <do_scan+0x6b4>
9d00291c:	00000000 	nop
9d002920:	0b400899 	j	9d002264 <do_scan+0x464>
9d002924:	ac620000 	sw	v0,0(v1)
9d002928:	8fa300a4 	lw	v1,164(sp)
9d00292c:	24640004 	addiu	a0,v1,4
9d002930:	afa400a4 	sw	a0,164(sp)
9d002934:	1220001c 	beqz	s1,9d0029a8 <do_scan+0xba8>
9d002938:	8c630000 	lw	v1,0(v1)
9d00293c:	a0620000 	sb	v0,0(v1)
9d002940:	0b4007b0 	j	9d001ec0 <do_scan+0xc0>
9d002944:	8fa500a0 	lw	a1,160(sp)
9d002948:	0f402ce0 	jal	9d00b380 <gsgetc>
9d00294c:	27a40098 	addiu	a0,sp,152
9d002950:	10560023 	beq	v0,s6,9d0029e0 <do_scan+0xbe0>
9d002954:	0040b821 	move	s7,v0
9d002958:	2652fffe 	addiu	s2,s2,-2
9d00295c:	0b40097b 	j	9d0025ec <do_scan+0x7ec>
9d002960:	8fb600cc 	lw	s6,204(sp)
9d002964:	0b400a5c 	j	9d002970 <do_scan+0xb70>
9d002968:	2404002e 	li	a0,46
9d00296c:	02c02021 	move	a0,s6
9d002970:	0f4027a8 	jal	9d009ea0 <putget.2773>
9d002974:	00000000 	nop
9d002978:	0040b021 	move	s6,v0
9d00297c:	02021021 	addu	v0,s0,v0
9d002980:	90420000 	lbu	v0,0(v0)
9d002984:	30420004 	andi	v0,v0,0x4
9d002988:	1440fff8 	bnez	v0,9d00296c <do_scan+0xb6c>
9d00298c:	02407821 	move	t7,s2
9d002990:	0b400925 	j	9d002494 <do_scan+0x694>
9d002994:	8fa200c8 	lw	v0,200(sp)
9d002998:	0f402ea2 	jal	9d00ba88 <strtof>
9d00299c:	8c710000 	lw	s1,0(v1)
9d0029a0:	0b40094e 	j	9d002538 <do_scan+0x738>
9d0029a4:	ae220000 	sw	v0,0(s1)
9d0029a8:	ac620000 	sw	v0,0(v1)
9d0029ac:	0b4007b0 	j	9d001ec0 <do_scan+0xc0>
9d0029b0:	8fa500a0 	lw	a1,160(sp)
9d0029b4:	8c43000c 	lw	v1,12(v0)
9d0029b8:	8fa400bc 	lw	a0,188(sp)
9d0029bc:	24660004 	addiu	a2,v1,4
9d0029c0:	ac46000c 	sw	a2,12(v0)
9d0029c4:	0f402e9b 	jal	9d00ba6c <strtod>
9d0029c8:	8c710000 	lw	s1,0(v1)
9d0029cc:	0f402a62 	jal	9d00a988 <__extendsfdf2>
9d0029d0:	00402021 	move	a0,v0
9d0029d4:	ae220000 	sw	v0,0(s1)
9d0029d8:	0b40094e 	j	9d002538 <do_scan+0x738>
9d0029dc:	ae230004 	sw	v1,4(s1)
9d0029e0:	8fb600cc 	lw	s6,204(sp)
9d0029e4:	0b40097b 	j	9d0025ec <do_scan+0x7ec>
9d0029e8:	02809021 	move	s2,s4
9d0029ec:	2402002d 	li	v0,45
9d0029f0:	12e2fef4 	beq	s7,v0,9d0025c4 <do_scan+0x7c4>
9d0029f4:	8fa200cc 	lw	v0,204(sp)
9d0029f8:	0b4009e0 	j	9d002780 <do_scan+0x980>
9d0029fc:	8fb600cc 	lw	s6,204(sp)
9d002a00:	52c2ffa8 	beql	s6,v0,9d0028a4 <do_scan+0xaa4>
9d002a04:	27b200b4 	addiu	s2,sp,180
9d002a08:	26c20001 	addiu	v0,s6,1
9d002a0c:	3c049d01 	lui	a0,0x9d01
9d002a10:	2483a0b4 	addiu	v1,a0,-24396
9d002a14:	0b400917 	j	9d00245c <do_scan+0x65c>
9d002a18:	00621021 	addu	v0,v1,v0

Disassembly of section .text._do_print_cdfFnopuxX:

9d002a1c <_do_print_cdfFnopuxX>:
9d002a1c:	27bdff60 	addiu	sp,sp,-160
9d002a20:	afbf009c 	sw	ra,156(sp)
9d002a24:	afbe0098 	sw	s8,152(sp)
9d002a28:	afb70094 	sw	s7,148(sp)
9d002a2c:	afb60090 	sw	s6,144(sp)
9d002a30:	afb5008c 	sw	s5,140(sp)
9d002a34:	afb40088 	sw	s4,136(sp)
9d002a38:	afb30084 	sw	s3,132(sp)
9d002a3c:	afb20080 	sw	s2,128(sp)
9d002a40:	afb1007c 	sw	s1,124(sp)
9d002a44:	afb00078 	sw	s0,120(sp)
9d002a48:	afa400a0 	sw	a0,160(sp)
9d002a4c:	8c820018 	lw	v0,24(a0)
9d002a50:	00a09021 	move	s2,a1
9d002a54:	24050001 	li	a1,1
9d002a58:	8c420010 	lw	v0,16(v0)
9d002a5c:	0040f809 	jalr	v0
9d002a60:	afa600a8 	sw	a2,168(sp)
9d002a64:	104001a9 	beqz	v0,9d00310c <_do_print_cdfFnopuxX+0x6f0>
9d002a68:	27a20058 	addiu	v0,sp,88
9d002a6c:	afa00068 	sw	zero,104(sp)
9d002a70:	afa20060 	sw	v0,96(sp)
9d002a74:	82440000 	lb	a0,0(s2)
9d002a78:	1080000d 	beqz	a0,9d002ab0 <_do_print_cdfFnopuxX+0x94>
9d002a7c:	26500001 	addiu	s0,s2,1
9d002a80:	24020025 	li	v0,37
9d002a84:	5082001c 	beql	a0,v0,9d002af8 <_do_print_cdfFnopuxX+0xdc>
9d002a88:	82420001 	lb	v0,1(s2)
9d002a8c:	0f402a37 	jal	9d00a8dc <.LFE3>
9d002a90:	8fa500a0 	lw	a1,160(sp)
9d002a94:	8fa30068 	lw	v1,104(sp)
9d002a98:	24630001 	addiu	v1,v1,1
9d002a9c:	afa30068 	sw	v1,104(sp)
9d002aa0:	02009021 	move	s2,s0
9d002aa4:	82440000 	lb	a0,0(s2)
9d002aa8:	1480fff5 	bnez	a0,9d002a80 <_do_print_cdfFnopuxX+0x64>
9d002aac:	26500001 	addiu	s0,s2,1
9d002ab0:	8fa400a0 	lw	a0,160(sp)
9d002ab4:	94820010 	lhu	v0,16(a0)
9d002ab8:	30420040 	andi	v0,v0,0x40
9d002abc:	14400194 	bnez	v0,9d003110 <_do_print_cdfFnopuxX+0x6f4>
9d002ac0:	2402ffff 	li	v0,-1
9d002ac4:	8fa20068 	lw	v0,104(sp)
9d002ac8:	8fbf009c 	lw	ra,156(sp)
9d002acc:	8fbe0098 	lw	s8,152(sp)
9d002ad0:	8fb70094 	lw	s7,148(sp)
9d002ad4:	8fb60090 	lw	s6,144(sp)
9d002ad8:	8fb5008c 	lw	s5,140(sp)
9d002adc:	8fb40088 	lw	s4,136(sp)
9d002ae0:	8fb30084 	lw	s3,132(sp)
9d002ae4:	8fb20080 	lw	s2,128(sp)
9d002ae8:	8fb1007c 	lw	s1,124(sp)
9d002aec:	8fb00078 	lw	s0,120(sp)
9d002af0:	03e00008 	jr	ra
9d002af4:	27bd00a0 	addiu	sp,sp,160
9d002af8:	10440174 	beq	v0,a0,9d0030cc <_do_print_cdfFnopuxX+0x6b0>
9d002afc:	0000b821 	move	s7,zero
9d002b00:	2403002d 	li	v1,45
9d002b04:	2404002b 	li	a0,43
9d002b08:	24050020 	li	a1,32
9d002b0c:	24060023 	li	a2,35
9d002b10:	1043000e 	beq	v0,v1,9d002b4c <_do_print_cdfFnopuxX+0x130>
9d002b14:	24070030 	li	a3,48
9d002b18:	50440010 	beql	v0,a0,9d002b5c <_do_print_cdfFnopuxX+0x140>
9d002b1c:	36f70002 	ori	s7,s7,0x2
9d002b20:	50450011 	beql	v0,a1,9d002b68 <_do_print_cdfFnopuxX+0x14c>
9d002b24:	36f70001 	ori	s7,s7,0x1
9d002b28:	50460012 	beql	v0,a2,9d002b74 <_do_print_cdfFnopuxX+0x158>
9d002b2c:	36f70800 	ori	s7,s7,0x800
9d002b30:	54470013 	bnel	v0,a3,9d002b80 <_do_print_cdfFnopuxX+0x164>
9d002b34:	2403002a 	li	v1,42
9d002b38:	36f70004 	ori	s7,s7,0x4
9d002b3c:	26100001 	addiu	s0,s0,1
9d002b40:	82020000 	lb	v0,0(s0)
9d002b44:	1443fff4 	bne	v0,v1,9d002b18 <_do_print_cdfFnopuxX+0xfc>
9d002b48:	00000000 	nop
9d002b4c:	36f70008 	ori	s7,s7,0x8
9d002b50:	26100001 	addiu	s0,s0,1
9d002b54:	0b400ad1 	j	9d002b44 <_do_print_cdfFnopuxX+0x128>
9d002b58:	82020000 	lb	v0,0(s0)
9d002b5c:	26100001 	addiu	s0,s0,1
9d002b60:	0b400ad1 	j	9d002b44 <_do_print_cdfFnopuxX+0x128>
9d002b64:	82020000 	lb	v0,0(s0)
9d002b68:	26100001 	addiu	s0,s0,1
9d002b6c:	0b400ad1 	j	9d002b44 <_do_print_cdfFnopuxX+0x128>
9d002b70:	82020000 	lb	v0,0(s0)
9d002b74:	26100001 	addiu	s0,s0,1
9d002b78:	0b400ad1 	j	9d002b44 <_do_print_cdfFnopuxX+0x128>
9d002b7c:	82020000 	lb	v0,0(s0)
9d002b80:	10430128 	beq	v0,v1,9d003024 <_do_print_cdfFnopuxX+0x608>
9d002b84:	02002021 	move	a0,s0
9d002b88:	2443ffd0 	addiu	v1,v0,-48
9d002b8c:	2c63000a 	sltiu	v1,v1,10
9d002b90:	1060000b 	beqz	v1,9d002bc0 <_do_print_cdfFnopuxX+0x1a4>
9d002b94:	0000b021 	move	s6,zero
9d002b98:	00161840 	sll	v1,s6,0x1
9d002b9c:	001650c0 	sll	t2,s6,0x3
9d002ba0:	006a5021 	addu	t2,v1,t2
9d002ba4:	26100001 	addiu	s0,s0,1
9d002ba8:	01425021 	addu	t2,t2,v0
9d002bac:	82020000 	lb	v0,0(s0)
9d002bb0:	2443ffd0 	addiu	v1,v0,-48
9d002bb4:	2c63000a 	sltiu	v1,v1,10
9d002bb8:	1460fff7 	bnez	v1,9d002b98 <_do_print_cdfFnopuxX+0x17c>
9d002bbc:	2556ffd0 	addiu	s6,t2,-48
9d002bc0:	2403002e 	li	v1,46
9d002bc4:	104300f0 	beq	v0,v1,9d002f88 <_do_print_cdfFnopuxX+0x56c>
9d002bc8:	241effff 	li	s8,-1
9d002bcc:	24030068 	li	v1,104
9d002bd0:	50430103 	beql	v0,v1,9d002fe0 <_do_print_cdfFnopuxX+0x5c4>
9d002bd4:	82030001 	lb	v1,1(s0)
9d002bd8:	2403006c 	li	v1,108
9d002bdc:	1043011b 	beq	v0,v1,9d00304c <_do_print_cdfFnopuxX+0x630>
9d002be0:	24030071 	li	v1,113
9d002be4:	10430145 	beq	v0,v1,9d0030fc <_do_print_cdfFnopuxX+0x6e0>
9d002be8:	2403004c 	li	v1,76
9d002bec:	504301d4 	beql	v0,v1,9d003340 <_do_print_cdfFnopuxX+0x924>
9d002bf0:	82020001 	lb	v0,1(s0)
9d002bf4:	32e40002 	andi	a0,s7,0x2
9d002bf8:	32e3fffe 	andi	v1,s7,0xfffe
9d002bfc:	0064b80b 	movn	s7,v1,a0
9d002c00:	2442ffbc 	addiu	v0,v0,-68
9d002c04:	32e50008 	andi	a1,s7,0x8
9d002c08:	32e4fffb 	andi	a0,s7,0xfffb
9d002c0c:	2c430035 	sltiu	v1,v0,53
9d002c10:	26120001 	addiu	s2,s0,1
9d002c14:	10600101 	beqz	v1,9d00301c <_do_print_cdfFnopuxX+0x600>
9d002c18:	0085b80b 	movn	s7,a0,a1
9d002c1c:	00021080 	sll	v0,v0,0x2
9d002c20:	3c049d00 	lui	a0,0x9d00
9d002c24:	24842c38 	addiu	a0,a0,11320
9d002c28:	00821021 	addu	v0,a0,v0
9d002c2c:	8c420000 	lw	v0,0(v0)
9d002c30:	00400008 	jr	v0
9d002c34:	00000000 	nop
9d002c38:	9d002ea0 	0x9d002ea0
9d002c3c:	9d00301c 	0x9d00301c
9d002c40:	9d00301c 	0x9d00301c
9d002c44:	9d00301c 	0x9d00301c
9d002c48:	9d00301c 	0x9d00301c
9d002c4c:	9d00301c 	0x9d00301c
9d002c50:	9d00301c 	0x9d00301c
9d002c54:	9d00301c 	0x9d00301c
9d002c58:	9d00301c 	0x9d00301c
9d002c5c:	9d00301c 	0x9d00301c
9d002c60:	9d00301c 	0x9d00301c
9d002c64:	9d003280 	0x9d003280
9d002c68:	9d002f10 	0x9d002f10
9d002c6c:	9d00301c 	0x9d00301c
9d002c70:	9d00301c 	0x9d00301c
9d002c74:	9d00301c 	0x9d00301c
9d002c78:	9d00301c 	0x9d00301c
9d002c7c:	9d002f00 	0x9d002f00
9d002c80:	9d00301c 	0x9d00301c
9d002c84:	9d00301c 	0x9d00301c
9d002c88:	9d002d0c 	0x9d002d0c
9d002c8c:	9d00301c 	0x9d00301c
9d002c90:	9d00301c 	0x9d00301c
9d002c94:	9d00301c 	0x9d00301c
9d002c98:	9d00301c 	0x9d00301c
9d002c9c:	9d00301c 	0x9d00301c
9d002ca0:	9d00301c 	0x9d00301c
9d002ca4:	9d00301c 	0x9d00301c
9d002ca8:	9d00301c 	0x9d00301c
9d002cac:	9d00301c 	0x9d00301c
9d002cb0:	9d00301c 	0x9d00301c
9d002cb4:	9d00324c 	0x9d00324c
9d002cb8:	9d002ea4 	0x9d002ea4
9d002cbc:	9d00301c 	0x9d00301c
9d002cc0:	9d003214 	0x9d003214
9d002cc4:	9d00301c 	0x9d00301c
9d002cc8:	9d00301c 	0x9d00301c
9d002ccc:	9d002ea4 	0x9d002ea4
9d002cd0:	9d00301c 	0x9d00301c
9d002cd4:	9d00301c 	0x9d00301c
9d002cd8:	9d00301c 	0x9d00301c
9d002cdc:	9d00301c 	0x9d00301c
9d002ce0:	9d0031cc 	0x9d0031cc
9d002ce4:	9d0031c4 	0x9d0031c4
9d002ce8:	9d002f14 	0x9d002f14
9d002cec:	9d00301c 	0x9d00301c
9d002cf0:	9d00301c 	0x9d00301c
9d002cf4:	9d00328c 	0x9d00328c
9d002cf8:	9d00301c 	0x9d00301c
9d002cfc:	9d002f04 	0x9d002f04
9d002d00:	9d00301c 	0x9d00301c
9d002d04:	9d00301c 	0x9d00301c
9d002d08:	9d002d10 	0x9d002d10
9d002d0c:	36f70020 	ori	s7,s7,0x20
9d002d10:	24100010 	li	s0,16
9d002d14:	2402ffff 	li	v0,-1
9d002d18:	13c20068 	beq	s8,v0,9d002ebc <_do_print_cdfFnopuxX+0x4a0>
9d002d1c:	00002821 	move	a1,zero
9d002d20:	32f7fffb 	andi	s7,s7,0xfffb
9d002d24:	27c5ffff 	addiu	a1,s8,-1
9d002d28:	32e200c0 	andi	v0,s7,0xc0
9d002d2c:	10400067 	beqz	v0,9d002ecc <_do_print_cdfFnopuxX+0x4b0>
9d002d30:	afa2006c 	sw	v0,108(sp)
9d002d34:	7c171620 	seh	v0,s7
9d002d38:	04400193 	bltz	v0,9d003388 <_do_print_cdfFnopuxX+0x96c>
9d002d3c:	32e20010 	andi	v0,s7,0x10
9d002d40:	104000ff 	beqz	v0,9d003140 <_do_print_cdfFnopuxX+0x724>
9d002d44:	32e20041 	andi	v0,s7,0x41
9d002d48:	8fa400a8 	lw	a0,168(sp)
9d002d4c:	8c950000 	lw	s5,0(a0)
9d002d50:	24840004 	addiu	a0,a0,4
9d002d54:	afa400a8 	sw	a0,168(sp)
9d002d58:	0015a7c3 	sra	s4,s5,0x1f
9d002d5c:	02801021 	move	v0,s4
9d002d60:	0440010c 	bltz	v0,9d003194 <_do_print_cdfFnopuxX+0x778>
9d002d64:	02a01821 	move	v1,s5
9d002d68:	afa00074 	sw	zero,116(sp)
9d002d6c:	128000be 	beqz	s4,9d003068 <_do_print_cdfFnopuxX+0x64c>
9d002d70:	02b41025 	or	v0,s5,s4
9d002d74:	104001a7 	beqz	v0,9d003414 <_do_print_cdfFnopuxX+0x9f8>
9d002d78:	27a20057 	addiu	v0,sp,87
9d002d7c:	afa20070 	sw	v0,112(sp)
9d002d80:	32e30020 	andi	v1,s7,0x20
9d002d84:	24040037 	li	a0,55
9d002d88:	00108fc3 	sra	s1,s0,0x1f
9d002d8c:	00409821 	move	s3,v0
9d002d90:	24020057 	li	v0,87
9d002d94:	0043200a 	movz	a0,v0,v1
9d002d98:	afa40064 	sw	a0,100(sp)
9d002d9c:	02a02021 	move	a0,s5
9d002da0:	02802821 	move	a1,s4
9d002da4:	02003021 	move	a2,s0
9d002da8:	0f401752 	jal	9d005d48 <__umoddi3>
9d002dac:	02203821 	move	a3,s1
9d002db0:	2843000a 	slti	v1,v0,10
9d002db4:	24460030 	addiu	a2,v0,48
9d002db8:	8fa40064 	lw	a0,100(sp)
9d002dbc:	00441021 	addu	v0,v0,a0
9d002dc0:	0043300a 	movz	a2,v0,v1
9d002dc4:	2673ffff 	addiu	s3,s3,-1
9d002dc8:	02a02021 	move	a0,s5
9d002dcc:	02802821 	move	a1,s4
9d002dd0:	a2660001 	sb	a2,1(s3)
9d002dd4:	02003021 	move	a2,s0
9d002dd8:	0f40186b 	jal	9d0061ac <__udivdi3>
9d002ddc:	02203821 	move	a3,s1
9d002de0:	00622025 	or	a0,v1,v0
9d002de4:	0040a821 	move	s5,v0
9d002de8:	0060a021 	move	s4,v1
9d002dec:	1480ffeb 	bnez	a0,9d002d9c <_do_print_cdfFnopuxX+0x380>
9d002df0:	27deffff 	addiu	s8,s8,-1
9d002df4:	27c5ffff 	addiu	a1,s8,-1
9d002df8:	04a0000a 	bltz	a1,9d002e24 <_do_print_cdfFnopuxX+0x408>
9d002dfc:	02601021 	move	v0,s3
9d002e00:	2664ffff 	addiu	a0,s3,-1
9d002e04:	00852023 	subu	a0,a0,a1
9d002e08:	24030030 	li	v1,48
9d002e0c:	a0430000 	sb	v1,0(v0)
9d002e10:	2442ffff 	addiu	v0,v0,-1
9d002e14:	5444fffe 	bnel	v0,a0,9d002e10 <_do_print_cdfFnopuxX+0x3f4>
9d002e18:	a0430000 	sb	v1,0(v0)
9d002e1c:	00052827 	nor	a1,zero,a1
9d002e20:	02659821 	addu	s3,s3,a1
9d002e24:	32e20004 	andi	v0,s7,0x4
9d002e28:	1440003d 	bnez	v0,9d002f20 <_do_print_cdfFnopuxX+0x504>
9d002e2c:	32e40800 	andi	a0,s7,0x800
9d002e30:	3084ffff 	andi	a0,a0,0xffff
9d002e34:	50800007 	beqzl	a0,9d002e54 <_do_print_cdfFnopuxX+0x438>
9d002e38:	8fa3006c 	lw	v1,108(sp)
9d002e3c:	24020008 	li	v0,8
9d002e40:	12020141 	beq	s0,v0,9d003348 <_do_print_cdfFnopuxX+0x92c>
9d002e44:	24020010 	li	v0,16
9d002e48:	1202016a 	beq	s0,v0,9d0033f4 <_do_print_cdfFnopuxX+0x9d8>
9d002e4c:	32e40020 	andi	a0,s7,0x20
9d002e50:	8fa3006c 	lw	v1,108(sp)
9d002e54:	10600007 	beqz	v1,9d002e74 <_do_print_cdfFnopuxX+0x458>
9d002e58:	8fa40074 	lw	a0,116(sp)
9d002e5c:	148000a3 	bnez	a0,9d0030ec <_do_print_cdfFnopuxX+0x6d0>
9d002e60:	32e20002 	andi	v0,s7,0x2
9d002e64:	10400003 	beqz	v0,9d002e74 <_do_print_cdfFnopuxX+0x458>
9d002e68:	2402002b 	li	v0,43
9d002e6c:	a2620000 	sb	v0,0(s3)
9d002e70:	2673ffff 	addiu	s3,s3,-1
9d002e74:	26650001 	addiu	a1,s3,1
9d002e78:	afb70010 	sw	s7,16(sp)
9d002e7c:	8fa400a0 	lw	a0,160(sp)
9d002e80:	8fa20060 	lw	v0,96(sp)
9d002e84:	00453023 	subu	a2,v0,a1
9d002e88:	0f40270c 	jal	9d009c30 <.LFE6>
9d002e8c:	02c03821 	move	a3,s6
9d002e90:	8fa30068 	lw	v1,104(sp)
9d002e94:	00621821 	addu	v1,v1,v0
9d002e98:	0b400a9d 	j	9d002a74 <_do_print_cdfFnopuxX+0x58>
9d002e9c:	afa30068 	sw	v1,104(sp)
9d002ea0:	36f70010 	ori	s7,s7,0x10
9d002ea4:	32e8f7ff 	andi	t0,s7,0xf7ff
9d002ea8:	351700c0 	ori	s7,t0,0xc0
9d002eac:	2402ffff 	li	v0,-1
9d002eb0:	17c2ff9b 	bne	s8,v0,9d002d20 <_do_print_cdfFnopuxX+0x304>
9d002eb4:	2410000a 	li	s0,10
9d002eb8:	00002821 	move	a1,zero
9d002ebc:	241e0001 	li	s8,1
9d002ec0:	32e200c0 	andi	v0,s7,0xc0
9d002ec4:	1440ff9b 	bnez	v0,9d002d34 <_do_print_cdfFnopuxX+0x318>
9d002ec8:	afa2006c 	sw	v0,108(sp)
9d002ecc:	7c171620 	seh	v0,s7
9d002ed0:	04400124 	bltz	v0,9d003364 <_do_print_cdfFnopuxX+0x948>
9d002ed4:	8fa400a8 	lw	a0,168(sp)
9d002ed8:	32e20010 	andi	v0,s7,0x10
9d002edc:	504000a4 	beqzl	v0,9d003170 <_do_print_cdfFnopuxX+0x754>
9d002ee0:	32e20041 	andi	v0,s7,0x41
9d002ee4:	8fa400a8 	lw	a0,168(sp)
9d002ee8:	8c950000 	lw	s5,0(a0)
9d002eec:	0000a021 	move	s4,zero
9d002ef0:	24840004 	addiu	a0,a0,4
9d002ef4:	afa400a8 	sw	a0,168(sp)
9d002ef8:	0b400b5b 	j	9d002d6c <_do_print_cdfFnopuxX+0x350>
9d002efc:	afa00074 	sw	zero,116(sp)
9d002f00:	36f70010 	ori	s7,s7,0x10
9d002f04:	32f7f7ff 	andi	s7,s7,0xf7ff
9d002f08:	0b400b45 	j	9d002d14 <_do_print_cdfFnopuxX+0x2f8>
9d002f0c:	2410000a 	li	s0,10
9d002f10:	36f70020 	ori	s7,s7,0x20
9d002f14:	36f70810 	ori	s7,s7,0x810
9d002f18:	0b400b45 	j	9d002d14 <_do_print_cdfFnopuxX+0x2f8>
9d002f1c:	24100010 	li	s0,16
9d002f20:	8fa20070 	lw	v0,112(sp)
9d002f24:	02621823 	subu	v1,s3,v0
9d002f28:	3084ffff 	andi	a0,a0,0xffff
9d002f2c:	10800006 	beqz	a0,9d002f48 <_do_print_cdfFnopuxX+0x52c>
9d002f30:	02c31821 	addu	v1,s6,v1
9d002f34:	24020008 	li	v0,8
9d002f38:	1202013e 	beq	s0,v0,9d003434 <_do_print_cdfFnopuxX+0xa18>
9d002f3c:	2462fffe 	addiu	v0,v1,-2
9d002f40:	3a050010 	xori	a1,s0,0x10
9d002f44:	0045180a 	movz	v1,v0,a1
9d002f48:	8fa2006c 	lw	v0,108(sp)
9d002f4c:	10400004 	beqz	v0,9d002f60 <_do_print_cdfFnopuxX+0x544>
9d002f50:	8fa20074 	lw	v0,116(sp)
9d002f54:	10400097 	beqz	v0,9d0031b4 <_do_print_cdfFnopuxX+0x798>
9d002f58:	32e20003 	andi	v0,s7,0x3
9d002f5c:	2463ffff 	addiu	v1,v1,-1
9d002f60:	1860ffb4 	blez	v1,9d002e34 <_do_print_cdfFnopuxX+0x418>
9d002f64:	02601021 	move	v0,s3
9d002f68:	02634823 	subu	t1,s3,v1
9d002f6c:	24030030 	li	v1,48
9d002f70:	a0430000 	sb	v1,0(v0)
9d002f74:	2442ffff 	addiu	v0,v0,-1
9d002f78:	5522fffe 	bnel	t1,v0,9d002f74 <_do_print_cdfFnopuxX+0x558>
9d002f7c:	a0430000 	sb	v1,0(v0)
9d002f80:	0b400b8d 	j	9d002e34 <_do_print_cdfFnopuxX+0x418>
9d002f84:	01209821 	move	s3,t1
9d002f88:	82020001 	lb	v0,1(s0)
9d002f8c:	2403002a 	li	v1,42
9d002f90:	1043010e 	beq	v0,v1,9d0033cc <_do_print_cdfFnopuxX+0x9b0>
9d002f94:	2443ffd0 	addiu	v1,v0,-48
9d002f98:	2c63000a 	sltiu	v1,v1,10
9d002f9c:	26100001 	addiu	s0,s0,1
9d002fa0:	1060ff0a 	beqz	v1,9d002bcc <_do_print_cdfFnopuxX+0x1b0>
9d002fa4:	0000f021 	move	s8,zero
9d002fa8:	001e1840 	sll	v1,s8,0x1
9d002fac:	001e58c0 	sll	t3,s8,0x3
9d002fb0:	006b5821 	addu	t3,v1,t3
9d002fb4:	26100001 	addiu	s0,s0,1
9d002fb8:	01625821 	addu	t3,t3,v0
9d002fbc:	82020000 	lb	v0,0(s0)
9d002fc0:	2443ffd0 	addiu	v1,v0,-48
9d002fc4:	2c63000a 	sltiu	v1,v1,10
9d002fc8:	1460fff7 	bnez	v1,9d002fa8 <_do_print_cdfFnopuxX+0x58c>
9d002fcc:	257effd0 	addiu	s8,t3,-48
9d002fd0:	24030068 	li	v1,104
9d002fd4:	1443ff01 	bne	v0,v1,9d002bdc <_do_print_cdfFnopuxX+0x1c0>
9d002fd8:	2403006c 	li	v1,108
9d002fdc:	82030001 	lb	v1,1(s0)
9d002fe0:	506200f6 	beql	v1,v0,9d0033bc <_do_print_cdfFnopuxX+0x9a0>
9d002fe4:	82020002 	lb	v0,2(s0)
9d002fe8:	36f70040 	ori	s7,s7,0x40
9d002fec:	00601021 	move	v0,v1
9d002ff0:	26100001 	addiu	s0,s0,1
9d002ff4:	32e40002 	andi	a0,s7,0x2
9d002ff8:	32e3fffe 	andi	v1,s7,0xfffe
9d002ffc:	0064b80b 	movn	s7,v1,a0
9d003000:	2442ffbc 	addiu	v0,v0,-68
9d003004:	32e50008 	andi	a1,s7,0x8
9d003008:	32e4fffb 	andi	a0,s7,0xfffb
9d00300c:	2c430035 	sltiu	v1,v0,53
9d003010:	26120001 	addiu	s2,s0,1
9d003014:	1460ff01 	bnez	v1,9d002c1c <_do_print_cdfFnopuxX+0x200>
9d003018:	0085b80b 	movn	s7,a0,a1
9d00301c:	0b400ba4 	j	9d002e90 <_do_print_cdfFnopuxX+0x474>
9d003020:	00001021 	move	v0,zero
9d003024:	8fa200a8 	lw	v0,168(sp)
9d003028:	8c560000 	lw	s6,0(v0)
9d00302c:	24550004 	addiu	s5,v0,4
9d003030:	26100001 	addiu	s0,s0,1
9d003034:	06c10003 	bgez	s6,9d003044 <_do_print_cdfFnopuxX+0x628>
9d003038:	80820001 	lb	v0,1(a0)
9d00303c:	36f70008 	ori	s7,s7,0x8
9d003040:	0016b023 	negu	s6,s6
9d003044:	0b400af0 	j	9d002bc0 <_do_print_cdfFnopuxX+0x1a4>
9d003048:	afb500a8 	sw	s5,168(sp)
9d00304c:	82030001 	lb	v1,1(s0)
9d003050:	506200f4 	beql	v1,v0,9d003424 <_do_print_cdfFnopuxX+0xa08>
9d003054:	82020002 	lb	v0,2(s0)
9d003058:	36f70010 	ori	s7,s7,0x10
9d00305c:	00601021 	move	v0,v1
9d003060:	0b400bfd 	j	9d002ff4 <_do_print_cdfFnopuxX+0x5d8>
9d003064:	26100001 	addiu	s0,s0,1
9d003068:	12a000ea 	beqz	s5,9d003414 <_do_print_cdfFnopuxX+0x9f8>
9d00306c:	02a06821 	move	t5,s5
9d003070:	27a30057 	addiu	v1,sp,87
9d003074:	afa30070 	sw	v1,112(sp)
9d003078:	32e30020 	andi	v1,s7,0x20
9d00307c:	24050037 	li	a1,55
9d003080:	8fb30070 	lw	s3,112(sp)
9d003084:	24020057 	li	v0,87
9d003088:	0043280a 	movz	a1,v0,v1
9d00308c:	01b0001b 	divu	zero,t5,s0
9d003090:	020001f4 	teq	s0,zero,0x7
9d003094:	00001810 	mfhi	v1
9d003098:	2673ffff 	addiu	s3,s3,-1
9d00309c:	27deffff 	addiu	s8,s8,-1
9d0030a0:	01b0001b 	divu	zero,t5,s0
9d0030a4:	020001f4 	teq	s0,zero,0x7
9d0030a8:	00006812 	mflo	t5
9d0030ac:	2864000a 	slti	a0,v1,10
9d0030b0:	24620030 	addiu	v0,v1,48
9d0030b4:	00651821 	addu	v1,v1,a1
9d0030b8:	0064100a 	movz	v0,v1,a0
9d0030bc:	15a0fff3 	bnez	t5,9d00308c <_do_print_cdfFnopuxX+0x670>
9d0030c0:	a2620001 	sb	v0,1(s3)
9d0030c4:	0b400b7e 	j	9d002df8 <_do_print_cdfFnopuxX+0x3dc>
9d0030c8:	27c5ffff 	addiu	a1,s8,-1
9d0030cc:	24040025 	li	a0,37
9d0030d0:	0f402a37 	jal	9d00a8dc <.LFE3>
9d0030d4:	8fa500a0 	lw	a1,160(sp)
9d0030d8:	26520002 	addiu	s2,s2,2
9d0030dc:	8fa40068 	lw	a0,104(sp)
9d0030e0:	24840001 	addiu	a0,a0,1
9d0030e4:	0b400a9d 	j	9d002a74 <_do_print_cdfFnopuxX+0x58>
9d0030e8:	afa40068 	sw	a0,104(sp)
9d0030ec:	2402002d 	li	v0,45
9d0030f0:	a2620000 	sb	v0,0(s3)
9d0030f4:	0b400b9d 	j	9d002e74 <_do_print_cdfFnopuxX+0x458>
9d0030f8:	2673ffff 	addiu	s3,s3,-1
9d0030fc:	82020001 	lb	v0,1(s0)
9d003100:	36f78000 	ori	s7,s7,0x8000
9d003104:	0b400afd 	j	9d002bf4 <_do_print_cdfFnopuxX+0x1d8>
9d003108:	26100001 	addiu	s0,s0,1
9d00310c:	2402ffff 	li	v0,-1
9d003110:	8fbf009c 	lw	ra,156(sp)
9d003114:	8fbe0098 	lw	s8,152(sp)
9d003118:	8fb70094 	lw	s7,148(sp)
9d00311c:	8fb60090 	lw	s6,144(sp)
9d003120:	8fb5008c 	lw	s5,140(sp)
9d003124:	8fb40088 	lw	s4,136(sp)
9d003128:	8fb30084 	lw	s3,132(sp)
9d00312c:	8fb20080 	lw	s2,128(sp)
9d003130:	8fb1007c 	lw	s1,124(sp)
9d003134:	8fb00078 	lw	s0,120(sp)
9d003138:	03e00008 	jr	ra
9d00313c:	27bd00a0 	addiu	sp,sp,160
9d003140:	50400076 	beqzl	v0,9d00331c <_do_print_cdfFnopuxX+0x900>
9d003144:	8fa300a8 	lw	v1,168(sp)
9d003148:	8fa200a8 	lw	v0,168(sp)
9d00314c:	8c550000 	lw	s5,0(v0)
9d003150:	24420004 	addiu	v0,v0,4
9d003154:	afa200a8 	sw	v0,168(sp)
9d003158:	0015a7c3 	sra	s4,s5,0x1f
9d00315c:	02801021 	move	v0,s4
9d003160:	0441ff01 	bgez	v0,9d002d68 <_do_print_cdfFnopuxX+0x34c>
9d003164:	02a01821 	move	v1,s5
9d003168:	0b400c66 	j	9d003198 <_do_print_cdfFnopuxX+0x77c>
9d00316c:	00036823 	negu	t5,v1
9d003170:	50400064 	beqzl	v0,9d003304 <_do_print_cdfFnopuxX+0x8e8>
9d003174:	8fa300a8 	lw	v1,168(sp)
9d003178:	8fa200a8 	lw	v0,168(sp)
9d00317c:	8c550000 	lw	s5,0(v0)
9d003180:	0000a021 	move	s4,zero
9d003184:	24420004 	addiu	v0,v0,4
9d003188:	afa200a8 	sw	v0,168(sp)
9d00318c:	0b400b5b 	j	9d002d6c <_do_print_cdfFnopuxX+0x350>
9d003190:	afa00074 	sw	zero,116(sp)
9d003194:	00036823 	negu	t5,v1
9d003198:	000d182b 	sltu	v1,zero,t5
9d00319c:	00021023 	negu	v0,v0
9d0031a0:	01a0a821 	move	s5,t5
9d0031a4:	0043a023 	subu	s4,v0,v1
9d0031a8:	24040001 	li	a0,1
9d0031ac:	0b400b5b 	j	9d002d6c <_do_print_cdfFnopuxX+0x350>
9d0031b0:	afa40074 	sw	a0,116(sp)
9d0031b4:	5440ff6a 	bnezl	v0,9d002f60 <_do_print_cdfFnopuxX+0x544>
9d0031b8:	2463ffff 	addiu	v1,v1,-1
9d0031bc:	0b400bd8 	j	9d002f60 <_do_print_cdfFnopuxX+0x544>
9d0031c0:	00000000 	nop
9d0031c4:	0b400b45 	j	9d002d14 <_do_print_cdfFnopuxX+0x2f8>
9d0031c8:	24100008 	li	s0,8
9d0031cc:	7c171620 	seh	v0,s7
9d0031d0:	044000a9 	bltz	v0,9d003478 <_do_print_cdfFnopuxX+0xa5c>
9d0031d4:	8fa300a8 	lw	v1,168(sp)
9d0031d8:	32e20010 	andi	v0,s7,0x10
9d0031dc:	1440009a 	bnez	v0,9d003448 <_do_print_cdfFnopuxX+0xa2c>
9d0031e0:	8fa200a8 	lw	v0,168(sp)
9d0031e4:	32e20040 	andi	v0,s7,0x40
9d0031e8:	104000ae 	beqz	v0,9d0034a4 <_do_print_cdfFnopuxX+0xa88>
9d0031ec:	32e80001 	andi	t0,s7,0x1
9d0031f0:	8fa200a8 	lw	v0,168(sp)
9d0031f4:	8c430000 	lw	v1,0(v0)
9d0031f8:	00001021 	move	v0,zero
9d0031fc:	8fa400a8 	lw	a0,168(sp)
9d003200:	24840004 	addiu	a0,a0,4
9d003204:	afa400a8 	sw	a0,168(sp)
9d003208:	8fa40068 	lw	a0,104(sp)
9d00320c:	0b400ba4 	j	9d002e90 <_do_print_cdfFnopuxX+0x474>
9d003210:	a4640000 	sh	a0,0(v1)
9d003214:	8fa300a8 	lw	v1,168(sp)
9d003218:	8c620000 	lw	v0,0(v1)
9d00321c:	36e80400 	ori	t0,s7,0x400
9d003220:	24750004 	addiu	s5,v1,4
9d003224:	afa20058 	sw	v0,88(sp)
9d003228:	8fa50058 	lw	a1,88(sp)
9d00322c:	afbe0010 	sw	s8,16(sp)
9d003230:	afa80014 	sw	t0,20(sp)
9d003234:	8fa400a0 	lw	a0,160(sp)
9d003238:	24060066 	li	a2,102
9d00323c:	0f4013a3 	jal	9d004e8c <_fconvert>
9d003240:	02c03821 	move	a3,s6
9d003244:	0b400ba4 	j	9d002e90 <_do_print_cdfFnopuxX+0x474>
9d003248:	afb500a8 	sw	s5,168(sp)
9d00324c:	8fa400a8 	lw	a0,168(sp)
9d003250:	8c820000 	lw	v0,0(a0)
9d003254:	24950004 	addiu	s5,a0,4
9d003258:	afb70010 	sw	s7,16(sp)
9d00325c:	8fa400a0 	lw	a0,160(sp)
9d003260:	27a50018 	addiu	a1,sp,24
9d003264:	24060001 	li	a2,1
9d003268:	02c03821 	move	a3,s6
9d00326c:	a3a20018 	sb	v0,24(sp)
9d003270:	0f40270c 	jal	9d009c30 <.LFE6>
9d003274:	afb500a8 	sw	s5,168(sp)
9d003278:	0b400ba5 	j	9d002e94 <_do_print_cdfFnopuxX+0x478>
9d00327c:	8fa30068 	lw	v1,104(sp)
9d003280:	36f70010 	ori	s7,s7,0x10
9d003284:	0b400b45 	j	9d002d14 <_do_print_cdfFnopuxX+0x2f8>
9d003288:	24100008 	li	s0,8
9d00328c:	8fa200a8 	lw	v0,168(sp)
9d003290:	8c500000 	lw	s0,0(v0)
9d003294:	3c039d01 	lui	v1,0x9d01
9d003298:	2462b4fc 	addiu	v0,v1,-19204
9d00329c:	8fa400a8 	lw	a0,168(sp)
9d0032a0:	0050800a 	movz	s0,v0,s0
9d0032a4:	2402ffff 	li	v0,-1
9d0032a8:	13c2006f 	beq	s8,v0,9d003468 <_do_print_cdfFnopuxX+0xa4c>
9d0032ac:	24950004 	addiu	s5,a0,4
9d0032b0:	1bc00086 	blez	s8,9d0034cc <_do_print_cdfFnopuxX+0xab0>
9d0032b4:	021e5821 	addu	t3,s0,s8
9d0032b8:	82030000 	lb	v1,0(s0)
9d0032bc:	14600005 	bnez	v1,9d0032d4 <_do_print_cdfFnopuxX+0x8b8>
9d0032c0:	02001021 	move	v0,s0
9d0032c4:	0b400cb9 	j	9d0032e4 <_do_print_cdfFnopuxX+0x8c8>
9d0032c8:	00001021 	move	v0,zero
9d0032cc:	50600005 	beqzl	v1,9d0032e4 <_do_print_cdfFnopuxX+0x8c8>
9d0032d0:	00501023 	subu	v0,v0,s0
9d0032d4:	24420001 	addiu	v0,v0,1
9d0032d8:	544bfffc 	bnel	v0,t3,9d0032cc <_do_print_cdfFnopuxX+0x8b0>
9d0032dc:	80430000 	lb	v1,0(v0)
9d0032e0:	00501023 	subu	v0,v0,s0
9d0032e4:	afb70010 	sw	s7,16(sp)
9d0032e8:	8fa400a0 	lw	a0,160(sp)
9d0032ec:	02002821 	move	a1,s0
9d0032f0:	00403021 	move	a2,v0
9d0032f4:	0f40270c 	jal	9d009c30 <.LFE6>
9d0032f8:	02c03821 	move	a3,s6
9d0032fc:	0b400ba4 	j	9d002e90 <_do_print_cdfFnopuxX+0x474>
9d003300:	afb500a8 	sw	s5,168(sp)
9d003304:	8c750000 	lw	s5,0(v1)
9d003308:	0000a021 	move	s4,zero
9d00330c:	24630004 	addiu	v1,v1,4
9d003310:	afa300a8 	sw	v1,168(sp)
9d003314:	0b400b5b 	j	9d002d6c <_do_print_cdfFnopuxX+0x350>
9d003318:	afa00074 	sw	zero,116(sp)
9d00331c:	8c750000 	lw	s5,0(v1)
9d003320:	24630004 	addiu	v1,v1,4
9d003324:	afa300a8 	sw	v1,168(sp)
9d003328:	0015a7c3 	sra	s4,s5,0x1f
9d00332c:	02801021 	move	v0,s4
9d003330:	0441fe8d 	bgez	v0,9d002d68 <_do_print_cdfFnopuxX+0x34c>
9d003334:	02a01821 	move	v1,s5
9d003338:	0b400c66 	j	9d003198 <_do_print_cdfFnopuxX+0x77c>
9d00333c:	00036823 	negu	t5,v1
9d003340:	0b400bfd 	j	9d002ff4 <_do_print_cdfFnopuxX+0x5d8>
9d003344:	26100001 	addiu	s0,s0,1
9d003348:	82630001 	lb	v1,1(s3)
9d00334c:	24020030 	li	v0,48
9d003350:	1062fec0 	beq	v1,v0,9d002e54 <_do_print_cdfFnopuxX+0x438>
9d003354:	8fa3006c 	lw	v1,108(sp)
9d003358:	a2620000 	sb	v0,0(s3)
9d00335c:	0b400b94 	j	9d002e50 <_do_print_cdfFnopuxX+0x434>
9d003360:	2673ffff 	addiu	s3,s3,-1
9d003364:	24950007 	addiu	s5,a0,7
9d003368:	2402fff8 	li	v0,-8
9d00336c:	02a21024 	and	v0,s5,v0
9d003370:	24430008 	addiu	v1,v0,8
9d003374:	afa300a8 	sw	v1,168(sp)
9d003378:	8c550000 	lw	s5,0(v0)
9d00337c:	8c540004 	lw	s4,4(v0)
9d003380:	0b400b5b 	j	9d002d6c <_do_print_cdfFnopuxX+0x350>
9d003384:	afa00074 	sw	zero,116(sp)
9d003388:	8fa300a8 	lw	v1,168(sp)
9d00338c:	24750007 	addiu	s5,v1,7
9d003390:	2402fff8 	li	v0,-8
9d003394:	02a2a824 	and	s5,s5,v0
9d003398:	8ea30000 	lw	v1,0(s5)
9d00339c:	8ea20004 	lw	v0,4(s5)
9d0033a0:	26b50008 	addiu	s5,s5,8
9d0033a4:	afb500a8 	sw	s5,168(sp)
9d0033a8:	0060a821 	move	s5,v1
9d0033ac:	0441fe6e 	bgez	v0,9d002d68 <_do_print_cdfFnopuxX+0x34c>
9d0033b0:	0040a021 	move	s4,v0
9d0033b4:	0b400c66 	j	9d003198 <_do_print_cdfFnopuxX+0x77c>
9d0033b8:	00036823 	negu	t5,v1
9d0033bc:	36f70001 	ori	s7,s7,0x1
9d0033c0:	26100001 	addiu	s0,s0,1
9d0033c4:	0b400bfd 	j	9d002ff4 <_do_print_cdfFnopuxX+0x5d8>
9d0033c8:	26100001 	addiu	s0,s0,1
9d0033cc:	8fa300a8 	lw	v1,168(sp)
9d0033d0:	8c7e0000 	lw	s8,0(v1)
9d0033d4:	24750004 	addiu	s5,v1,4
9d0033d8:	26030002 	addiu	v1,s0,2
9d0033dc:	82020002 	lb	v0,2(s0)
9d0033e0:	afb500a8 	sw	s5,168(sp)
9d0033e4:	07c1fdf9 	bgez	s8,9d002bcc <_do_print_cdfFnopuxX+0x1b0>
9d0033e8:	00608021 	move	s0,v1
9d0033ec:	0b400af3 	j	9d002bcc <_do_print_cdfFnopuxX+0x1b0>
9d0033f0:	241effff 	li	s8,-1
9d0033f4:	24020058 	li	v0,88
9d0033f8:	24030078 	li	v1,120
9d0033fc:	0064100a 	movz	v0,v1,a0
9d003400:	a2620000 	sb	v0,0(s3)
9d003404:	24020030 	li	v0,48
9d003408:	a262ffff 	sb	v0,-1(s3)
9d00340c:	0b400b94 	j	9d002e50 <_do_print_cdfFnopuxX+0x434>
9d003410:	2673fffe 	addiu	s3,s3,-2
9d003414:	27a20057 	addiu	v0,sp,87
9d003418:	afa20070 	sw	v0,112(sp)
9d00341c:	0b400b7e 	j	9d002df8 <_do_print_cdfFnopuxX+0x3dc>
9d003420:	00409821 	move	s3,v0
9d003424:	36f78000 	ori	s7,s7,0x8000
9d003428:	26100001 	addiu	s0,s0,1
9d00342c:	0b400bfd 	j	9d002ff4 <_do_print_cdfFnopuxX+0x5d8>
9d003430:	26100001 	addiu	s0,s0,1
9d003434:	82620001 	lb	v0,1(s3)
9d003438:	38420030 	xori	v0,v0,0x30
9d00343c:	0002102b 	sltu	v0,zero,v0
9d003440:	0b400bd2 	j	9d002f48 <_do_print_cdfFnopuxX+0x52c>
9d003444:	00621823 	subu	v1,v1,v0
9d003448:	8c430000 	lw	v1,0(v0)
9d00344c:	00001021 	move	v0,zero
9d003450:	8fa400a8 	lw	a0,168(sp)
9d003454:	24840004 	addiu	a0,a0,4
9d003458:	afa400a8 	sw	a0,168(sp)
9d00345c:	8fa40068 	lw	a0,104(sp)
9d003460:	0b400ba4 	j	9d002e90 <_do_print_cdfFnopuxX+0x474>
9d003464:	ac640000 	sw	a0,0(v1)
9d003468:	0f402b7a 	jal	9d00ade8 <strlen>
9d00346c:	02002021 	move	a0,s0
9d003470:	0b400cba 	j	9d0032e8 <_do_print_cdfFnopuxX+0x8cc>
9d003474:	afb70010 	sw	s7,16(sp)
9d003478:	8c620000 	lw	v0,0(v1)
9d00347c:	8fa40068 	lw	a0,104(sp)
9d003480:	00041fc3 	sra	v1,a0,0x1f
9d003484:	8fa400a8 	lw	a0,168(sp)
9d003488:	24840004 	addiu	a0,a0,4
9d00348c:	afa400a8 	sw	a0,168(sp)
9d003490:	8fa40068 	lw	a0,104(sp)
9d003494:	ac440000 	sw	a0,0(v0)
9d003498:	ac430004 	sw	v1,4(v0)
9d00349c:	0b400ba4 	j	9d002e90 <_do_print_cdfFnopuxX+0x474>
9d0034a0:	00001021 	move	v0,zero
9d0034a4:	8fa200a8 	lw	v0,168(sp)
9d0034a8:	8c430000 	lw	v1,0(v0)
9d0034ac:	00001021 	move	v0,zero
9d0034b0:	8fa400a8 	lw	a0,168(sp)
9d0034b4:	24840004 	addiu	a0,a0,4
9d0034b8:	afa400a8 	sw	a0,168(sp)
9d0034bc:	11000005 	beqz	t0,9d0034d4 <_do_print_cdfFnopuxX+0xab8>
9d0034c0:	8fa40068 	lw	a0,104(sp)
9d0034c4:	0b400ba4 	j	9d002e90 <_do_print_cdfFnopuxX+0x474>
9d0034c8:	a0640000 	sb	a0,0(v1)
9d0034cc:	0b400cb9 	j	9d0032e4 <_do_print_cdfFnopuxX+0x8c8>
9d0034d0:	00001021 	move	v0,zero
9d0034d4:	0b400ba4 	j	9d002e90 <_do_print_cdfFnopuxX+0x474>
9d0034d8:	ac640000 	sw	a0,0(v1)

Disassembly of section .text.malloc:

9d0034dc <malloc>:
9d0034dc:	27bdffc0 	addiu	sp,sp,-64
9d0034e0:	afbf003c 	sw	ra,60(sp)
9d0034e4:	afbe0038 	sw	s8,56(sp)
9d0034e8:	afb70034 	sw	s7,52(sp)
9d0034ec:	afb60030 	sw	s6,48(sp)
9d0034f0:	afb5002c 	sw	s5,44(sp)
9d0034f4:	afb40028 	sw	s4,40(sp)
9d0034f8:	afb30024 	sw	s3,36(sp)
9d0034fc:	afb20020 	sw	s2,32(sp)
9d003500:	afb1001c 	sw	s1,28(sp)
9d003504:	2482000b 	addiu	v0,a0,11
9d003508:	2c430017 	sltiu	v1,v0,23
9d00350c:	10600022 	beqz	v1,9d003598 <malloc+0xbc>
9d003510:	afb00018 	sw	s0,24(sp)
9d003514:	2c840011 	sltiu	a0,a0,17
9d003518:	10800090 	beqz	a0,9d00375c <malloc+0x280>
9d00351c:	24100010 	li	s0,16
9d003520:	3c11a000 	lui	s1,0xa000
9d003524:	26315ec4 	addiu	s1,s1,24260
9d003528:	02301821 	addu	v1,s1,s0
9d00352c:	8c62000c 	lw	v0,12(v1)
9d003530:	104300c5 	beq	v0,v1,9d003848 <malloc+0x36c>
9d003534:	001040c2 	srl	t0,s0,0x3
9d003538:	8c450004 	lw	a1,4(v0)
9d00353c:	8c44000c 	lw	a0,12(v0)
9d003540:	2403fffc 	li	v1,-4
9d003544:	00a31824 	and	v1,a1,v1
9d003548:	00431821 	addu	v1,v0,v1
9d00354c:	8c660004 	lw	a2,4(v1)
9d003550:	8c450008 	lw	a1,8(v0)
9d003554:	24420008 	addiu	v0,v0,8
9d003558:	34c60001 	ori	a2,a2,0x1
9d00355c:	aca4000c 	sw	a0,12(a1)
9d003560:	ac850008 	sw	a1,8(a0)
9d003564:	ac660004 	sw	a2,4(v1)
9d003568:	8fbf003c 	lw	ra,60(sp)
9d00356c:	8fbe0038 	lw	s8,56(sp)
9d003570:	8fb70034 	lw	s7,52(sp)
9d003574:	8fb60030 	lw	s6,48(sp)
9d003578:	8fb5002c 	lw	s5,44(sp)
9d00357c:	8fb40028 	lw	s4,40(sp)
9d003580:	8fb30024 	lw	s3,36(sp)
9d003584:	8fb20020 	lw	s2,32(sp)
9d003588:	8fb1001c 	lw	s1,28(sp)
9d00358c:	8fb00018 	lw	s0,24(sp)
9d003590:	03e00008 	jr	ra
9d003594:	27bd0040 	addiu	sp,sp,64
9d003598:	2410fff8 	li	s0,-8
9d00359c:	00508024 	and	s0,v0,s0
9d0035a0:	0600006e 	bltz	s0,9d00375c <malloc+0x280>
9d0035a4:	0204202b 	sltu	a0,s0,a0
9d0035a8:	1480006c 	bnez	a0,9d00375c <malloc+0x280>
9d0035ac:	2e0201f8 	sltiu	v0,s0,504
9d0035b0:	1440ffdc 	bnez	v0,9d003524 <malloc+0x48>
9d0035b4:	3c11a000 	lui	s1,0xa000
9d0035b8:	00101242 	srl	v0,s0,0x9
9d0035bc:	1040000a 	beqz	v0,9d0035e8 <malloc+0x10c>
9d0035c0:	2406007e 	li	a2,126
9d0035c4:	2c430005 	sltiu	v1,v0,5
9d0035c8:	14600043 	bnez	v1,9d0036d8 <malloc+0x1fc>
9d0035cc:	00104182 	srl	t0,s0,0x6
9d0035d0:	2c430015 	sltiu	v1,v0,21
9d0035d4:	10600107 	beqz	v1,9d0039f4 <malloc+0x518>
9d0035d8:	2c430055 	sltiu	v1,v0,85
9d0035dc:	2448005b 	addiu	t0,v0,91
9d0035e0:	0b400d7c 	j	9d0035f0 <malloc+0x114>
9d0035e4:	00083040 	sll	a2,t0,0x1
9d0035e8:	2408003f 	li	t0,63
9d0035ec:	3c11a000 	lui	s1,0xa000
9d0035f0:	00063080 	sll	a2,a2,0x2
9d0035f4:	26315ec4 	addiu	s1,s1,24260
9d0035f8:	02263021 	addu	a2,s1,a2
9d0035fc:	8cc2000c 	lw	v0,12(a2)
9d003600:	10c20015 	beq	a2,v0,9d003658 <malloc+0x17c>
9d003604:	2403fffc 	li	v1,-4
9d003608:	8c440004 	lw	a0,4(v0)
9d00360c:	00832024 	and	a0,a0,v1
9d003610:	00901823 	subu	v1,a0,s0
9d003614:	28650010 	slti	a1,v1,16
9d003618:	50a0000f 	beqzl	a1,9d003658 <malloc+0x17c>
9d00361c:	2508ffff 	addiu	t0,t0,-1
9d003620:	0460000a 	bltz	v1,9d00364c <malloc+0x170>
9d003624:	2407fffc 	li	a3,-4
9d003628:	0b400de7 	j	9d00379c <malloc+0x2c0>
9d00362c:	00442021 	addu	a0,v0,a0
9d003630:	00872024 	and	a0,a0,a3
9d003634:	00901823 	subu	v1,a0,s0
9d003638:	28650010 	slti	a1,v1,16
9d00363c:	50a00006 	beqzl	a1,9d003658 <malloc+0x17c>
9d003640:	2508ffff 	addiu	t0,t0,-1
9d003644:	04630055 	bgezl	v1,9d00379c <malloc+0x2c0>
9d003648:	00442021 	addu	a0,v0,a0
9d00364c:	8c42000c 	lw	v0,12(v0)
9d003650:	54c2fff7 	bnel	a2,v0,9d003630 <malloc+0x154>
9d003654:	8c440004 	lw	a0,4(v0)
9d003658:	25080001 	addiu	t0,t0,1
9d00365c:	8e220010 	lw	v0,16(s1)
9d003660:	3c06a000 	lui	a2,0xa000
9d003664:	24c65ecc 	addiu	a2,a2,24268
9d003668:	1046007d 	beq	v0,a2,9d003860 <malloc+0x384>
9d00366c:	2403fffc 	li	v1,-4
9d003670:	8c440004 	lw	a0,4(v0)
9d003674:	00832024 	and	a0,a0,v1
9d003678:	00901823 	subu	v1,a0,s0
9d00367c:	28650010 	slti	a1,v1,16
9d003680:	50a0005a 	beqzl	a1,9d0037ec <malloc+0x310>
9d003684:	00502021 	addu	a0,v0,s0
9d003688:	ae260014 	sw	a2,20(s1)
9d00368c:	04600015 	bltz	v1,9d0036e4 <malloc+0x208>
9d003690:	ae260010 	sw	a2,16(s1)
9d003694:	00442021 	addu	a0,v0,a0
9d003698:	8c830004 	lw	v1,4(a0)
9d00369c:	24420008 	addiu	v0,v0,8
9d0036a0:	34630001 	ori	v1,v1,0x1
9d0036a4:	ac830004 	sw	v1,4(a0)
9d0036a8:	8fbf003c 	lw	ra,60(sp)
9d0036ac:	8fbe0038 	lw	s8,56(sp)
9d0036b0:	8fb70034 	lw	s7,52(sp)
9d0036b4:	8fb60030 	lw	s6,48(sp)
9d0036b8:	8fb5002c 	lw	s5,44(sp)
9d0036bc:	8fb40028 	lw	s4,40(sp)
9d0036c0:	8fb30024 	lw	s3,36(sp)
9d0036c4:	8fb20020 	lw	s2,32(sp)
9d0036c8:	8fb1001c 	lw	s1,28(sp)
9d0036cc:	8fb00018 	lw	s0,24(sp)
9d0036d0:	03e00008 	jr	ra
9d0036d4:	27bd0040 	addiu	sp,sp,64
9d0036d8:	25080038 	addiu	t0,t0,56
9d0036dc:	0b400d7b 	j	9d0035ec <malloc+0x110>
9d0036e0:	00083040 	sll	a2,t0,0x1
9d0036e4:	2c830200 	sltiu	v1,a0,512
9d0036e8:	546000cb 	bnezl	v1,9d003a18 <malloc+0x53c>
9d0036ec:	000420c2 	srl	a0,a0,0x3
9d0036f0:	00041a42 	srl	v1,a0,0x9
9d0036f4:	2c650005 	sltiu	a1,v1,5
9d0036f8:	10a00153 	beqz	a1,9d003c48 <malloc+0x76c>
9d0036fc:	2c650015 	sltiu	a1,v1,21
9d003700:	00042982 	srl	a1,a0,0x6
9d003704:	24a50038 	addiu	a1,a1,56
9d003708:	000538c0 	sll	a3,a1,0x3
9d00370c:	02273821 	addu	a3,s1,a3
9d003710:	8ce30008 	lw	v1,8(a3)
9d003714:	50670159 	beql	v1,a3,9d003c7c <malloc+0x7a0>
9d003718:	8e240004 	lw	a0,4(s1)
9d00371c:	2409fffc 	li	t1,-4
9d003720:	8c650004 	lw	a1,4(v1)
9d003724:	00a92824 	and	a1,a1,t1
9d003728:	0085282b 	sltu	a1,a0,a1
9d00372c:	50a00005 	beqzl	a1,9d003744 <malloc+0x268>
9d003730:	8c65000c 	lw	a1,12(v1)
9d003734:	8c630008 	lw	v1,8(v1)
9d003738:	54e3fffa 	bnel	a3,v1,9d003724 <malloc+0x248>
9d00373c:	8c650004 	lw	a1,4(v1)
9d003740:	8c65000c 	lw	a1,12(v1)
9d003744:	8e240004 	lw	a0,4(s1)
9d003748:	ac45000c 	sw	a1,12(v0)
9d00374c:	ac430008 	sw	v1,8(v0)
9d003750:	aca20008 	sw	v0,8(a1)
9d003754:	0b400e19 	j	9d003864 <malloc+0x388>
9d003758:	ac62000c 	sw	v0,12(v1)
9d00375c:	2403000c 	li	v1,12
9d003760:	3c02a000 	lui	v0,0xa000
9d003764:	ac430038 	sw	v1,56(v0)
9d003768:	00001021 	move	v0,zero
9d00376c:	8fbf003c 	lw	ra,60(sp)
9d003770:	8fbe0038 	lw	s8,56(sp)
9d003774:	8fb70034 	lw	s7,52(sp)
9d003778:	8fb60030 	lw	s6,48(sp)
9d00377c:	8fb5002c 	lw	s5,44(sp)
9d003780:	8fb40028 	lw	s4,40(sp)
9d003784:	8fb30024 	lw	s3,36(sp)
9d003788:	8fb20020 	lw	s2,32(sp)
9d00378c:	8fb1001c 	lw	s1,28(sp)
9d003790:	8fb00018 	lw	s0,24(sp)
9d003794:	03e00008 	jr	ra
9d003798:	27bd0040 	addiu	sp,sp,64
9d00379c:	8c860004 	lw	a2,4(a0)
9d0037a0:	8c43000c 	lw	v1,12(v0)
9d0037a4:	8c450008 	lw	a1,8(v0)
9d0037a8:	34c60001 	ori	a2,a2,0x1
9d0037ac:	24420008 	addiu	v0,v0,8
9d0037b0:	aca3000c 	sw	v1,12(a1)
9d0037b4:	ac650008 	sw	a1,8(v1)
9d0037b8:	ac860004 	sw	a2,4(a0)
9d0037bc:	8fbf003c 	lw	ra,60(sp)
9d0037c0:	8fbe0038 	lw	s8,56(sp)
9d0037c4:	8fb70034 	lw	s7,52(sp)
9d0037c8:	8fb60030 	lw	s6,48(sp)
9d0037cc:	8fb5002c 	lw	s5,44(sp)
9d0037d0:	8fb40028 	lw	s4,40(sp)
9d0037d4:	8fb30024 	lw	s3,36(sp)
9d0037d8:	8fb20020 	lw	s2,32(sp)
9d0037dc:	8fb1001c 	lw	s1,28(sp)
9d0037e0:	8fb00018 	lw	s0,24(sp)
9d0037e4:	03e00008 	jr	ra
9d0037e8:	27bd0040 	addiu	sp,sp,64
9d0037ec:	36100001 	ori	s0,s0,0x1
9d0037f0:	34670001 	ori	a3,v1,0x1
9d0037f4:	00832821 	addu	a1,a0,v1
9d0037f8:	ac500004 	sw	s0,4(v0)
9d0037fc:	24420008 	addiu	v0,v0,8
9d003800:	ae240014 	sw	a0,20(s1)
9d003804:	ae240010 	sw	a0,16(s1)
9d003808:	ac86000c 	sw	a2,12(a0)
9d00380c:	ac860008 	sw	a2,8(a0)
9d003810:	ac870004 	sw	a3,4(a0)
9d003814:	aca30000 	sw	v1,0(a1)
9d003818:	8fbf003c 	lw	ra,60(sp)
9d00381c:	8fbe0038 	lw	s8,56(sp)
9d003820:	8fb70034 	lw	s7,52(sp)
9d003824:	8fb60030 	lw	s6,48(sp)
9d003828:	8fb5002c 	lw	s5,44(sp)
9d00382c:	8fb40028 	lw	s4,40(sp)
9d003830:	8fb30024 	lw	s3,36(sp)
9d003834:	8fb20020 	lw	s2,32(sp)
9d003838:	8fb1001c 	lw	s1,28(sp)
9d00383c:	8fb00018 	lw	s0,24(sp)
9d003840:	03e00008 	jr	ra
9d003844:	27bd0040 	addiu	sp,sp,64
9d003848:	24430008 	addiu	v1,v0,8
9d00384c:	8c420014 	lw	v0,20(v0)
9d003850:	1062ff82 	beq	v1,v0,9d00365c <malloc+0x180>
9d003854:	25080002 	addiu	t0,t0,2
9d003858:	0b400d4f 	j	9d00353c <malloc+0x60>
9d00385c:	8c450004 	lw	a1,4(v0)
9d003860:	8e240004 	lw	a0,4(s1)
9d003864:	00081083 	sra	v0,t0,0x2
9d003868:	24070001 	li	a3,1
9d00386c:	00473804 	sllv	a3,a3,v0
9d003870:	0087102b 	sltu	v0,a0,a3
9d003874:	5440002b 	bnezl	v0,9d003924 <malloc+0x448>
9d003878:	8e320008 	lw	s2,8(s1)
9d00387c:	00871024 	and	v0,a0,a3
9d003880:	50400073 	beqzl	v0,9d003a50 <malloc+0x574>
9d003884:	00073840 	sll	a3,a3,0x1
9d003888:	240afffc 	li	t2,-4
9d00388c:	000858c0 	sll	t3,t0,0x3
9d003890:	022b5821 	addu	t3,s1,t3
9d003894:	01604821 	move	t1,t3
9d003898:	01006021 	move	t4,t0
9d00389c:	8d22000c 	lw	v0,12(t1)
9d0038a0:	55220009 	bnel	t1,v0,9d0038c8 <malloc+0x3ec>
9d0038a4:	8c440004 	lw	a0,4(v0)
9d0038a8:	0b400ea2 	j	9d003a88 <malloc+0x5ac>
9d0038ac:	258c0001 	addiu	t4,t4,1
9d0038b0:	04630093 	bgezl	v1,9d003b00 <malloc+0x624>
9d0038b4:	00442021 	addu	a0,v0,a0
9d0038b8:	8c42000c 	lw	v0,12(v0)
9d0038bc:	51220072 	beql	t1,v0,9d003a88 <malloc+0x5ac>
9d0038c0:	258c0001 	addiu	t4,t4,1
9d0038c4:	8c440004 	lw	a0,4(v0)
9d0038c8:	008a2024 	and	a0,a0,t2
9d0038cc:	00901823 	subu	v1,a0,s0
9d0038d0:	28650010 	slti	a1,v1,16
9d0038d4:	14a0fff6 	bnez	a1,9d0038b0 <malloc+0x3d4>
9d0038d8:	00000000 	nop
9d0038dc:	8c45000c 	lw	a1,12(v0)
9d0038e0:	8c470008 	lw	a3,8(v0)
9d0038e4:	00502021 	addu	a0,v0,s0
9d0038e8:	36100001 	ori	s0,s0,0x1
9d0038ec:	34690001 	ori	t1,v1,0x1
9d0038f0:	00834021 	addu	t0,a0,v1
9d0038f4:	ac500004 	sw	s0,4(v0)
9d0038f8:	24420008 	addiu	v0,v0,8
9d0038fc:	ace5000c 	sw	a1,12(a3)
9d003900:	aca70008 	sw	a3,8(a1)
9d003904:	ae240014 	sw	a0,20(s1)
9d003908:	ae240010 	sw	a0,16(s1)
9d00390c:	ac86000c 	sw	a2,12(a0)
9d003910:	ac860008 	sw	a2,8(a0)
9d003914:	ac890004 	sw	t1,4(a0)
9d003918:	0b400d5a 	j	9d003568 <malloc+0x8c>
9d00391c:	ad030000 	sw	v1,0(t0)
9d003920:	8e320008 	lw	s2,8(s1)
9d003924:	8e540004 	lw	s4,4(s2)
9d003928:	2402fffc 	li	v0,-4
9d00392c:	0282a024 	and	s4,s4,v0
9d003930:	0290102b 	sltu	v0,s4,s0
9d003934:	14400004 	bnez	v0,9d003948 <malloc+0x46c>
9d003938:	02901023 	subu	v0,s4,s0
9d00393c:	28430010 	slti	v1,v0,16
9d003940:	10600025 	beqz	v1,9d0039d8 <malloc+0x4fc>
9d003944:	02501821 	addu	v1,s2,s0
9d003948:	3c02a000 	lui	v0,0xa000
9d00394c:	8c556458 	lw	s5,25688(v0)
9d003950:	3c1ea000 	lui	s8,0xa000
9d003954:	0254b821 	addu	s7,s2,s4
9d003958:	26b50010 	addiu	s5,s5,16
9d00395c:	0f402f1f 	jal	9d00bc7c <getpagesize>
9d003960:	02b0a821 	addu	s5,s5,s0
9d003964:	0040b021 	move	s6,v0
9d003968:	8fc35ebc 	lw	v1,24252(s8)
9d00396c:	2402ffff 	li	v0,-1
9d003970:	10620004 	beq	v1,v0,9d003984 <malloc+0x4a8>
9d003974:	26a2ffff 	addiu	v0,s5,-1
9d003978:	00561021 	addu	v0,v0,s6
9d00397c:	0016a823 	negu	s5,s6
9d003980:	02a2a824 	and	s5,s5,v0
9d003984:	0f402d54 	jal	9d00b550 <sbrk>
9d003988:	02a02021 	move	a0,s5
9d00398c:	00409821 	move	s3,v0
9d003990:	2402ffff 	li	v0,-1
9d003994:	52620007 	beql	s3,v0,9d0039b4 <malloc+0x4d8>
9d003998:	8e320008 	lw	s2,8(s1)
9d00399c:	0277102b 	sltu	v0,s3,s7
9d0039a0:	10400060 	beqz	v0,9d003b24 <malloc+0x648>
9d0039a4:	3c03a000 	lui	v1,0xa000
9d0039a8:	5251005f 	beql	s2,s1,9d003b28 <malloc+0x64c>
9d0039ac:	8c626428 	lw	v0,25640(v1)
9d0039b0:	8e320008 	lw	s2,8(s1)
9d0039b4:	8e430004 	lw	v1,4(s2)
9d0039b8:	2402fffc 	li	v0,-4
9d0039bc:	00621024 	and	v0,v1,v0
9d0039c0:	0050182b 	sltu	v1,v0,s0
9d0039c4:	146000a4 	bnez	v1,9d003c58 <malloc+0x77c>
9d0039c8:	00501023 	subu	v0,v0,s0
9d0039cc:	28430010 	slti	v1,v0,16
9d0039d0:	146000a1 	bnez	v1,9d003c58 <malloc+0x77c>
9d0039d4:	02501821 	addu	v1,s2,s0
9d0039d8:	36100001 	ori	s0,s0,0x1
9d0039dc:	34440001 	ori	a0,v0,0x1
9d0039e0:	ae500004 	sw	s0,4(s2)
9d0039e4:	26420008 	addiu	v0,s2,8
9d0039e8:	ae230008 	sw	v1,8(s1)
9d0039ec:	0b400d5a 	j	9d003568 <malloc+0x8c>
9d0039f0:	ac640004 	sw	a0,4(v1)
9d0039f4:	14600021 	bnez	v1,9d003a7c <malloc+0x5a0>
9d0039f8:	00104302 	srl	t0,s0,0xc
9d0039fc:	2c430155 	sltiu	v1,v0,341
9d003a00:	1060008b 	beqz	v1,9d003c30 <malloc+0x754>
9d003a04:	2c420555 	sltiu	v0,v0,1365
9d003a08:	001043c2 	srl	t0,s0,0xf
9d003a0c:	25080077 	addiu	t0,t0,119
9d003a10:	0b400d7b 	j	9d0035ec <malloc+0x110>
9d003a14:	00083040 	sll	a2,t0,0x1
9d003a18:	000418c0 	sll	v1,a0,0x3
9d003a1c:	02231821 	addu	v1,s1,v1
9d003a20:	8e270004 	lw	a3,4(s1)
9d003a24:	8c650008 	lw	a1,8(v1)
9d003a28:	00042083 	sra	a0,a0,0x2
9d003a2c:	24090001 	li	t1,1
9d003a30:	00892004 	sllv	a0,t1,a0
9d003a34:	00872025 	or	a0,a0,a3
9d003a38:	ac43000c 	sw	v1,12(v0)
9d003a3c:	ac450008 	sw	a1,8(v0)
9d003a40:	ae240004 	sw	a0,4(s1)
9d003a44:	ac620008 	sw	v0,8(v1)
9d003a48:	0b400e19 	j	9d003864 <malloc+0x388>
9d003a4c:	aca2000c 	sw	v0,12(a1)
9d003a50:	2402fffc 	li	v0,-4
9d003a54:	01024024 	and	t0,t0,v0
9d003a58:	00871024 	and	v0,a0,a3
9d003a5c:	1440ff8a 	bnez	v0,9d003888 <malloc+0x3ac>
9d003a60:	25080004 	addiu	t0,t0,4
9d003a64:	00073840 	sll	a3,a3,0x1
9d003a68:	00871024 	and	v0,a0,a3
9d003a6c:	1040fffd 	beqz	v0,9d003a64 <malloc+0x588>
9d003a70:	25080004 	addiu	t0,t0,4
9d003a74:	0b400e23 	j	9d00388c <malloc+0x3b0>
9d003a78:	240afffc 	li	t2,-4
9d003a7c:	2508006e 	addiu	t0,t0,110
9d003a80:	0b400d7b 	j	9d0035ec <malloc+0x110>
9d003a84:	00083040 	sll	a2,t0,0x1
9d003a88:	31820003 	andi	v0,t4,0x3
9d003a8c:	1440ff83 	bnez	v0,9d00389c <malloc+0x3c0>
9d003a90:	25290008 	addiu	t1,t1,8
9d003a94:	0b400eaa 	j	9d003aa8 <malloc+0x5cc>
9d003a98:	2562fff8 	addiu	v0,t3,-8
9d003a9c:	15620009 	bne	t3,v0,9d003ac4 <malloc+0x5e8>
9d003aa0:	2508ffff 	addiu	t0,t0,-1
9d003aa4:	2562fff8 	addiu	v0,t3,-8
9d003aa8:	31030003 	andi	v1,t0,0x3
9d003aac:	5460fffb 	bnezl	v1,9d003a9c <malloc+0x5c0>
9d003ab0:	8d6b0000 	lw	t3,0(t3)
9d003ab4:	8e220004 	lw	v0,4(s1)
9d003ab8:	00071827 	nor	v1,zero,a3
9d003abc:	00621024 	and	v0,v1,v0
9d003ac0:	ae220004 	sw	v0,4(s1)
9d003ac4:	8e220004 	lw	v0,4(s1)
9d003ac8:	00073840 	sll	a3,a3,0x1
9d003acc:	0047182b 	sltu	v1,v0,a3
9d003ad0:	5460ff94 	bnezl	v1,9d003924 <malloc+0x448>
9d003ad4:	8e320008 	lw	s2,8(s1)
9d003ad8:	10e0ff91 	beqz	a3,9d003920 <malloc+0x444>
9d003adc:	00e21824 	and	v1,a3,v0
9d003ae0:	1460ff6a 	bnez	v1,9d00388c <malloc+0x3b0>
9d003ae4:	01804021 	move	t0,t4
9d003ae8:	00073840 	sll	a3,a3,0x1
9d003aec:	00e21824 	and	v1,a3,v0
9d003af0:	1060fffd 	beqz	v1,9d003ae8 <malloc+0x60c>
9d003af4:	25080004 	addiu	t0,t0,4
9d003af8:	0b400e24 	j	9d003890 <malloc+0x3b4>
9d003afc:	000858c0 	sll	t3,t0,0x3
9d003b00:	8c860004 	lw	a2,4(a0)
9d003b04:	8c43000c 	lw	v1,12(v0)
9d003b08:	8c450008 	lw	a1,8(v0)
9d003b0c:	34c60001 	ori	a2,a2,0x1
9d003b10:	ac860004 	sw	a2,4(a0)
9d003b14:	24420008 	addiu	v0,v0,8
9d003b18:	aca3000c 	sw	v1,12(a1)
9d003b1c:	0b400d5a 	j	9d003568 <malloc+0x8c>
9d003b20:	ac650008 	sw	a1,8(v1)
9d003b24:	8c626428 	lw	v0,25640(v1)
9d003b28:	26c5ffff 	addiu	a1,s6,-1
9d003b2c:	02a21021 	addu	v0,s5,v0
9d003b30:	12f3005e 	beq	s7,s3,9d003cac <malloc+0x7d0>
9d003b34:	ac626428 	sw	v0,25640(v1)
9d003b38:	8fc65ebc 	lw	a2,24252(s8)
9d003b3c:	2404ffff 	li	a0,-1
9d003b40:	50c4006a 	beql	a2,a0,9d003cec <malloc+0x810>
9d003b44:	3c02a000 	lui	v0,0xa000
9d003b48:	0277b823 	subu	s7,s3,s7
9d003b4c:	00571021 	addu	v0,v0,s7
9d003b50:	ac626428 	sw	v0,25640(v1)
9d003b54:	32640007 	andi	a0,s3,0x7
9d003b58:	10800004 	beqz	a0,9d003b6c <malloc+0x690>
9d003b5c:	00001021 	move	v0,zero
9d003b60:	24020008 	li	v0,8
9d003b64:	00441023 	subu	v0,v0,a0
9d003b68:	02629821 	addu	s3,s3,v0
9d003b6c:	0275a821 	addu	s5,s3,s5
9d003b70:	00561021 	addu	v0,v0,s6
9d003b74:	02a52824 	and	a1,s5,a1
9d003b78:	0045a823 	subu	s5,v0,a1
9d003b7c:	02a02021 	move	a0,s5
9d003b80:	0f402d54 	jal	9d00b550 <sbrk>
9d003b84:	afa30010 	sw	v1,16(sp)
9d003b88:	2404ffff 	li	a0,-1
9d003b8c:	10440054 	beq	v0,a0,9d003ce0 <malloc+0x804>
9d003b90:	8fa30010 	lw	v1,16(sp)
9d003b94:	00531023 	subu	v0,v0,s3
9d003b98:	02a22021 	addu	a0,s5,v0
9d003b9c:	34840001 	ori	a0,a0,0x1
9d003ba0:	8c626428 	lw	v0,25640(v1)
9d003ba4:	ae330008 	sw	s3,8(s1)
9d003ba8:	02a21021 	addu	v0,s5,v0
9d003bac:	ac626428 	sw	v0,25640(v1)
9d003bb0:	12510010 	beq	s2,s1,9d003bf4 <malloc+0x718>
9d003bb4:	ae640004 	sw	a0,4(s3)
9d003bb8:	2e830010 	sltiu	v1,s4,16
9d003bbc:	1460002a 	bnez	v1,9d003c68 <malloc+0x78c>
9d003bc0:	2403fff8 	li	v1,-8
9d003bc4:	2694fff4 	addiu	s4,s4,-12
9d003bc8:	02831824 	and	v1,s4,v1
9d003bcc:	02432021 	addu	a0,s2,v1
9d003bd0:	24050005 	li	a1,5
9d003bd4:	ac850004 	sw	a1,4(a0)
9d003bd8:	ac850008 	sw	a1,8(a0)
9d003bdc:	8e450004 	lw	a1,4(s2)
9d003be0:	2c640010 	sltiu	a0,v1,16
9d003be4:	30a50001 	andi	a1,a1,0x1
9d003be8:	00651825 	or	v1,v1,a1
9d003bec:	10800037 	beqz	a0,9d003ccc <malloc+0x7f0>
9d003bf0:	ae430004 	sw	v1,4(s2)
9d003bf4:	3c03a000 	lui	v1,0xa000
9d003bf8:	8c646454 	lw	a0,25684(v1)
9d003bfc:	0082202b 	sltu	a0,a0,v0
9d003c00:	54800001 	bnezl	a0,9d003c08 <malloc+0x72c>
9d003c04:	ac626454 	sw	v0,25684(v1)
9d003c08:	3c03a000 	lui	v1,0xa000
9d003c0c:	8c646450 	lw	a0,25680(v1)
9d003c10:	0082202b 	sltu	a0,a0,v0
9d003c14:	10800002 	beqz	a0,9d003c20 <malloc+0x744>
9d003c18:	8e320008 	lw	s2,8(s1)
9d003c1c:	ac626450 	sw	v0,25680(v1)
9d003c20:	8e430004 	lw	v1,4(s2)
9d003c24:	2402fffc 	li	v0,-4
9d003c28:	0b400e70 	j	9d0039c0 <malloc+0x4e4>
9d003c2c:	00621024 	and	v0,v1,v0
9d003c30:	5040000b 	beqzl	v0,9d003c60 <malloc+0x784>
9d003c34:	240600fc 	li	a2,252
9d003c38:	00104482 	srl	t0,s0,0x12
9d003c3c:	2508007c 	addiu	t0,t0,124
9d003c40:	0b400d7b 	j	9d0035ec <malloc+0x110>
9d003c44:	00083040 	sll	a2,t0,0x1
9d003c48:	50a00013 	beqzl	a1,9d003c98 <malloc+0x7bc>
9d003c4c:	2c650055 	sltiu	a1,v1,85
9d003c50:	0b400dc2 	j	9d003708 <malloc+0x22c>
9d003c54:	2465005b 	addiu	a1,v1,91
9d003c58:	0b400d5a 	j	9d003568 <malloc+0x8c>
9d003c5c:	00001021 	move	v0,zero
9d003c60:	0b400d7b 	j	9d0035ec <malloc+0x110>
9d003c64:	2408007e 	li	t0,126
9d003c68:	24020001 	li	v0,1
9d003c6c:	ae620004 	sw	v0,4(s3)
9d003c70:	02609021 	move	s2,s3
9d003c74:	0b400e70 	j	9d0039c0 <malloc+0x4e4>
9d003c78:	00001021 	move	v0,zero
9d003c7c:	00052883 	sra	a1,a1,0x2
9d003c80:	24070001 	li	a3,1
9d003c84:	00a72804 	sllv	a1,a3,a1
9d003c88:	00a42025 	or	a0,a1,a0
9d003c8c:	ae240004 	sw	a0,4(s1)
9d003c90:	0b400dd2 	j	9d003748 <malloc+0x26c>
9d003c94:	00602821 	move	a1,v1
9d003c98:	50a00016 	beqzl	a1,9d003cf4 <malloc+0x818>
9d003c9c:	2c650155 	sltiu	a1,v1,341
9d003ca0:	00042b02 	srl	a1,a0,0xc
9d003ca4:	0b400dc2 	j	9d003708 <malloc+0x22c>
9d003ca8:	24a5006e 	addiu	a1,a1,110
9d003cac:	02e52024 	and	a0,s7,a1
9d003cb0:	5480ffa2 	bnezl	a0,9d003b3c <malloc+0x660>
9d003cb4:	8fc65ebc 	lw	a2,24252(s8)
9d003cb8:	8e230008 	lw	v1,8(s1)
9d003cbc:	02b42021 	addu	a0,s5,s4
9d003cc0:	34840001 	ori	a0,a0,0x1
9d003cc4:	0b400efd 	j	9d003bf4 <malloc+0x718>
9d003cc8:	ac640004 	sw	a0,4(v1)
9d003ccc:	0f4020ff 	jal	9d0083fc <free>
9d003cd0:	26440008 	addiu	a0,s2,8
9d003cd4:	3c02a000 	lui	v0,0xa000
9d003cd8:	0b400efd 	j	9d003bf4 <malloc+0x718>
9d003cdc:	8c426428 	lw	v0,25640(v0)
9d003ce0:	24040001 	li	a0,1
9d003ce4:	0b400ee8 	j	9d003ba0 <malloc+0x6c4>
9d003ce8:	0000a821 	move	s5,zero
9d003cec:	0b400ed5 	j	9d003b54 <malloc+0x678>
9d003cf0:	ac535ebc 	sw	s3,24252(v0)
9d003cf4:	10a00004 	beqz	a1,9d003d08 <malloc+0x82c>
9d003cf8:	2c630555 	sltiu	v1,v1,1365
9d003cfc:	00042bc2 	srl	a1,a0,0xf
9d003d00:	0b400dc2 	j	9d003708 <malloc+0x22c>
9d003d04:	24a50077 	addiu	a1,a1,119
9d003d08:	1060fe7f 	beqz	v1,9d003708 <malloc+0x22c>
9d003d0c:	2405007e 	li	a1,126
9d003d10:	00042c82 	srl	a1,a0,0x12
9d003d14:	0b400dc2 	j	9d003708 <malloc+0x22c>
9d003d18:	24a5007c 	addiu	a1,a1,124

Disassembly of section .text:

9d003d1c <set_position_gains>:
static volatile float Ki = 0;	// A/(mm*s)
static volatile float Kd = 3;   // A/(mm/s)  
static volatile float desired_pos = 0, Eint=0, Eold=0;    

void set_position_gains(void)   // recieve position control gains
{
9d003d1c:	27bdff70 	addiu	sp,sp,-144
9d003d20:	afbf008c 	sw	ra,140(sp)
    char buffer[100];
    float Kptemp, Kitemp, Kdtemp;
    NU32_ReadUART3(buffer,100);                              // Store gains in buffer
9d003d24:	27a40018 	addiu	a0,sp,24
9d003d28:	0f402553 	jal	9d00954c <NU32_ReadUART3>
9d003d2c:	24050064 	li	a1,100

9d003d30 <.LVL0>:
    sscanf(buffer, "%f %f %f",&Kptemp, &Kitemp, &Kdtemp);   // Extract gains to temporary variables
9d003d30:	27a20084 	addiu	v0,sp,132
9d003d34:	afa20010 	sw	v0,16(sp)
9d003d38:	27a40018 	addiu	a0,sp,24
9d003d3c:	3c059d01 	lui	a1,0x9d01
9d003d40:	24a5b964 	addiu	a1,a1,-18076
9d003d44:	27a6007c 	addiu	a2,sp,124
9d003d48:	0f402c5a 	jal	9d00b168 <_sscanf_cdfFnopuxX>
9d003d4c:	27a70080 	addiu	a3,sp,128

9d003d50 <.LVL1>:
    __builtin_disable_interrupts();                         // Disable interrupts briefly
9d003d50:	41626000 	di	v0
9d003d54:	000000c0 	ehb
    Kp = Kptemp;                                            // Set gains
9d003d58:	8fa2007c 	lw	v0,124(sp)
9d003d5c:	af828014 	sw	v0,-32748(gp)
    Ki = Kitemp;
9d003d60:	8fa20080 	lw	v0,128(sp)
9d003d64:	af82803c 	sw	v0,-32708(gp)
    Kd = Kdtemp;
9d003d68:	8fa20084 	lw	v0,132(sp)
9d003d6c:	af828010 	sw	v0,-32752(gp)
    __builtin_enable_interrupts();                          // Reenable interrupts
9d003d70:	41626020 	ei	v0
}
9d003d74:	8fbf008c 	lw	ra,140(sp)
9d003d78:	03e00008 	jr	ra
9d003d7c:	27bd0090 	addiu	sp,sp,144

9d003d80 <get_position_gains>:

void get_position_gains(void)   // provide position control gains
{
9d003d80:	27bdffd8 	addiu	sp,sp,-40
9d003d84:	afbf0024 	sw	ra,36(sp)
9d003d88:	afb00020 	sw	s0,32(sp)
    char buffer[10];
    sprintf(buffer, "%f\r\n",Kp);   // Extract gains to buffer 
9d003d8c:	8f868014 	lw	a2,-32748(gp)
9d003d90:	27a40010 	addiu	a0,sp,16
9d003d94:	3c109d01 	lui	s0,0x9d01
9d003d98:	0f402c77 	jal	9d00b1dc <_sprintf_cdfFnopuxX>
9d003d9c:	2605b970 	addiu	a1,s0,-18064

9d003da0 <.LVL2>:
    NU32_WriteUART3(buffer);        // Send gains to client
9d003da0:	0f402570 	jal	9d0095c0 <NU32_WriteUART3>
9d003da4:	27a40010 	addiu	a0,sp,16

9d003da8 <.LVL3>:
    sprintf(buffer, "%f\r\n",Ki);
9d003da8:	8f86803c 	lw	a2,-32708(gp)
9d003dac:	27a40010 	addiu	a0,sp,16
9d003db0:	0f402c77 	jal	9d00b1dc <_sprintf_cdfFnopuxX>
9d003db4:	2605b970 	addiu	a1,s0,-18064

9d003db8 <.LVL4>:
    NU32_WriteUART3(buffer);
9d003db8:	0f402570 	jal	9d0095c0 <NU32_WriteUART3>
9d003dbc:	27a40010 	addiu	a0,sp,16

9d003dc0 <.LVL5>:
    sprintf(buffer, "%f\r\n",Kd);
9d003dc0:	8f868010 	lw	a2,-32752(gp)
9d003dc4:	27a40010 	addiu	a0,sp,16
9d003dc8:	0f402c77 	jal	9d00b1dc <_sprintf_cdfFnopuxX>
9d003dcc:	2605b970 	addiu	a1,s0,-18064

9d003dd0 <.LVL6>:
    NU32_WriteUART3(buffer);
9d003dd0:	0f402570 	jal	9d0095c0 <NU32_WriteUART3>
9d003dd4:	27a40010 	addiu	a0,sp,16

9d003dd8 <.LVL7>:
}
9d003dd8:	8fbf0024 	lw	ra,36(sp)
9d003ddc:	8fb00020 	lw	s0,32(sp)
9d003de0:	03e00008 	jr	ra
9d003de4:	27bd0028 	addiu	sp,sp,40

9d003de8 <get_pos>:

void get_pos(void)            // Get desired position from client
{
9d003de8:	27bdff80 	addiu	sp,sp,-128
9d003dec:	afbf007c 	sw	ra,124(sp)
    char buffer [100]; float pos_temp;
    NU32_ReadUART3(buffer,100);			// Read desired angle from client
9d003df0:	27a40010 	addiu	a0,sp,16
9d003df4:	0f402553 	jal	9d00954c <NU32_ReadUART3>
9d003df8:	24050064 	li	a1,100

9d003dfc <.LVL8>:
    sscanf(buffer,"%f",&pos_temp);    	// Extract angle from buffer
9d003dfc:	27a40010 	addiu	a0,sp,16
9d003e00:	3c059d01 	lui	a1,0x9d01
9d003e04:	24a5b978 	addiu	a1,a1,-18056
9d003e08:	0f402c5a 	jal	9d00b168 <_sscanf_cdfFnopuxX>
9d003e0c:	27a60074 	addiu	a2,sp,116

9d003e10 <.LVL9>:
    __builtin_disable_interrupts();     // Disable interrupts quickly
9d003e10:	41626000 	di	v0
9d003e14:	000000c0 	ehb
    desired_pos = pos_temp;         	// Set desired angle  
9d003e18:	8fa20074 	lw	v0,116(sp)
9d003e1c:	af828038 	sw	v0,-32712(gp)
    __builtin_enable_interrupts();      // Reenable interrupts
9d003e20:	41626020 	ei	v0
    Eint = 0;                           // Reset PID error
9d003e24:	00001021 	move	v0,zero
9d003e28:	af828034 	sw	v0,-32716(gp)
    Eold = 0;
9d003e2c:	af828030 	sw	v0,-32720(gp)
}
9d003e30:	8fbf007c 	lw	ra,124(sp)
9d003e34:	03e00008 	jr	ra
9d003e38:	27bd0080 	addiu	sp,sp,128

9d003e3c <reset_pos>:

void reset_pos(void)
{
9d003e3c:	27bdfff8 	addiu	sp,sp,-8
9d003e40:	afbf0004 	sw	ra,4(sp)
	__builtin_disable_interrupts();
9d003e44:	41626000 	di	v0
9d003e48:	000000c0 	ehb
	desired_pos = 0;
9d003e4c:	00001021 	move	v0,zero
9d003e50:	af828038 	sw	v0,-32712(gp)
	__builtin_enable_interrupts();
9d003e54:	41626020 	ei	v0
}
9d003e58:	8fbf0004 	lw	ra,4(sp)
9d003e5c:	03e00008 	jr	ra
9d003e60:	27bd0008 	addiu	sp,sp,8

9d003e64 <positioncontrol_setup>:

void positioncontrol_setup(void)// setup position control module
{
9d003e64:	27bdffe8 	addiu	sp,sp,-24
9d003e68:	afbf0014 	sw	ra,20(sp)
    // Set up peripheral Timer4 to interrupt at 1000 Hz
    T4CONbits.TCKPS = 3;    // Timer4 prescalar N = 8
9d003e6c:	3c02bf80 	lui	v0,0xbf80
9d003e70:	94430c00 	lhu	v1,3072(v0)
9d003e74:	24040003 	li	a0,3
9d003e78:	7c833104 	ins	v1,a0,0x4,0x3
9d003e7c:	a4430c00 	sh	v1,3072(v0)
    PR4 = 9999;             // Frequency = 1000 Hz
9d003e80:	2404270f 	li	a0,9999
9d003e84:	3c03bf80 	lui	v1,0xbf80
9d003e88:	ac640c20 	sw	a0,3104(v1)
    TMR4 = 0;               // Timer4 initial count 0;
9d003e8c:	3c03bf80 	lui	v1,0xbf80
9d003e90:	ac600c10 	sw	zero,3088(v1)
    T4CONbits.ON = 1;       // Turn on Timer4
9d003e94:	94430c00 	lhu	v1,3072(v0)
9d003e98:	24040001 	li	a0,1
9d003e9c:	7c837bc4 	ins	v1,a0,0xf,0x1
9d003ea0:	a4430c00 	sh	v1,3072(v0)
    IPC4bits.T4IP = 6;      // Priority
9d003ea4:	3c02bf88 	lui	v0,0xbf88
9d003ea8:	8c4310d0 	lw	v1,4304(v0)
9d003eac:	24050006 	li	a1,6
9d003eb0:	7ca32084 	ins	v1,a1,0x2,0x3
9d003eb4:	ac4310d0 	sw	v1,4304(v0)
    IFS0bits.T4IF = 0;      // Clear interrupt flag
9d003eb8:	3c02bf88 	lui	v0,0xbf88
9d003ebc:	8c431030 	lw	v1,4144(v0)
9d003ec0:	7c038404 	ins	v1,zero,0x10,0x1
9d003ec4:	ac431030 	sw	v1,4144(v0)
    IEC0bits.T4IE = 1;      // Enable interrupt
9d003ec8:	3c02bf88 	lui	v0,0xbf88
9d003ecc:	8c431060 	lw	v1,4192(v0)
9d003ed0:	7c838404 	ins	v1,a0,0x10,0x1
9d003ed4:	ac431060 	sw	v1,4192(v0)
	
	setMODE(IDLE);
9d003ed8:	0f402409 	jal	9d009024 <setMODE>
9d003edc:	00002021 	move	a0,zero

9d003ee0 <.LVL10>:
	TRISBbits.TRISB10 = 0;	// heartbeat pin
9d003ee0:	3c02bf88 	lui	v0,0xbf88
9d003ee4:	94436040 	lhu	v1,24640(v0)
9d003ee8:	7c035284 	ins	v1,zero,0xa,0x1
9d003eec:	a4436040 	sh	v1,24640(v0)
}
9d003ef0:	8fbf0014 	lw	ra,20(sp)
9d003ef4:	03e00008 	jr	ra
9d003ef8:	27bd0018 	addiu	sp,sp,24

9d003efc <load_trajectory>:

void load_trajectory(void)      // Load trajectory for tracking
{
9d003efc:	27bdffa8 	addiu	sp,sp,-88
9d003f00:	afbf0054 	sw	ra,84(sp)
9d003f04:	afb20050 	sw	s2,80(sp)
9d003f08:	afb1004c 	sw	s1,76(sp)
    int i, n;
    float data;
    char buffer[50];
    setN_client();      // Recieve number of samples from client
9d003f0c:	0f40241d 	jal	9d009074 <setN_client>
9d003f10:	afb00048 	sw	s0,72(sp)

9d003f14 <.LVL11>:
    n = getN();         // Determine number of samples
9d003f14:	0f40242d 	jal	9d0090b4 <getN>
9d003f18:	00000000 	nop

9d003f1c <.LVL12>:
    
    for (i = 0; i < n; i++)
9d003f1c:	18400011 	blez	v0,9d003f64 <.LVL16+0xc>
9d003f20:	00408821 	move	s1,v0
9d003f24:	00008021 	move	s0,zero
    {
        NU32_ReadUART3(buffer,50);          // Read reference position from client
        sscanf(buffer,"%f",&data);         	// Store position in data
9d003f28:	3c129d01 	lui	s2,0x9d01
9d003f2c:	2652b978 	addiu	s2,s2,-18056
    setN_client();      // Recieve number of samples from client
    n = getN();         // Determine number of samples
    
    for (i = 0; i < n; i++)
    {
        NU32_ReadUART3(buffer,50);          // Read reference position from client
9d003f30:	27a40014 	addiu	a0,sp,20
9d003f34:	0f402553 	jal	9d00954c <NU32_ReadUART3>
9d003f38:	24050032 	li	a1,50

9d003f3c <.LVL14>:
        sscanf(buffer,"%f",&data);         	// Store position in data
9d003f3c:	27a40014 	addiu	a0,sp,20
9d003f40:	02402821 	move	a1,s2
9d003f44:	0f402c5a 	jal	9d00b168 <_sscanf_cdfFnopuxX>
9d003f48:	27a60010 	addiu	a2,sp,16

9d003f4c <.LVL15>:
        write_reference_position(data, i);	// Write data to reference position array
9d003f4c:	8fa40010 	lw	a0,16(sp)
9d003f50:	0f402430 	jal	9d0090c0 <write_reference_position>
9d003f54:	02002821 	move	a1,s0

9d003f58 <.LVL16>:
    float data;
    char buffer[50];
    setN_client();      // Recieve number of samples from client
    n = getN();         // Determine number of samples
    
    for (i = 0; i < n; i++)
9d003f58:	26100001 	addiu	s0,s0,1
9d003f5c:	1611fff5 	bne	s0,s1,9d003f34 <.LVL12+0x18>
9d003f60:	27a40014 	addiu	a0,sp,20
        sscanf(buffer,"%f",&data);         	// Store position in data
        write_reference_position(data, i);	// Write data to reference position array
    }
	
	//
}
9d003f64:	8fbf0054 	lw	ra,84(sp)
9d003f68:	8fb20050 	lw	s2,80(sp)
9d003f6c:	8fb1004c 	lw	s1,76(sp)
9d003f70:	8fb00048 	lw	s0,72(sp)
9d003f74:	03e00008 	jr	ra
9d003f78:	27bd0058 	addiu	sp,sp,88

9d003f7c <PID_controller>:

float PID_controller(float reference, float actual)  // Calculate control effort
{
9d003f7c:	27bdffd0 	addiu	sp,sp,-48
9d003f80:	afbf002c 	sw	ra,44(sp)
9d003f84:	afb50028 	sw	s5,40(sp)
9d003f88:	afb40024 	sw	s4,36(sp)
9d003f8c:	afb30020 	sw	s3,32(sp)
9d003f90:	afb2001c 	sw	s2,28(sp)
9d003f94:	afb10018 	sw	s1,24(sp)
    static float Enew, Edot, u;
 
    Enew = reference - actual;              // Calculate error
9d003f98:	0f4022df 	jal	9d008b7c <__subsf3>
9d003f9c:	afb00014 	sw	s0,20(sp)
9d003fa0:	00408021 	move	s0,v0
    Eint = Eint + Enew;                     // Calculate intergral error
9d003fa4:	8f858034 	lw	a1,-32716(gp)
9d003fa8:	0f4022e1 	jal	9d008b84 <__addsf3>
9d003fac:	00402021 	move	a0,v0
9d003fb0:	af828034 	sw	v0,-32716(gp)
    Edot = Enew - Eold;                     // Calculate derivative error
9d003fb4:	8f938030 	lw	s3,-32720(gp)
    Eold = Enew;                            // Update old error
9d003fb8:	af908030 	sw	s0,-32720(gp)
    
    u = Kp*Enew + Ki*Eint + Kd*Edot;        // Calculate effort
9d003fbc:	8f858014 	lw	a1,-32748(gp)
9d003fc0:	8f95803c 	lw	s5,-32708(gp)
9d003fc4:	8f948034 	lw	s4,-32716(gp)
9d003fc8:	8f928010 	lw	s2,-32752(gp)
9d003fcc:	0f40257f 	jal	9d0095fc <__mulsf3>
9d003fd0:	02002021 	move	a0,s0
9d003fd4:	00408821 	move	s1,v0
9d003fd8:	02a02021 	move	a0,s5
9d003fdc:	0f40257f 	jal	9d0095fc <__mulsf3>
9d003fe0:	02802821 	move	a1,s4
9d003fe4:	02202021 	move	a0,s1
9d003fe8:	0f4022e1 	jal	9d008b84 <__addsf3>
9d003fec:	00402821 	move	a1,v0
9d003ff0:	00408821 	move	s1,v0
{
    static float Enew, Edot, u;
 
    Enew = reference - actual;              // Calculate error
    Eint = Eint + Enew;                     // Calculate intergral error
    Edot = Enew - Eold;                     // Calculate derivative error
9d003ff4:	02002021 	move	a0,s0
9d003ff8:	0f4022df 	jal	9d008b7c <__subsf3>
9d003ffc:	02602821 	move	a1,s3
    Eold = Enew;                            // Update old error
    
    u = Kp*Enew + Ki*Eint + Kd*Edot;        // Calculate effort
9d004000:	00402021 	move	a0,v0
9d004004:	0f40257f 	jal	9d0095fc <__mulsf3>
9d004008:	02402821 	move	a1,s2
9d00400c:	02202021 	move	a0,s1
9d004010:	0f4022e1 	jal	9d008b84 <__addsf3>
9d004014:	00402821 	move	a1,v0
9d004018:	00408021 	move	s0,v0
        
	
	
    if (u > 1.5)                           // Set max current (10 A)
9d00401c:	3c029d01 	lui	v0,0x9d01
9d004020:	8c44b97c 	lw	a0,-18052(v0)
9d004024:	0f402adf 	jal	9d00ab7c <__eqsf2>
9d004028:	02002821 	move	a1,s0
9d00402c:	04410005 	bgez	v0,9d004044 <PID_controller+0xc8>
9d004030:	02002021 	move	a0,s0
    {
        u = 1.5;
9d004034:	3c029d01 	lui	v0,0x9d01
9d004038:	8c42b97c 	lw	v0,-18052(v0)
9d00403c:	0b40101a 	j	9d004068 <PID_controller+0xec>
9d004040:	af82802c 	sw	v0,-32724(gp)
    }
    else if (u < -1.5)
9d004044:	3c029d01 	lui	v0,0x9d01
9d004048:	0f402adf 	jal	9d00ab7c <__eqsf2>
9d00404c:	8c45b980 	lw	a1,-18048(v0)
9d004050:	04400003 	bltz	v0,9d004060 <PID_controller+0xe4>
9d004054:	3c029d01 	lui	v0,0x9d01
    Enew = reference - actual;              // Calculate error
    Eint = Eint + Enew;                     // Calculate intergral error
    Edot = Enew - Eold;                     // Calculate derivative error
    Eold = Enew;                            // Update old error
    
    u = Kp*Enew + Ki*Eint + Kd*Edot;        // Calculate effort
9d004058:	0b40101a 	j	9d004068 <PID_controller+0xec>
9d00405c:	af90802c 	sw	s0,-32724(gp)
    {
        u = 1.5;
    }
    else if (u < -1.5)
    {
        u = -1.5;
9d004060:	8c42b980 	lw	v0,-18048(v0)
9d004064:	af82802c 	sw	v0,-32724(gp)
    }
        
	setCurrent(u);     // Update DAC to set new current value
9d004068:	0f401cff 	jal	9d0073fc <setCurrent>
9d00406c:	8f84802c 	lw	a0,-32724(gp)

9d004070 <.LVL31>:
	return u;
}
9d004070:	8f82802c 	lw	v0,-32724(gp)
9d004074:	8fbf002c 	lw	ra,44(sp)
9d004078:	8fb50028 	lw	s5,40(sp)
9d00407c:	8fb40024 	lw	s4,36(sp)
9d004080:	8fb30020 	lw	s3,32(sp)
9d004084:	8fb2001c 	lw	s2,28(sp)
9d004088:	8fb10018 	lw	s1,24(sp)
9d00408c:	8fb00014 	lw	s0,20(sp)
9d004090:	03e00008 	jr	ra
9d004094:	27bd0030 	addiu	sp,sp,48

9d004098 <PositionController>:


void __ISR(_TIMER_4_VECTOR, IPL6SOFT) PositionController(void)  // 1 kHz position interrupt
{
9d004098:	415de800 	rdpgpr	sp,sp
9d00409c:	401a7000 	mfc0	k0,c0_epc
9d0040a0:	401b6000 	mfc0	k1,c0_status
9d0040a4:	27bdff88 	addiu	sp,sp,-120
9d0040a8:	afba0074 	sw	k0,116(sp)
9d0040ac:	401a6002 	mfc0	k0,c0_srsctl
9d0040b0:	afbb0070 	sw	k1,112(sp)
9d0040b4:	afba006c 	sw	k0,108(sp)
9d0040b8:	7c1b7844 	ins	k1,zero,0x1,0xf
9d0040bc:	377b1800 	ori	k1,k1,0x1800
9d0040c0:	409b6000 	mtc0	k1,c0_status
9d0040c4:	afbf005c 	sw	ra,92(sp)
9d0040c8:	afb90058 	sw	t9,88(sp)
9d0040cc:	afb80054 	sw	t8,84(sp)
9d0040d0:	afb00050 	sw	s0,80(sp)
9d0040d4:	afaf004c 	sw	t7,76(sp)
9d0040d8:	afae0048 	sw	t6,72(sp)
9d0040dc:	afad0044 	sw	t5,68(sp)
9d0040e0:	afac0040 	sw	t4,64(sp)
9d0040e4:	afab003c 	sw	t3,60(sp)
9d0040e8:	afaa0038 	sw	t2,56(sp)
9d0040ec:	afa90034 	sw	t1,52(sp)
9d0040f0:	afa80030 	sw	t0,48(sp)
9d0040f4:	afa7002c 	sw	a3,44(sp)
9d0040f8:	afa60028 	sw	a2,40(sp)
9d0040fc:	afa50024 	sw	a1,36(sp)
9d004100:	afa40020 	sw	a0,32(sp)
9d004104:	afa3001c 	sw	v1,28(sp)
9d004108:	afa20018 	sw	v0,24(sp)
9d00410c:	afa10014 	sw	at,20(sp)
9d004110:	00001012 	mflo	v0
9d004114:	afa20064 	sw	v0,100(sp)
9d004118:	00001810 	mfhi	v1
9d00411c:	afa30060 	sw	v1,96(sp)
    static float actual_pos, u;
	static int i = 0;
	char buffer[50];
    
    switch (getMODE())
9d004120:	0f40241a 	jal	9d009068 <getMODE>
9d004124:	00000000 	nop

9d004128 <.LVL32>:
9d004128:	24030002 	li	v1,2
9d00412c:	1043001b 	beq	v0,v1,9d00419c <.LVL37+0x8>
9d004130:	24030003 	li	v1,3
9d004134:	10430037 	beq	v0,v1,9d004214 <.LVL45+0x10>
9d004138:	24030001 	li	v1,1
9d00413c:	14430049 	bne	v0,v1,9d004264 <.LVL50+0x10>
9d004140:	3c02bf88 	lui	v0,0xbf88
    {
        case HOLD:  // Hold desired angle
        {
            actual_pos = encoder_position();              // Read position from encoder
9d004144:	0f4026d6 	jal	9d009b58 <encoder_position>
9d004148:	00000000 	nop

9d00414c <.LVL33>:
9d00414c:	00408021 	move	s0,v0
9d004150:	af828028 	sw	v0,-32728(gp)
			if (actual_pos > 150 || actual_pos < -5)
9d004154:	3c029d01 	lui	v0,0x9d01
9d004158:	8c44b984 	lw	a0,-18044(v0)
9d00415c:	0f402adf 	jal	9d00ab7c <__eqsf2>
9d004160:	02002821 	move	a1,s0
9d004164:	04400006 	bltz	v0,9d004180 <.LVL33+0x34>
9d004168:	02002021 	move	a0,s0
9d00416c:	3c029d01 	lui	v0,0x9d01
9d004170:	0f402adf 	jal	9d00ab7c <__eqsf2>
9d004174:	8c45b988 	lw	a1,-18040(v0)
9d004178:	04410003 	bgez	v0,9d004188 <.LVL36>
9d00417c:	00000000 	nop
			{
				motor_off();
9d004180:	0f401d09 	jal	9d007424 <motor_off>
9d004184:	00000000 	nop

9d004188 <.LVL36>:
			}				
            PID_controller(desired_pos, actual_pos);    // Calculate control
9d004188:	8f848038 	lw	a0,-32712(gp)
9d00418c:	0f400fdf 	jal	9d003f7c <PID_controller>
9d004190:	8f858028 	lw	a1,-32728(gp)

9d004194 <.LVL37>:
            break;
9d004194:	0b401099 	j	9d004264 <.LVL50+0x10>
9d004198:	3c02bf88 	lui	v0,0xbf88
        }
		case TRACK: // Track reference trajectory
        {
            if (i == getN())    // Done tracking when index equals number of samples
9d00419c:	0f40242d 	jal	9d0090b4 <getN>
9d0041a0:	00000000 	nop

9d0041a4 <.LVL38>:
9d0041a4:	8f848024 	lw	a0,-32732(gp)
9d0041a8:	14440007 	bne	v0,a0,9d0041c8 <.LVL40+0x8>
9d0041ac:	00000000 	nop
            { 
                setMODE(HOLD);          // Hold final position
9d0041b0:	0f402409 	jal	9d009024 <setMODE>
9d0041b4:	24040001 	li	a0,1

9d0041b8 <.LVL39>:
                send_position_data();   // Send position data to client
9d0041b8:	0f402457 	jal	9d00915c <send_position_data>
9d0041bc:	00000000 	nop

9d0041c0 <.LVL40>:
9d0041c0:	0b401098 	j	9d004260 <.LVL50+0xc>
9d0041c4:	af808024 	sw	zero,-32732(gp)
                i = 0;                  // Reset index
            }
            else
            {
                desired_pos = get_reference_position(i);    	// Get desired position
9d0041c8:	0f402450 	jal	9d009140 <get_reference_position>
9d0041cc:	00000000 	nop

9d0041d0 <.LVL41>:
9d0041d0:	af828038 	sw	v0,-32712(gp)
                actual_pos = encoder_position();          		// Read actual position
9d0041d4:	0f4026d6 	jal	9d009b58 <encoder_position>
9d0041d8:	00000000 	nop

9d0041dc <.LVL42>:
9d0041dc:	af828028 	sw	v0,-32728(gp)
                write_actual_position(actual_pos, i);        	// Write actual position
9d0041e0:	00402021 	move	a0,v0
9d0041e4:	0f40243a 	jal	9d0090e8 <write_actual_position>
9d0041e8:	8f858024 	lw	a1,-32732(gp)

9d0041ec <.LVL43>:
                u = PID_controller(desired_pos, actual_pos);	// Calculate effort
9d0041ec:	8f848038 	lw	a0,-32712(gp)
9d0041f0:	0f400fdf 	jal	9d003f7c <PID_controller>
9d0041f4:	8f858028 	lw	a1,-32728(gp)

9d0041f8 <.LVL44>:
				write_current_control(u, i);					// Write control current
9d0041f8:	00402021 	move	a0,v0
9d0041fc:	0f402445 	jal	9d009114 <write_current_control>
9d004200:	8f858024 	lw	a1,-32732(gp)

9d004204 <.LVL45>:
                i++;                                          	// Increment index
9d004204:	8f828024 	lw	v0,-32732(gp)
9d004208:	24420001 	addiu	v0,v0,1
9d00420c:	0b401098 	j	9d004260 <.LVL50+0xc>
9d004210:	af828024 	sw	v0,-32732(gp)
            }
            break;
        }
		case LOOP:	// Loop reference trajectory
		{
		    desired_pos = get_reference_position(i);    	// Get desired position
9d004214:	0f402450 	jal	9d009140 <get_reference_position>
9d004218:	8f848024 	lw	a0,-32732(gp)

9d00421c <.LVL46>:
9d00421c:	af828038 	sw	v0,-32712(gp)
			actual_pos = encoder_position();          		// Read actual position
9d004220:	0f4026d6 	jal	9d009b58 <encoder_position>
9d004224:	00000000 	nop

9d004228 <.LVL47>:
9d004228:	af828028 	sw	v0,-32728(gp)
			u = PID_controller(desired_pos, actual_pos);	// Calculate effort
9d00422c:	8f848038 	lw	a0,-32712(gp)
9d004230:	0f400fdf 	jal	9d003f7c <PID_controller>
9d004234:	00402821 	move	a1,v0

9d004238 <.LVL48>:
			write_current_control(u, i);					// Write control current
9d004238:	00402021 	move	a0,v0
9d00423c:	0f402445 	jal	9d009114 <write_current_control>
9d004240:	8f858024 	lw	a1,-32732(gp)

9d004244 <.LVL49>:
			i++;											// Increment index
9d004244:	8f828024 	lw	v0,-32732(gp)
9d004248:	24420001 	addiu	v0,v0,1
            
			if (i == getN())
9d00424c:	0f40242d 	jal	9d0090b4 <getN>
9d004250:	af828024 	sw	v0,-32732(gp)

9d004254 <.LVL50>:
9d004254:	8f838024 	lw	v1,-32732(gp)
9d004258:	50430001 	beql	v0,v1,9d004260 <.LVL50+0xc>
9d00425c:	af808024 	sw	zero,-32732(gp)
            { 
                i = 0;                  // Reset index
            }
		}
    } 
    LATBbits.LATB10 = !(LATBbits.LATB10);
9d004260:	3c02bf88 	lui	v0,0xbf88
9d004264:	8c446060 	lw	a0,24672(v0)
9d004268:	38840400 	xori	a0,a0,0x400
9d00426c:	7c840280 	ext	a0,a0,0xa,0x1
9d004270:	94436060 	lhu	v1,24672(v0)
9d004274:	7c835284 	ins	v1,a0,0xa,0x1
9d004278:	a4436060 	sh	v1,24672(v0)
    IFS0bits.T4IF = 0;      // Clear interrupt flag
9d00427c:	3c02bf88 	lui	v0,0xbf88
9d004280:	8c431030 	lw	v1,4144(v0)
9d004284:	7c038404 	ins	v1,zero,0x10,0x1
9d004288:	ac431030 	sw	v1,4144(v0)
}
9d00428c:	8fa20064 	lw	v0,100(sp)
9d004290:	00400013 	mtlo	v0
9d004294:	8fa30060 	lw	v1,96(sp)
9d004298:	00600011 	mthi	v1
9d00429c:	8fbf005c 	lw	ra,92(sp)
9d0042a0:	8fb90058 	lw	t9,88(sp)
9d0042a4:	8fb80054 	lw	t8,84(sp)
9d0042a8:	8fb00050 	lw	s0,80(sp)
9d0042ac:	8faf004c 	lw	t7,76(sp)
9d0042b0:	8fae0048 	lw	t6,72(sp)
9d0042b4:	8fad0044 	lw	t5,68(sp)
9d0042b8:	8fac0040 	lw	t4,64(sp)
9d0042bc:	8fab003c 	lw	t3,60(sp)
9d0042c0:	8faa0038 	lw	t2,56(sp)
9d0042c4:	8fa90034 	lw	t1,52(sp)
9d0042c8:	8fa80030 	lw	t0,48(sp)
9d0042cc:	8fa7002c 	lw	a3,44(sp)
9d0042d0:	8fa60028 	lw	a2,40(sp)
9d0042d4:	8fa50024 	lw	a1,36(sp)
9d0042d8:	8fa40020 	lw	a0,32(sp)
9d0042dc:	8fa3001c 	lw	v1,28(sp)
9d0042e0:	8fa20018 	lw	v0,24(sp)
9d0042e4:	8fa10014 	lw	at,20(sp)
9d0042e8:	41606000 	di
9d0042ec:	000000c0 	ehb
9d0042f0:	8fba0074 	lw	k0,116(sp)
9d0042f4:	8fbb0070 	lw	k1,112(sp)
9d0042f8:	409a7000 	mtc0	k0,c0_epc
9d0042fc:	8fba006c 	lw	k0,108(sp)
9d004300:	27bd0078 	addiu	sp,sp,120
9d004304:	409a6002 	mtc0	k0,c0_srsctl
9d004308:	41dde800 	wrpgpr	sp,sp
9d00430c:	409b6000 	mtc0	k1,c0_status
9d004310:	42000018 	eret

Disassembly of section .dinit:

9d004314 <.dinit>:
9d004314:	a0000010 	sb	zero,16(zero)
9d004318:	00000004 	sllv	zero,zero,zero
9d00431c:	00000000 	nop
9d004320:	a0000014 	sb	zero,20(zero)
9d004324:	0000001c 	0x1c
9d004328:	00000000 	nop
9d00432c:	a0000000 	sb	zero,0(zero)
9d004330:	00000008 	jr	zero
9d004334:	00000001 	movf	zero,zero,$fcc0
9d004338:	40400000 	cfc0	zero,c0_index
9d00433c:	3f800000 	0x3f800000
9d004340:	a000003c 	sb	zero,60(zero)
9d004344:	00005e80 	sll	t3,zero,0x1a
9d004348:	00000000 	nop
9d00434c:	a0000030 	sb	zero,48(zero)
9d004350:	00000008 	jr	zero
9d004354:	00000000 	nop
9d004358:	a00062cc 	sb	zero,25292(zero)
9d00435c:	000000d4 	0xd4
9d004360:	00000001 	movf	zero,zero,$fcc0
9d004364:	a0006330 	sb	zero,25392(zero)
9d004368:	a000634c 	sb	zero,25420(zero)
9d00436c:	a0006368 	sb	zero,25448(zero)
9d004370:	a000632c 	sb	zero,25388(zero)
9d004374:	a00063a0 	sb	zero,25504(zero)
9d004378:	00000001 	movf	zero,zero,$fcc0
	...
9d0043c8:	ffffffff 	sdc3	$31,-1(ra)
9d0043cc:	ffffffff 	sdc3	$31,-1(ra)
9d0043d0:	00000000 	nop
9d0043d4:	00000040 	ssnop
9d0043d8:	00001009 	jalr	v0,zero
9d0043dc:	00000000 	nop
9d0043e0:	9d00bb38 	0x9d00bb38
9d0043e4:	ffffffff 	sdc3	$31,-1(ra)
	...
9d0043f4:	00011002 	srl	v0,at,0x0
9d0043f8:	00000000 	nop
9d0043fc:	9d00bb38 	0x9d00bb38
9d004400:	ffffffff 	sdc3	$31,-1(ra)
	...
9d004410:	00020002 	srl	zero,v0,0x0
9d004414:	00000000 	nop
9d004418:	9d00bb38 	0x9d00bb38
9d00441c:	fffffffd 	sdc3	$31,-3(ra)
	...
9d004438:	a00063a0 	sb	zero,25504(zero)
9d00443c:	00000088 	0x88
9d004440:	00000000 	nop
9d004444:	a0000008 	sb	zero,8(zero)
9d004448:	00000004 	sllv	zero,zero,zero
9d00444c:	00000001 	movf	zero,zero,$fcc0
9d004450:	a00062cc 	sb	zero,25292(zero)
9d004454:	a00064a0 	sb	zero,25760(zero)
9d004458:	00000004 	sllv	zero,zero,zero
9d00445c:	00000000 	nop
9d004460:	a0005ebc 	sb	zero,24252(zero)
9d004464:	00000410 	0x410
9d004468:	00000001 	movf	zero,zero,$fcc0
9d00446c:	ffffffff 	sdc3	$31,-1(ra)
9d004470:	00002000 	sll	a0,zero,0x0
	...
9d00447c:	a0005ec4 	sb	zero,24260(zero)
9d004480:	a0005ec4 	sb	zero,24260(zero)
9d004484:	a0005ecc 	sb	zero,24268(zero)
9d004488:	a0005ecc 	sb	zero,24268(zero)
9d00448c:	a0005ed4 	sb	zero,24276(zero)
9d004490:	a0005ed4 	sb	zero,24276(zero)
9d004494:	a0005edc 	sb	zero,24284(zero)
9d004498:	a0005edc 	sb	zero,24284(zero)
9d00449c:	a0005ee4 	sb	zero,24292(zero)
9d0044a0:	a0005ee4 	sb	zero,24292(zero)
9d0044a4:	a0005eec 	sb	zero,24300(zero)
9d0044a8:	a0005eec 	sb	zero,24300(zero)
9d0044ac:	a0005ef4 	sb	zero,24308(zero)
9d0044b0:	a0005ef4 	sb	zero,24308(zero)
9d0044b4:	a0005efc 	sb	zero,24316(zero)
9d0044b8:	a0005efc 	sb	zero,24316(zero)
9d0044bc:	a0005f04 	sb	zero,24324(zero)
9d0044c0:	a0005f04 	sb	zero,24324(zero)
9d0044c4:	a0005f0c 	sb	zero,24332(zero)
9d0044c8:	a0005f0c 	sb	zero,24332(zero)
9d0044cc:	a0005f14 	sb	zero,24340(zero)
9d0044d0:	a0005f14 	sb	zero,24340(zero)
9d0044d4:	a0005f1c 	sb	zero,24348(zero)
9d0044d8:	a0005f1c 	sb	zero,24348(zero)
9d0044dc:	a0005f24 	sb	zero,24356(zero)
9d0044e0:	a0005f24 	sb	zero,24356(zero)
9d0044e4:	a0005f2c 	sb	zero,24364(zero)
9d0044e8:	a0005f2c 	sb	zero,24364(zero)
9d0044ec:	a0005f34 	sb	zero,24372(zero)
9d0044f0:	a0005f34 	sb	zero,24372(zero)
9d0044f4:	a0005f3c 	sb	zero,24380(zero)
9d0044f8:	a0005f3c 	sb	zero,24380(zero)
9d0044fc:	a0005f44 	sb	zero,24388(zero)
9d004500:	a0005f44 	sb	zero,24388(zero)
9d004504:	a0005f4c 	sb	zero,24396(zero)
9d004508:	a0005f4c 	sb	zero,24396(zero)
9d00450c:	a0005f54 	sb	zero,24404(zero)
9d004510:	a0005f54 	sb	zero,24404(zero)
9d004514:	a0005f5c 	sb	zero,24412(zero)
9d004518:	a0005f5c 	sb	zero,24412(zero)
9d00451c:	a0005f64 	sb	zero,24420(zero)
9d004520:	a0005f64 	sb	zero,24420(zero)
9d004524:	a0005f6c 	sb	zero,24428(zero)
9d004528:	a0005f6c 	sb	zero,24428(zero)
9d00452c:	a0005f74 	sb	zero,24436(zero)
9d004530:	a0005f74 	sb	zero,24436(zero)
9d004534:	a0005f7c 	sb	zero,24444(zero)
9d004538:	a0005f7c 	sb	zero,24444(zero)
9d00453c:	a0005f84 	sb	zero,24452(zero)
9d004540:	a0005f84 	sb	zero,24452(zero)
9d004544:	a0005f8c 	sb	zero,24460(zero)
9d004548:	a0005f8c 	sb	zero,24460(zero)
9d00454c:	a0005f94 	sb	zero,24468(zero)
9d004550:	a0005f94 	sb	zero,24468(zero)
9d004554:	a0005f9c 	sb	zero,24476(zero)
9d004558:	a0005f9c 	sb	zero,24476(zero)
9d00455c:	a0005fa4 	sb	zero,24484(zero)
9d004560:	a0005fa4 	sb	zero,24484(zero)
9d004564:	a0005fac 	sb	zero,24492(zero)
9d004568:	a0005fac 	sb	zero,24492(zero)
9d00456c:	a0005fb4 	sb	zero,24500(zero)
9d004570:	a0005fb4 	sb	zero,24500(zero)
9d004574:	a0005fbc 	sb	zero,24508(zero)
9d004578:	a0005fbc 	sb	zero,24508(zero)
9d00457c:	a0005fc4 	sb	zero,24516(zero)
9d004580:	a0005fc4 	sb	zero,24516(zero)
9d004584:	a0005fcc 	sb	zero,24524(zero)
9d004588:	a0005fcc 	sb	zero,24524(zero)
9d00458c:	a0005fd4 	sb	zero,24532(zero)
9d004590:	a0005fd4 	sb	zero,24532(zero)
9d004594:	a0005fdc 	sb	zero,24540(zero)
9d004598:	a0005fdc 	sb	zero,24540(zero)
9d00459c:	a0005fe4 	sb	zero,24548(zero)
9d0045a0:	a0005fe4 	sb	zero,24548(zero)
9d0045a4:	a0005fec 	sb	zero,24556(zero)
9d0045a8:	a0005fec 	sb	zero,24556(zero)
9d0045ac:	a0005ff4 	sb	zero,24564(zero)
9d0045b0:	a0005ff4 	sb	zero,24564(zero)
9d0045b4:	a0005ffc 	sb	zero,24572(zero)
9d0045b8:	a0005ffc 	sb	zero,24572(zero)
9d0045bc:	a0006004 	sb	zero,24580(zero)
9d0045c0:	a0006004 	sb	zero,24580(zero)
9d0045c4:	a000600c 	sb	zero,24588(zero)
9d0045c8:	a000600c 	sb	zero,24588(zero)
9d0045cc:	a0006014 	sb	zero,24596(zero)
9d0045d0:	a0006014 	sb	zero,24596(zero)
9d0045d4:	a000601c 	sb	zero,24604(zero)
9d0045d8:	a000601c 	sb	zero,24604(zero)
9d0045dc:	a0006024 	sb	zero,24612(zero)
9d0045e0:	a0006024 	sb	zero,24612(zero)
9d0045e4:	a000602c 	sb	zero,24620(zero)
9d0045e8:	a000602c 	sb	zero,24620(zero)
9d0045ec:	a0006034 	sb	zero,24628(zero)
9d0045f0:	a0006034 	sb	zero,24628(zero)
9d0045f4:	a000603c 	sb	zero,24636(zero)
9d0045f8:	a000603c 	sb	zero,24636(zero)
9d0045fc:	a0006044 	sb	zero,24644(zero)
9d004600:	a0006044 	sb	zero,24644(zero)
9d004604:	a000604c 	sb	zero,24652(zero)
9d004608:	a000604c 	sb	zero,24652(zero)
9d00460c:	a0006054 	sb	zero,24660(zero)
9d004610:	a0006054 	sb	zero,24660(zero)
9d004614:	a000605c 	sb	zero,24668(zero)
9d004618:	a000605c 	sb	zero,24668(zero)
9d00461c:	a0006064 	sb	zero,24676(zero)
9d004620:	a0006064 	sb	zero,24676(zero)
9d004624:	a000606c 	sb	zero,24684(zero)
9d004628:	a000606c 	sb	zero,24684(zero)
9d00462c:	a0006074 	sb	zero,24692(zero)
9d004630:	a0006074 	sb	zero,24692(zero)
9d004634:	a000607c 	sb	zero,24700(zero)
9d004638:	a000607c 	sb	zero,24700(zero)
9d00463c:	a0006084 	sb	zero,24708(zero)
9d004640:	a0006084 	sb	zero,24708(zero)
9d004644:	a000608c 	sb	zero,24716(zero)
9d004648:	a000608c 	sb	zero,24716(zero)
9d00464c:	a0006094 	sb	zero,24724(zero)
9d004650:	a0006094 	sb	zero,24724(zero)
9d004654:	a000609c 	sb	zero,24732(zero)
9d004658:	a000609c 	sb	zero,24732(zero)
9d00465c:	a00060a4 	sb	zero,24740(zero)
9d004660:	a00060a4 	sb	zero,24740(zero)
9d004664:	a00060ac 	sb	zero,24748(zero)
9d004668:	a00060ac 	sb	zero,24748(zero)
9d00466c:	a00060b4 	sb	zero,24756(zero)
9d004670:	a00060b4 	sb	zero,24756(zero)
9d004674:	a00060bc 	sb	zero,24764(zero)
9d004678:	a00060bc 	sb	zero,24764(zero)
9d00467c:	a00060c4 	sb	zero,24772(zero)
9d004680:	a00060c4 	sb	zero,24772(zero)
9d004684:	a00060cc 	sb	zero,24780(zero)
9d004688:	a00060cc 	sb	zero,24780(zero)
9d00468c:	a00060d4 	sb	zero,24788(zero)
9d004690:	a00060d4 	sb	zero,24788(zero)
9d004694:	a00060dc 	sb	zero,24796(zero)
9d004698:	a00060dc 	sb	zero,24796(zero)
9d00469c:	a00060e4 	sb	zero,24804(zero)
9d0046a0:	a00060e4 	sb	zero,24804(zero)
9d0046a4:	a00060ec 	sb	zero,24812(zero)
9d0046a8:	a00060ec 	sb	zero,24812(zero)
9d0046ac:	a00060f4 	sb	zero,24820(zero)
9d0046b0:	a00060f4 	sb	zero,24820(zero)
9d0046b4:	a00060fc 	sb	zero,24828(zero)
9d0046b8:	a00060fc 	sb	zero,24828(zero)
9d0046bc:	a0006104 	sb	zero,24836(zero)
9d0046c0:	a0006104 	sb	zero,24836(zero)
9d0046c4:	a000610c 	sb	zero,24844(zero)
9d0046c8:	a000610c 	sb	zero,24844(zero)
9d0046cc:	a0006114 	sb	zero,24852(zero)
9d0046d0:	a0006114 	sb	zero,24852(zero)
9d0046d4:	a000611c 	sb	zero,24860(zero)
9d0046d8:	a000611c 	sb	zero,24860(zero)
9d0046dc:	a0006124 	sb	zero,24868(zero)
9d0046e0:	a0006124 	sb	zero,24868(zero)
9d0046e4:	a000612c 	sb	zero,24876(zero)
9d0046e8:	a000612c 	sb	zero,24876(zero)
9d0046ec:	a0006134 	sb	zero,24884(zero)
9d0046f0:	a0006134 	sb	zero,24884(zero)
9d0046f4:	a000613c 	sb	zero,24892(zero)
9d0046f8:	a000613c 	sb	zero,24892(zero)
9d0046fc:	a0006144 	sb	zero,24900(zero)
9d004700:	a0006144 	sb	zero,24900(zero)
9d004704:	a000614c 	sb	zero,24908(zero)
9d004708:	a000614c 	sb	zero,24908(zero)
9d00470c:	a0006154 	sb	zero,24916(zero)
9d004710:	a0006154 	sb	zero,24916(zero)
9d004714:	a000615c 	sb	zero,24924(zero)
9d004718:	a000615c 	sb	zero,24924(zero)
9d00471c:	a0006164 	sb	zero,24932(zero)
9d004720:	a0006164 	sb	zero,24932(zero)
9d004724:	a000616c 	sb	zero,24940(zero)
9d004728:	a000616c 	sb	zero,24940(zero)
9d00472c:	a0006174 	sb	zero,24948(zero)
9d004730:	a0006174 	sb	zero,24948(zero)
9d004734:	a000617c 	sb	zero,24956(zero)
9d004738:	a000617c 	sb	zero,24956(zero)
9d00473c:	a0006184 	sb	zero,24964(zero)
9d004740:	a0006184 	sb	zero,24964(zero)
9d004744:	a000618c 	sb	zero,24972(zero)
9d004748:	a000618c 	sb	zero,24972(zero)
9d00474c:	a0006194 	sb	zero,24980(zero)
9d004750:	a0006194 	sb	zero,24980(zero)
9d004754:	a000619c 	sb	zero,24988(zero)
9d004758:	a000619c 	sb	zero,24988(zero)
9d00475c:	a00061a4 	sb	zero,24996(zero)
9d004760:	a00061a4 	sb	zero,24996(zero)
9d004764:	a00061ac 	sb	zero,25004(zero)
9d004768:	a00061ac 	sb	zero,25004(zero)
9d00476c:	a00061b4 	sb	zero,25012(zero)
9d004770:	a00061b4 	sb	zero,25012(zero)
9d004774:	a00061bc 	sb	zero,25020(zero)
9d004778:	a00061bc 	sb	zero,25020(zero)
9d00477c:	a00061c4 	sb	zero,25028(zero)
9d004780:	a00061c4 	sb	zero,25028(zero)
9d004784:	a00061cc 	sb	zero,25036(zero)
9d004788:	a00061cc 	sb	zero,25036(zero)
9d00478c:	a00061d4 	sb	zero,25044(zero)
9d004790:	a00061d4 	sb	zero,25044(zero)
9d004794:	a00061dc 	sb	zero,25052(zero)
9d004798:	a00061dc 	sb	zero,25052(zero)
9d00479c:	a00061e4 	sb	zero,25060(zero)
9d0047a0:	a00061e4 	sb	zero,25060(zero)
9d0047a4:	a00061ec 	sb	zero,25068(zero)
9d0047a8:	a00061ec 	sb	zero,25068(zero)
9d0047ac:	a00061f4 	sb	zero,25076(zero)
9d0047b0:	a00061f4 	sb	zero,25076(zero)
9d0047b4:	a00061fc 	sb	zero,25084(zero)
9d0047b8:	a00061fc 	sb	zero,25084(zero)
9d0047bc:	a0006204 	sb	zero,25092(zero)
9d0047c0:	a0006204 	sb	zero,25092(zero)
9d0047c4:	a000620c 	sb	zero,25100(zero)
9d0047c8:	a000620c 	sb	zero,25100(zero)
9d0047cc:	a0006214 	sb	zero,25108(zero)
9d0047d0:	a0006214 	sb	zero,25108(zero)
9d0047d4:	a000621c 	sb	zero,25116(zero)
9d0047d8:	a000621c 	sb	zero,25116(zero)
9d0047dc:	a0006224 	sb	zero,25124(zero)
9d0047e0:	a0006224 	sb	zero,25124(zero)
9d0047e4:	a000622c 	sb	zero,25132(zero)
9d0047e8:	a000622c 	sb	zero,25132(zero)
9d0047ec:	a0006234 	sb	zero,25140(zero)
9d0047f0:	a0006234 	sb	zero,25140(zero)
9d0047f4:	a000623c 	sb	zero,25148(zero)
9d0047f8:	a000623c 	sb	zero,25148(zero)
9d0047fc:	a0006244 	sb	zero,25156(zero)
9d004800:	a0006244 	sb	zero,25156(zero)
9d004804:	a000624c 	sb	zero,25164(zero)
9d004808:	a000624c 	sb	zero,25164(zero)
9d00480c:	a0006254 	sb	zero,25172(zero)
9d004810:	a0006254 	sb	zero,25172(zero)
9d004814:	a000625c 	sb	zero,25180(zero)
9d004818:	a000625c 	sb	zero,25180(zero)
9d00481c:	a0006264 	sb	zero,25188(zero)
9d004820:	a0006264 	sb	zero,25188(zero)
9d004824:	a000626c 	sb	zero,25196(zero)
9d004828:	a000626c 	sb	zero,25196(zero)
9d00482c:	a0006274 	sb	zero,25204(zero)
9d004830:	a0006274 	sb	zero,25204(zero)
9d004834:	a000627c 	sb	zero,25212(zero)
9d004838:	a000627c 	sb	zero,25212(zero)
9d00483c:	a0006284 	sb	zero,25220(zero)
9d004840:	a0006284 	sb	zero,25220(zero)
9d004844:	a000628c 	sb	zero,25228(zero)
9d004848:	a000628c 	sb	zero,25228(zero)
9d00484c:	a0006294 	sb	zero,25236(zero)
9d004850:	a0006294 	sb	zero,25236(zero)
9d004854:	a000629c 	sb	zero,25244(zero)
9d004858:	a000629c 	sb	zero,25244(zero)
9d00485c:	a00062a4 	sb	zero,25252(zero)
9d004860:	a00062a4 	sb	zero,25252(zero)
9d004864:	a00062ac 	sb	zero,25260(zero)
9d004868:	a00062ac 	sb	zero,25260(zero)
9d00486c:	a00062b4 	sb	zero,25268(zero)
9d004870:	a00062b4 	sb	zero,25268(zero)
9d004874:	a00062bc 	sb	zero,25276(zero)
9d004878:	a00062bc 	sb	zero,25276(zero)
9d00487c:	a0006428 	sb	zero,25640(zero)
9d004880:	00000034 	teq	zero,zero
9d004884:	00000000 	nop
9d004888:	a0000038 	sb	zero,56(zero)
9d00488c:	00000004 	sllv	zero,zero,zero
9d004890:	00000000 	nop
9d004894:	a0006480 	sb	zero,25728(zero)
9d004898:	00000020 	add	zero,zero,zero
9d00489c:	00000001 	movf	zero,zero,$fcc0
9d0048a0:	00000000 	nop
9d0048a4:	ffffffff 	sdc3	$31,-1(ra)
	...
9d0048c0:	a00064a4 	sb	zero,25764(zero)
9d0048c4:	00000004 	sllv	zero,zero,zero
9d0048c8:	00000000 	nop
9d0048cc:	a000645c 	sb	zero,25692(zero)
9d0048d0:	00000024 	and	zero,zero,zero
9d0048d4:	00000000 	nop
9d0048d8:	a000000c 	sb	zero,12(zero)
9d0048dc:	00000004 	sllv	zero,zero,zero
9d0048e0:	00000001 	movf	zero,zero,$fcc0
9d0048e4:	00000002 	srl	zero,zero,0x0
9d0048e8:	00000000 	nop
9d0048ec:	22222222 	addi	v0,s1,8738
9d0048f0:	22222222 	addi	v0,s1,8738

Disassembly of section .text.realloc:

9d0048f4 <realloc>:
9d0048f4:	27bdffc8 	addiu	sp,sp,-56
9d0048f8:	afbf0034 	sw	ra,52(sp)
9d0048fc:	afbe0030 	sw	s8,48(sp)
9d004900:	afb7002c 	sw	s7,44(sp)
9d004904:	afb60028 	sw	s6,40(sp)
9d004908:	afb50024 	sw	s5,36(sp)
9d00490c:	afb40020 	sw	s4,32(sp)
9d004910:	afb3001c 	sw	s3,28(sp)
9d004914:	afb20018 	sw	s2,24(sp)
9d004918:	afb10014 	sw	s1,20(sp)
9d00491c:	afb00010 	sw	s0,16(sp)
9d004920:	108000e9 	beqz	a0,9d004cc8 <realloc+0x3d4>
9d004924:	00808021 	move	s0,a0
9d004928:	8c94fffc 	lw	s4,-4(a0)
9d00492c:	24a2000b 	addiu	v0,a1,11
9d004930:	2c430017 	sltiu	v1,v0,23
9d004934:	2493fff8 	addiu	s3,a0,-8
9d004938:	2411fffc 	li	s1,-4
9d00493c:	10600047 	beqz	v1,9d004a5c <realloc+0x168>
9d004940:	02918824 	and	s1,s4,s1
9d004944:	24030010 	li	v1,16
9d004948:	24120010 	li	s2,16
9d00494c:	0245102b 	sltu	v0,s2,a1
9d004950:	14400046 	bnez	v0,9d004a6c <realloc+0x178>
9d004954:	0223102a 	slt	v0,s1,v1
9d004958:	10400054 	beqz	v0,9d004aac <realloc+0x1b8>
9d00495c:	32950001 	andi	s5,s4,0x1
9d004960:	3c17a000 	lui	s7,0xa000
9d004964:	26f75ec4 	addiu	s7,s7,24260
9d004968:	8ee40008 	lw	a0,8(s7)
9d00496c:	02711021 	addu	v0,s3,s1
9d004970:	108200b9 	beq	a0,v0,9d004c58 <realloc+0x364>
9d004974:	2407fffe 	li	a3,-2
9d004978:	8c460004 	lw	a2,4(v0)
9d00497c:	00c73824 	and	a3,a2,a3
9d004980:	00473821 	addu	a3,v0,a3
9d004984:	8ce70004 	lw	a3,4(a3)
9d004988:	30e70001 	andi	a3,a3,0x1
9d00498c:	10e0005f 	beqz	a3,9d004b0c <realloc+0x218>
9d004990:	2407fffc 	li	a3,-4
9d004994:	00003021 	move	a2,zero
9d004998:	00001021 	move	v0,zero
9d00499c:	32950001 	andi	s5,s4,0x1
9d0049a0:	16a00075 	bnez	s5,9d004b78 <realloc+0x284>
9d0049a4:	2407fffc 	li	a3,-4
9d0049a8:	8e16fff8 	lw	s6,-8(s0)
9d0049ac:	0276b023 	subu	s6,s3,s6
9d0049b0:	8ec80004 	lw	t0,4(s6)
9d0049b4:	104000cd 	beqz	v0,9d004cec <realloc+0x3f8>
9d0049b8:	01073824 	and	a3,t0,a3
9d0049bc:	104400cd 	beq	v0,a0,9d004cf4 <realloc+0x400>
9d0049c0:	00f13821 	addu	a3,a3,s1
9d0049c4:	00c7b821 	addu	s7,a2,a3
9d0049c8:	02e3202a 	slt	a0,s7,v1
9d0049cc:	54800090 	bnezl	a0,9d004c10 <realloc+0x31c>
9d0049d0:	00e0b821 	move	s7,a3
9d0049d4:	8c43000c 	lw	v1,12(v0)
9d0049d8:	8c420008 	lw	v0,8(v0)
9d0049dc:	2626fffc 	addiu	a2,s1,-4
9d0049e0:	2cc40025 	sltiu	a0,a2,37
9d0049e4:	ac43000c 	sw	v1,12(v0)
9d0049e8:	ac620008 	sw	v0,8(v1)
9d0049ec:	8ec2000c 	lw	v0,12(s6)
9d0049f0:	8ec30008 	lw	v1,8(s6)
9d0049f4:	26d40008 	addiu	s4,s6,8
9d0049f8:	ac62000c 	sw	v0,12(v1)
9d0049fc:	1080008e 	beqz	a0,9d004c38 <realloc+0x344>
9d004a00:	ac430008 	sw	v1,8(v0)
9d004a04:	2cc20014 	sltiu	v0,a2,20
9d004a08:	14400009 	bnez	v0,9d004a30 <realloc+0x13c>
9d004a0c:	02801821 	move	v1,s4
9d004a10:	8e030000 	lw	v1,0(s0)
9d004a14:	2cc2001c 	sltiu	v0,a2,28
9d004a18:	aec30008 	sw	v1,8(s6)
9d004a1c:	8e030004 	lw	v1,4(s0)
9d004a20:	104000ed 	beqz	v0,9d004dd8 <realloc+0x4e4>
9d004a24:	aec3000c 	sw	v1,12(s6)
9d004a28:	26c30010 	addiu	v1,s6,16
9d004a2c:	26100008 	addiu	s0,s0,8
9d004a30:	8e020000 	lw	v0,0(s0)
9d004a34:	02e08821 	move	s1,s7
9d004a38:	ac620000 	sw	v0,0(v1)
9d004a3c:	8e020004 	lw	v0,4(s0)
9d004a40:	02c09821 	move	s3,s6
9d004a44:	ac620004 	sw	v0,4(v1)
9d004a48:	8e020008 	lw	v0,8(s0)
9d004a4c:	ac620008 	sw	v0,8(v1)
9d004a50:	8ed50004 	lw	s5,4(s6)
9d004a54:	0b4012ac 	j	9d004ab0 <realloc+0x1bc>
9d004a58:	32b50001 	andi	s5,s5,0x1
9d004a5c:	2412fff8 	li	s2,-8
9d004a60:	00529024 	and	s2,v0,s2
9d004a64:	0641ffb9 	bgez	s2,9d00494c <realloc+0x58>
9d004a68:	02401821 	move	v1,s2
9d004a6c:	2403000c 	li	v1,12
9d004a70:	3c02a000 	lui	v0,0xa000
9d004a74:	ac430038 	sw	v1,56(v0)
9d004a78:	00001021 	move	v0,zero
9d004a7c:	8fbf0034 	lw	ra,52(sp)
9d004a80:	8fbe0030 	lw	s8,48(sp)
9d004a84:	8fb7002c 	lw	s7,44(sp)
9d004a88:	8fb60028 	lw	s6,40(sp)
9d004a8c:	8fb50024 	lw	s5,36(sp)
9d004a90:	8fb40020 	lw	s4,32(sp)
9d004a94:	8fb3001c 	lw	s3,28(sp)
9d004a98:	8fb20018 	lw	s2,24(sp)
9d004a9c:	8fb10014 	lw	s1,20(sp)
9d004aa0:	8fb00010 	lw	s0,16(sp)
9d004aa4:	03e00008 	jr	ra
9d004aa8:	27bd0038 	addiu	sp,sp,56
9d004aac:	0200a021 	move	s4,s0
9d004ab0:	02321823 	subu	v1,s1,s2
9d004ab4:	2c650010 	sltiu	a1,v1,16
9d004ab8:	10a00023 	beqz	a1,9d004b48 <realloc+0x254>
9d004abc:	02722021 	addu	a0,s3,s2
9d004ac0:	02b1a825 	or	s5,s5,s1
9d004ac4:	ae750004 	sw	s5,4(s3)
9d004ac8:	02718821 	addu	s1,s3,s1
9d004acc:	8e220004 	lw	v0,4(s1)
9d004ad0:	34420001 	ori	v0,v0,0x1
9d004ad4:	ae220004 	sw	v0,4(s1)
9d004ad8:	02801021 	move	v0,s4
9d004adc:	8fbf0034 	lw	ra,52(sp)
9d004ae0:	8fbe0030 	lw	s8,48(sp)
9d004ae4:	8fb7002c 	lw	s7,44(sp)
9d004ae8:	8fb60028 	lw	s6,40(sp)
9d004aec:	8fb50024 	lw	s5,36(sp)
9d004af0:	8fb40020 	lw	s4,32(sp)
9d004af4:	8fb3001c 	lw	s3,28(sp)
9d004af8:	8fb20018 	lw	s2,24(sp)
9d004afc:	8fb10014 	lw	s1,20(sp)
9d004b00:	8fb00010 	lw	s0,16(sp)
9d004b04:	03e00008 	jr	ra
9d004b08:	27bd0038 	addiu	sp,sp,56
9d004b0c:	00c73024 	and	a2,a2,a3
9d004b10:	00d13821 	addu	a3,a2,s1
9d004b14:	00e3402a 	slt	t0,a3,v1
9d004b18:	1500ffa1 	bnez	t0,9d0049a0 <realloc+0xac>
9d004b1c:	32950001 	andi	s5,s4,0x1
9d004b20:	8c43000c 	lw	v1,12(v0)
9d004b24:	8c420008 	lw	v0,8(v0)
9d004b28:	ac43000c 	sw	v1,12(v0)
9d004b2c:	00e08821 	move	s1,a3
9d004b30:	ac620008 	sw	v0,8(v1)
9d004b34:	02321823 	subu	v1,s1,s2
9d004b38:	2c650010 	sltiu	a1,v1,16
9d004b3c:	14a0ffe0 	bnez	a1,9d004ac0 <realloc+0x1cc>
9d004b40:	0200a021 	move	s4,s0
9d004b44:	02722021 	addu	a0,s3,s2
9d004b48:	02b29025 	or	s2,s5,s2
9d004b4c:	34620001 	ori	v0,v1,0x1
9d004b50:	ae720004 	sw	s2,4(s3)
9d004b54:	00831821 	addu	v1,a0,v1
9d004b58:	ac820004 	sw	v0,4(a0)
9d004b5c:	8c620004 	lw	v0,4(v1)
9d004b60:	24840008 	addiu	a0,a0,8
9d004b64:	34420001 	ori	v0,v0,0x1
9d004b68:	0f4020ff 	jal	9d0083fc <free>
9d004b6c:	ac620004 	sw	v0,4(v1)
9d004b70:	0b4012b7 	j	9d004adc <realloc+0x1e8>
9d004b74:	02801021 	move	v0,s4
9d004b78:	0f400d37 	jal	9d0034dc <malloc>
9d004b7c:	00a02021 	move	a0,a1
9d004b80:	104000b0 	beqz	v0,9d004e44 <realloc+0x550>
9d004b84:	0040b021 	move	s6,v0
9d004b88:	2402fffe 	li	v0,-2
9d004b8c:	0282a024 	and	s4,s4,v0
9d004b90:	26c2fff8 	addiu	v0,s6,-8
9d004b94:	0274a021 	addu	s4,s3,s4
9d004b98:	10540089 	beq	v0,s4,9d004dc0 <realloc+0x4cc>
9d004b9c:	2626fffc 	addiu	a2,s1,-4
9d004ba0:	2cc20025 	sltiu	v0,a2,37
9d004ba4:	1040004c 	beqz	v0,9d004cd8 <realloc+0x3e4>
9d004ba8:	2cc20014 	sltiu	v0,a2,20
9d004bac:	50400034 	beqzl	v0,9d004c80 <realloc+0x38c>
9d004bb0:	8e040000 	lw	a0,0(s0)
9d004bb4:	02c01021 	move	v0,s6
9d004bb8:	02001821 	move	v1,s0
9d004bbc:	8c650000 	lw	a1,0(v1)
9d004bc0:	8c640004 	lw	a0,4(v1)
9d004bc4:	8c630008 	lw	v1,8(v1)
9d004bc8:	ac450000 	sw	a1,0(v0)
9d004bcc:	ac440004 	sw	a0,4(v0)
9d004bd0:	ac430008 	sw	v1,8(v0)
9d004bd4:	0f4020ff 	jal	9d0083fc <free>
9d004bd8:	02002021 	move	a0,s0
9d004bdc:	02c01021 	move	v0,s6
9d004be0:	8fbf0034 	lw	ra,52(sp)
9d004be4:	8fbe0030 	lw	s8,48(sp)
9d004be8:	8fb7002c 	lw	s7,44(sp)
9d004bec:	8fb60028 	lw	s6,40(sp)
9d004bf0:	8fb50024 	lw	s5,36(sp)
9d004bf4:	8fb40020 	lw	s4,32(sp)
9d004bf8:	8fb3001c 	lw	s3,28(sp)
9d004bfc:	8fb20018 	lw	s2,24(sp)
9d004c00:	8fb10014 	lw	s1,20(sp)
9d004c04:	8fb00010 	lw	s0,16(sp)
9d004c08:	03e00008 	jr	ra
9d004c0c:	27bd0038 	addiu	sp,sp,56
9d004c10:	02e3182a 	slt	v1,s7,v1
9d004c14:	1460ffd8 	bnez	v1,9d004b78 <realloc+0x284>
9d004c18:	2626fffc 	addiu	a2,s1,-4
9d004c1c:	8ec2000c 	lw	v0,12(s6)
9d004c20:	8ec30008 	lw	v1,8(s6)
9d004c24:	2cc40025 	sltiu	a0,a2,37
9d004c28:	ac62000c 	sw	v0,12(v1)
9d004c2c:	26d40008 	addiu	s4,s6,8
9d004c30:	1480ff74 	bnez	a0,9d004a04 <realloc+0x110>
9d004c34:	ac430008 	sw	v1,8(v0)
9d004c38:	02802021 	move	a0,s4
9d004c3c:	0f402cac 	jal	9d00b2b0 <memmove>
9d004c40:	02002821 	move	a1,s0
9d004c44:	8ed50004 	lw	s5,4(s6)
9d004c48:	02e08821 	move	s1,s7
9d004c4c:	32b50001 	andi	s5,s5,0x1
9d004c50:	0b4012ac 	j	9d004ab0 <realloc+0x1bc>
9d004c54:	02c09821 	move	s3,s6
9d004c58:	8c860004 	lw	a2,4(a0)
9d004c5c:	26470010 	addiu	a3,s2,16
9d004c60:	2402fffc 	li	v0,-4
9d004c64:	00c23024 	and	a2,a2,v0
9d004c68:	00d11021 	addu	v0,a2,s1
9d004c6c:	0047382a 	slt	a3,v0,a3
9d004c70:	50e0000b 	beqzl	a3,9d004ca0 <realloc+0x3ac>
9d004c74:	00521023 	subu	v0,v0,s2
9d004c78:	0b401267 	j	9d00499c <realloc+0xa8>
9d004c7c:	00801021 	move	v0,a0
9d004c80:	8e030004 	lw	v1,4(s0)
9d004c84:	2cc2001c 	sltiu	v0,a2,28
9d004c88:	aec40000 	sw	a0,0(s6)
9d004c8c:	10400042 	beqz	v0,9d004d98 <realloc+0x4a4>
9d004c90:	aec30004 	sw	v1,4(s6)
9d004c94:	26c20008 	addiu	v0,s6,8
9d004c98:	0b4012ef 	j	9d004bbc <realloc+0x2c8>
9d004c9c:	26030008 	addiu	v1,s0,8
9d004ca0:	02729821 	addu	s3,s3,s2
9d004ca4:	34420001 	ori	v0,v0,0x1
9d004ca8:	aef30008 	sw	s3,8(s7)
9d004cac:	ae620004 	sw	v0,4(s3)
9d004cb0:	8e03fffc 	lw	v1,-4(s0)
9d004cb4:	02001021 	move	v0,s0
9d004cb8:	30630001 	andi	v1,v1,0x1
9d004cbc:	02439025 	or	s2,s2,v1
9d004cc0:	0b4012b7 	j	9d004adc <realloc+0x1e8>
9d004cc4:	ae12fffc 	sw	s2,-4(s0)
9d004cc8:	0f400d37 	jal	9d0034dc <malloc>
9d004ccc:	00a02021 	move	a0,a1
9d004cd0:	0b4012b8 	j	9d004ae0 <realloc+0x1ec>
9d004cd4:	8fbf0034 	lw	ra,52(sp)
9d004cd8:	02c02021 	move	a0,s6
9d004cdc:	0f402cac 	jal	9d00b2b0 <memmove>
9d004ce0:	02002821 	move	a1,s0
9d004ce4:	0b4012f5 	j	9d004bd4 <realloc+0x2e0>
9d004ce8:	00000000 	nop
9d004cec:	0b401304 	j	9d004c10 <realloc+0x31c>
9d004cf0:	00f1b821 	addu	s7,a3,s1
9d004cf4:	00c7f021 	addu	s8,a2,a3
9d004cf8:	26420010 	addiu	v0,s2,16
9d004cfc:	03c2102a 	slt	v0,s8,v0
9d004d00:	5440ffc3 	bnezl	v0,9d004c10 <realloc+0x31c>
9d004d04:	00e0b821 	move	s7,a3
9d004d08:	8ec3000c 	lw	v1,12(s6)
9d004d0c:	8ec50008 	lw	a1,8(s6)
9d004d10:	2626fffc 	addiu	a2,s1,-4
9d004d14:	2cc20025 	sltiu	v0,a2,37
9d004d18:	aca3000c 	sw	v1,12(a1)
9d004d1c:	26c70008 	addiu	a3,s6,8
9d004d20:	10400043 	beqz	v0,9d004e30 <realloc+0x53c>
9d004d24:	ac650008 	sw	a1,8(v1)
9d004d28:	2cc20014 	sltiu	v0,a2,20
9d004d2c:	14400009 	bnez	v0,9d004d54 <realloc+0x460>
9d004d30:	00e01821 	move	v1,a3
9d004d34:	8e030000 	lw	v1,0(s0)
9d004d38:	2cc2001c 	sltiu	v0,a2,28
9d004d3c:	aec30008 	sw	v1,8(s6)
9d004d40:	8e030004 	lw	v1,4(s0)
9d004d44:	10400041 	beqz	v0,9d004e4c <realloc+0x558>
9d004d48:	aec3000c 	sw	v1,12(s6)
9d004d4c:	26c30010 	addiu	v1,s6,16
9d004d50:	26100008 	addiu	s0,s0,8
9d004d54:	8e020000 	lw	v0,0(s0)
9d004d58:	ac620000 	sw	v0,0(v1)
9d004d5c:	8e020004 	lw	v0,4(s0)
9d004d60:	ac620004 	sw	v0,4(v1)
9d004d64:	8e020008 	lw	v0,8(s0)
9d004d68:	ac620008 	sw	v0,8(v1)
9d004d6c:	03d21023 	subu	v0,s8,s2
9d004d70:	02d21821 	addu	v1,s6,s2
9d004d74:	34420001 	ori	v0,v0,0x1
9d004d78:	aee30008 	sw	v1,8(s7)
9d004d7c:	ac620004 	sw	v0,4(v1)
9d004d80:	8ec30004 	lw	v1,4(s6)
9d004d84:	00e01021 	move	v0,a3
9d004d88:	30630001 	andi	v1,v1,0x1
9d004d8c:	02439025 	or	s2,s2,v1
9d004d90:	0b4012b7 	j	9d004adc <realloc+0x1e8>
9d004d94:	aed20004 	sw	s2,4(s6)
9d004d98:	8e030008 	lw	v1,8(s0)
9d004d9c:	8e02000c 	lw	v0,12(s0)
9d004da0:	aec30008 	sw	v1,8(s6)
9d004da4:	aec2000c 	sw	v0,12(s6)
9d004da8:	24020024 	li	v0,36
9d004dac:	50c20014 	beql	a2,v0,9d004e00 <realloc+0x50c>
9d004db0:	8e030010 	lw	v1,16(s0)
9d004db4:	26c20010 	addiu	v0,s6,16
9d004db8:	0b4012ef 	j	9d004bbc <realloc+0x2c8>
9d004dbc:	26030010 	addiu	v1,s0,16
9d004dc0:	8ec3fffc 	lw	v1,-4(s6)
9d004dc4:	0200a021 	move	s4,s0
9d004dc8:	2402fffc 	li	v0,-4
9d004dcc:	00621024 	and	v0,v1,v0
9d004dd0:	0b4012ac 	j	9d004ab0 <realloc+0x1bc>
9d004dd4:	02228821 	addu	s1,s1,v0
9d004dd8:	8e020008 	lw	v0,8(s0)
9d004ddc:	aec20010 	sw	v0,16(s6)
9d004de0:	8e02000c 	lw	v0,12(s0)
9d004de4:	aec20014 	sw	v0,20(s6)
9d004de8:	24020024 	li	v0,36
9d004dec:	50c2000a 	beql	a2,v0,9d004e18 <realloc+0x524>
9d004df0:	8e020010 	lw	v0,16(s0)
9d004df4:	26c30018 	addiu	v1,s6,24
9d004df8:	0b40128c 	j	9d004a30 <realloc+0x13c>
9d004dfc:	26100010 	addiu	s0,s0,16
9d004e00:	8e040014 	lw	a0,20(s0)
9d004e04:	26c20018 	addiu	v0,s6,24
9d004e08:	aec30010 	sw	v1,16(s6)
9d004e0c:	26030018 	addiu	v1,s0,24
9d004e10:	0b4012ef 	j	9d004bbc <realloc+0x2c8>
9d004e14:	aec40014 	sw	a0,20(s6)
9d004e18:	26c30020 	addiu	v1,s6,32
9d004e1c:	aec20018 	sw	v0,24(s6)
9d004e20:	8e020014 	lw	v0,20(s0)
9d004e24:	26100018 	addiu	s0,s0,24
9d004e28:	0b40128c 	j	9d004a30 <realloc+0x13c>
9d004e2c:	aec2001c 	sw	v0,28(s6)
9d004e30:	00e02021 	move	a0,a3
9d004e34:	0f402cac 	jal	9d00b2b0 <memmove>
9d004e38:	02002821 	move	a1,s0
9d004e3c:	0b40135b 	j	9d004d6c <realloc+0x478>
9d004e40:	00403821 	move	a3,v0
9d004e44:	0b4012b7 	j	9d004adc <realloc+0x1e8>
9d004e48:	00001021 	move	v0,zero
9d004e4c:	8e020008 	lw	v0,8(s0)
9d004e50:	aec20010 	sw	v0,16(s6)
9d004e54:	8e02000c 	lw	v0,12(s0)
9d004e58:	aec20014 	sw	v0,20(s6)
9d004e5c:	24020024 	li	v0,36
9d004e60:	50c20004 	beql	a2,v0,9d004e74 <realloc+0x580>
9d004e64:	8e020010 	lw	v0,16(s0)
9d004e68:	26c30018 	addiu	v1,s6,24
9d004e6c:	0b401355 	j	9d004d54 <realloc+0x460>
9d004e70:	26100010 	addiu	s0,s0,16
9d004e74:	26c30020 	addiu	v1,s6,32
9d004e78:	aec20018 	sw	v0,24(s6)
9d004e7c:	8e020014 	lw	v0,20(s0)
9d004e80:	26100018 	addiu	s0,s0,24
9d004e84:	0b401355 	j	9d004d54 <realloc+0x460>
9d004e88:	aec2001c 	sw	v0,28(s6)

Disassembly of section .text._fconvert:

9d004e8c <_fconvert>:
9d004e8c:	27bdfda8 	addiu	sp,sp,-600
9d004e90:	afbf0254 	sw	ra,596(sp)
9d004e94:	afbe0250 	sw	s8,592(sp)
9d004e98:	afb7024c 	sw	s7,588(sp)
9d004e9c:	afb60248 	sw	s6,584(sp)
9d004ea0:	afb50244 	sw	s5,580(sp)
9d004ea4:	afb40240 	sw	s4,576(sp)
9d004ea8:	afb3023c 	sw	s3,572(sp)
9d004eac:	afb20238 	sw	s2,568(sp)
9d004eb0:	afb10234 	sw	s1,564(sp)
9d004eb4:	afb00230 	sw	s0,560(sp)
9d004eb8:	8fb50268 	lw	s5,616(sp)
9d004ebc:	afa40258 	sw	a0,600(sp)
9d004ec0:	00a02021 	move	a0,a1
9d004ec4:	afa60260 	sw	a2,608(sp)
9d004ec8:	00e0b821 	move	s7,a3
9d004ecc:	97a3026c 	lhu	v1,620(sp)
9d004ed0:	2402ffff 	li	v0,-1
9d004ed4:	12a2010c 	beq	s5,v0,9d005308 <_fconvert+0x47c>
9d004ed8:	afa30220 	sw	v1,544(sp)
9d004edc:	2aa20028 	slti	v0,s5,40
9d004ee0:	104000a3 	beqz	v0,9d005170 <_fconvert+0x2e4>
9d004ee4:	afa00224 	sw	zero,548(sp)
9d004ee8:	a3a00011 	sb	zero,17(sp)
9d004eec:	04810005 	bgez	a0,9d004f04 <_fconvert+0x78>
9d004ef0:	afa00228 	sw	zero,552(sp)
9d004ef4:	3c028000 	lui	v0,0x8000
9d004ef8:	00442026 	xor	a0,v0,a0
9d004efc:	2403002d 	li	v1,45
9d004f00:	afa30228 	sw	v1,552(sp)
9d004f04:	0f4029d0 	jal	9d00a740 <.LFE0>
9d004f08:	27a5021c 	addiu	a1,sp,540
9d004f0c:	0040b021 	move	s6,v0
9d004f10:	8fbe021c 	lw	s8,540(sp)
9d004f14:	00002821 	move	a1,zero
9d004f18:	0f402adf 	jal	9d00ab7c <__eqsf2>
9d004f1c:	03c02021 	move	a0,s8
9d004f20:	10400119 	beqz	v0,9d005388 <_fconvert+0x4fc>
9d004f24:	3c029d01 	lui	v0,0x9d01
9d004f28:	3c109d01 	lui	s0,0x9d01
9d004f2c:	8e12b544 	lw	s2,-19132(s0)
9d004f30:	8c54b548 	lw	s4,-19128(v0)
9d004f34:	00008821 	move	s1,zero
9d004f38:	27b00210 	addiu	s0,sp,528
9d004f3c:	02409821 	move	s3,s2
9d004f40:	03c02021 	move	a0,s8
9d004f44:	0f40237d 	jal	9d008df4 <__divsf3>
9d004f48:	02402821 	move	a1,s2
9d004f4c:	00402021 	move	a0,v0
9d004f50:	0f4029d0 	jal	9d00a740 <.LFE0>
9d004f54:	27a5021c 	addiu	a1,sp,540
9d004f58:	00402021 	move	a0,v0
9d004f5c:	02802821 	move	a1,s4
9d004f60:	0f4022e1 	jal	9d008b84 <__addsf3>
9d004f64:	afa20218 	sw	v0,536(sp)
9d004f68:	00402021 	move	a0,v0
9d004f6c:	0f40257f 	jal	9d0095fc <__mulsf3>
9d004f70:	02602821 	move	a1,s3
9d004f74:	0f402bdf 	jal	9d00af7c <__fixsfsi>
9d004f78:	00402021 	move	a0,v0
9d004f7c:	8fbe021c 	lw	s8,540(sp)
9d004f80:	2610ffff 	addiu	s0,s0,-1
9d004f84:	24420030 	addiu	v0,v0,48
9d004f88:	03c02021 	move	a0,s8
9d004f8c:	00002821 	move	a1,zero
9d004f90:	a2020001 	sb	v0,1(s0)
9d004f94:	0f402adf 	jal	9d00ab7c <__eqsf2>
9d004f98:	26310001 	addiu	s1,s1,1
9d004f9c:	1440ffe9 	bnez	v0,9d004f44 <_fconvert+0xb8>
9d004fa0:	03c02021 	move	a0,s8
9d004fa4:	24020066 	li	v0,102
9d004fa8:	8fa30260 	lw	v1,608(sp)
9d004fac:	14620038 	bne	v1,v0,9d005090 <_fconvert+0x204>
9d004fb0:	00009821 	move	s3,zero
9d004fb4:	12200077 	beqz	s1,9d005194 <_fconvert+0x308>
9d004fb8:	24020030 	li	v0,48
9d004fbc:	26020001 	addiu	v0,s0,1
9d004fc0:	27a50211 	addiu	a1,sp,529
9d004fc4:	0045182b 	sltu	v1,v0,a1
9d004fc8:	106000fd 	beqz	v1,9d0053c0 <_fconvert+0x534>
9d004fcc:	27b20012 	addiu	s2,sp,18
9d004fd0:	02401821 	move	v1,s2
9d004fd4:	80440000 	lb	a0,0(v0)
9d004fd8:	24630001 	addiu	v1,v1,1
9d004fdc:	24420001 	addiu	v0,v0,1
9d004fe0:	1445fffc 	bne	v0,a1,9d004fd4 <_fconvert+0x148>
9d004fe4:	a064ffff 	sb	a0,-1(v1)
9d004fe8:	03b08023 	subu	s0,sp,s0
9d004fec:	26100210 	addiu	s0,s0,528
9d004ff0:	02508021 	addu	s0,s2,s0
9d004ff4:	12a0006c 	beqz	s5,9d0051a8 <_fconvert+0x31c>
9d004ff8:	8fa30220 	lw	v1,544(sp)
9d004ffc:	02c02021 	move	a0,s6
9d005000:	00002821 	move	a1,zero
9d005004:	26130001 	addiu	s3,s0,1
9d005008:	2402002e 	li	v0,46
9d00500c:	0f402adf 	jal	9d00ab7c <__eqsf2>
9d005010:	a2020000 	sb	v0,0(s0)
9d005014:	104000b4 	beqz	v0,9d0052e8 <_fconvert+0x45c>
9d005018:	26a3ffff 	addiu	v1,s5,-1
9d00501c:	3c109d01 	lui	s0,0x9d01
9d005020:	0b40140e 	j	9d005038 <_fconvert+0x1ac>
9d005024:	8e11b544 	lw	s1,-19132(s0)
9d005028:	0f402adf 	jal	9d00ab7c <__eqsf2>
9d00502c:	00000000 	nop
9d005030:	104000ad 	beqz	v0,9d0052e8 <_fconvert+0x45c>
9d005034:	26a3ffff 	addiu	v1,s5,-1
9d005038:	02c02021 	move	a0,s6
9d00503c:	0f40257f 	jal	9d0095fc <__mulsf3>
9d005040:	02202821 	move	a1,s1
9d005044:	00402021 	move	a0,v0
9d005048:	0f4029d0 	jal	9d00a740 <.LFE0>
9d00504c:	27a50218 	addiu	a1,sp,536
9d005050:	0040b021 	move	s6,v0
9d005054:	8fa40218 	lw	a0,536(sp)
9d005058:	26730001 	addiu	s3,s3,1
9d00505c:	0f402bdf 	jal	9d00af7c <__fixsfsi>
9d005060:	26b5ffff 	addiu	s5,s5,-1
9d005064:	02c02021 	move	a0,s6
9d005068:	00002821 	move	a1,zero
9d00506c:	24420030 	addiu	v0,v0,48
9d005070:	16a0ffed 	bnez	s5,9d005028 <_fconvert+0x19c>
9d005074:	a262ffff 	sb	v0,-1(s3)
9d005078:	02c02021 	move	a0,s6
9d00507c:	0f402adf 	jal	9d00ab7c <__eqsf2>
9d005080:	00002821 	move	a1,zero
9d005084:	54400051 	bnezl	v0,9d0051cc <_fconvert+0x340>
9d005088:	8e05b544 	lw	a1,-19132(s0)
9d00508c:	02729823 	subu	s3,s3,s2
9d005090:	83a40011 	lb	a0,17(sp)
9d005094:	27a20011 	addiu	v0,sp,17
9d005098:	27a30012 	addiu	v1,sp,18
9d00509c:	0064100a 	movz	v0,v1,a0
9d0050a0:	8fa30228 	lw	v1,552(sp)
9d0050a4:	1060002a 	beqz	v1,9d005150 <_fconvert+0x2c4>
9d0050a8:	8fa40220 	lw	a0,544(sp)
9d0050ac:	2452ffff 	addiu	s2,v0,-1
9d0050b0:	a043ffff 	sb	v1,-1(v0)
9d0050b4:	26730001 	addiu	s3,s3,1
9d0050b8:	8fa30220 	lw	v1,544(sp)
9d0050bc:	30710008 	andi	s1,v1,0x8
9d0050c0:	3231ffff 	andi	s1,s1,0xffff
9d0050c4:	8fa30224 	lw	v1,548(sp)
9d0050c8:	16200004 	bnez	s1,9d0050dc <_fconvert+0x250>
9d0050cc:	02638021 	addu	s0,s3,v1
9d0050d0:	0217102a 	slt	v0,s0,s7
9d0050d4:	1440005a 	bnez	v0,9d005240 <_fconvert+0x3b4>
9d0050d8:	8fa30220 	lw	v1,544(sp)
9d0050dc:	02402021 	move	a0,s2
9d0050e0:	02602821 	move	a1,s3
9d0050e4:	0f402c92 	jal	9d00b248 <__sputn>
9d0050e8:	8fa60258 	lw	a2,600(sp)
9d0050ec:	2412ffff 	li	s2,-1
9d0050f0:	10520008 	beq	v0,s2,9d005114 <_fconvert+0x288>
9d0050f4:	8fa30224 	lw	v1,548(sp)
9d0050f8:	14600071 	bnez	v1,9d0052c0 <_fconvert+0x434>
9d0050fc:	8fa40258 	lw	a0,600(sp)
9d005100:	12200005 	beqz	s1,9d005118 <_fconvert+0x28c>
9d005104:	0217102a 	slt	v0,s0,s7
9d005108:	0217102a 	slt	v0,s0,s7
9d00510c:	14400081 	bnez	v0,9d005314 <_fconvert+0x488>
9d005110:	8fa40258 	lw	a0,600(sp)
9d005114:	0217102a 	slt	v0,s0,s7
9d005118:	0202b80a 	movz	s7,s0,v0
9d00511c:	02e01021 	move	v0,s7
9d005120:	8fbf0254 	lw	ra,596(sp)
9d005124:	8fbe0250 	lw	s8,592(sp)
9d005128:	8fb7024c 	lw	s7,588(sp)
9d00512c:	8fb60248 	lw	s6,584(sp)
9d005130:	8fb50244 	lw	s5,580(sp)
9d005134:	8fb40240 	lw	s4,576(sp)
9d005138:	8fb3023c 	lw	s3,572(sp)
9d00513c:	8fb20238 	lw	s2,568(sp)
9d005140:	8fb10234 	lw	s1,564(sp)
9d005144:	8fb00230 	lw	s0,560(sp)
9d005148:	03e00008 	jr	ra
9d00514c:	27bd0258 	addiu	sp,sp,600
9d005150:	30830002 	andi	v1,a0,0x2
9d005154:	10600052 	beqz	v1,9d0052a0 <_fconvert+0x414>
9d005158:	8fa40220 	lw	a0,544(sp)
9d00515c:	2452ffff 	addiu	s2,v0,-1
9d005160:	2403002b 	li	v1,43
9d005164:	a043ffff 	sb	v1,-1(v0)
9d005168:	0b40142e 	j	9d0050b8 <_fconvert+0x22c>
9d00516c:	26730001 	addiu	s3,s3,1
9d005170:	2403ffdf 	li	v1,-33
9d005174:	00c31824 	and	v1,a2,v1
9d005178:	24020047 	li	v0,71
9d00517c:	1062007d 	beq	v1,v0,9d005374 <_fconvert+0x4e8>
9d005180:	8fa30220 	lw	v1,544(sp)
9d005184:	26b5ffd9 	addiu	s5,s5,-39
9d005188:	afb50224 	sw	s5,548(sp)
9d00518c:	0b4013ba 	j	9d004ee8 <_fconvert+0x5c>
9d005190:	24150027 	li	s5,39
9d005194:	a3a20012 	sb	v0,18(sp)
9d005198:	27b00013 	addiu	s0,sp,19
9d00519c:	16a0ff97 	bnez	s5,9d004ffc <_fconvert+0x170>
9d0051a0:	27b20012 	addiu	s2,sp,18
9d0051a4:	8fa30220 	lw	v1,544(sp)
9d0051a8:	30620800 	andi	v0,v1,0x800
9d0051ac:	14400079 	bnez	v0,9d005394 <_fconvert+0x508>
9d0051b0:	02c02021 	move	a0,s6
9d0051b4:	0f402adf 	jal	9d00ab7c <__eqsf2>
9d0051b8:	00002821 	move	a1,zero
9d0051bc:	1040ffb3 	beqz	v0,9d00508c <_fconvert+0x200>
9d0051c0:	02009821 	move	s3,s0
9d0051c4:	3c109d01 	lui	s0,0x9d01
9d0051c8:	8e05b544 	lw	a1,-19132(s0)
9d0051cc:	02c02021 	move	a0,s6
9d0051d0:	0f40257f 	jal	9d0095fc <__mulsf3>
9d0051d4:	2670ffff 	addiu	s0,s3,-1
9d0051d8:	00402021 	move	a0,v0
9d0051dc:	0f4029d0 	jal	9d00a740 <.LFE0>
9d0051e0:	27a50214 	addiu	a1,sp,532
9d0051e4:	3c029d01 	lui	v0,0x9d01
9d0051e8:	8c44b54c 	lw	a0,-19124(v0)
9d0051ec:	0f402adf 	jal	9d00ab7c <__eqsf2>
9d0051f0:	8fa50214 	lw	a1,532(sp)
9d0051f4:	2404002e 	li	a0,46
9d0051f8:	0440000b 	bltz	v0,9d005228 <_fconvert+0x39c>
9d0051fc:	24050030 	li	a1,48
9d005200:	0b401424 	j	9d005090 <_fconvert+0x204>
9d005204:	02729823 	subu	s3,s3,s2
9d005208:	24420001 	addiu	v0,v0,1
9d00520c:	7c021420 	seb	v0,v0
9d005210:	2843003a 	slti	v1,v0,58
9d005214:	54600068 	bnezl	v1,9d0053b8 <_fconvert+0x52c>
9d005218:	a2020000 	sb	v0,0(s0)
9d00521c:	1212006a 	beq	s0,s2,9d0053c8 <_fconvert+0x53c>
9d005220:	a2050000 	sb	a1,0(s0)
9d005224:	2610ffff 	addiu	s0,s0,-1
9d005228:	82020000 	lb	v0,0(s0)
9d00522c:	5444fff7 	bnel	v0,a0,9d00520c <_fconvert+0x380>
9d005230:	24420001 	addiu	v0,v0,1
9d005234:	8202ffff 	lb	v0,-1(s0)
9d005238:	0b401482 	j	9d005208 <_fconvert+0x37c>
9d00523c:	2610ffff 	addiu	s0,s0,-1
9d005240:	30620004 	andi	v0,v1,0x4
9d005244:	8fa40258 	lw	a0,600(sp)
9d005248:	14400045 	bnez	v0,9d005360 <_fconvert+0x4d4>
9d00524c:	02f02823 	subu	a1,s7,s0
9d005250:	3c069d01 	lui	a2,0x9d01
9d005254:	0f402b06 	jal	9d00ac18 <repl>
9d005258:	24c6b524 	addiu	a2,a2,-19164
9d00525c:	2403ffff 	li	v1,-1
9d005260:	1443ff9e 	bne	v0,v1,9d0050dc <_fconvert+0x250>
9d005264:	0217102a 	slt	v0,s0,s7
9d005268:	0202b80a 	movz	s7,s0,v0
9d00526c:	02e01021 	move	v0,s7
9d005270:	8fbf0254 	lw	ra,596(sp)
9d005274:	8fbe0250 	lw	s8,592(sp)
9d005278:	8fb7024c 	lw	s7,588(sp)
9d00527c:	8fb60248 	lw	s6,584(sp)
9d005280:	8fb50244 	lw	s5,580(sp)
9d005284:	8fb40240 	lw	s4,576(sp)
9d005288:	8fb3023c 	lw	s3,572(sp)
9d00528c:	8fb20238 	lw	s2,568(sp)
9d005290:	8fb10234 	lw	s1,564(sp)
9d005294:	8fb00230 	lw	s0,560(sp)
9d005298:	03e00008 	jr	ra
9d00529c:	27bd0258 	addiu	sp,sp,600
9d0052a0:	30830001 	andi	v1,a0,0x1
9d0052a4:	1060ff84 	beqz	v1,9d0050b8 <_fconvert+0x22c>
9d0052a8:	00409021 	move	s2,v0
9d0052ac:	2452ffff 	addiu	s2,v0,-1
9d0052b0:	24030020 	li	v1,32
9d0052b4:	a043ffff 	sb	v1,-1(v0)
9d0052b8:	0b40142e 	j	9d0050b8 <_fconvert+0x22c>
9d0052bc:	26730001 	addiu	s3,s3,1
9d0052c0:	8fa50224 	lw	a1,548(sp)
9d0052c4:	3c069d01 	lui	a2,0x9d01
9d0052c8:	0f402b06 	jal	9d00ac18 <repl>
9d0052cc:	24c6b504 	addiu	a2,a2,-19196
9d0052d0:	1052ff91 	beq	v0,s2,9d005118 <_fconvert+0x28c>
9d0052d4:	0217102a 	slt	v0,s0,s7
9d0052d8:	5620ff8c 	bnezl	s1,9d00510c <_fconvert+0x280>
9d0052dc:	0217102a 	slt	v0,s0,s7
9d0052e0:	0b401447 	j	9d00511c <_fconvert+0x290>
9d0052e4:	0202b80a 	movz	s7,s0,v0
9d0052e8:	24630001 	addiu	v1,v1,1
9d0052ec:	02631821 	addu	v1,s3,v1
9d0052f0:	24020030 	li	v0,48
9d0052f4:	26730001 	addiu	s3,s3,1
9d0052f8:	1663fffe 	bne	s3,v1,9d0052f4 <_fconvert+0x468>
9d0052fc:	a262ffff 	sb	v0,-1(s3)
9d005300:	0b401424 	j	9d005090 <_fconvert+0x204>
9d005304:	02729823 	subu	s3,s3,s2
9d005308:	afa00224 	sw	zero,548(sp)
9d00530c:	0b4013ba 	j	9d004ee8 <_fconvert+0x5c>
9d005310:	24150006 	li	s5,6
9d005314:	02f02823 	subu	a1,s7,s0
9d005318:	3c069d01 	lui	a2,0x9d01
9d00531c:	0f402b06 	jal	9d00ac18 <repl>
9d005320:	24c6b524 	addiu	a2,a2,-19164
9d005324:	0217102a 	slt	v0,s0,s7
9d005328:	0202b80a 	movz	s7,s0,v0
9d00532c:	02e01021 	move	v0,s7
9d005330:	8fbf0254 	lw	ra,596(sp)
9d005334:	8fbe0250 	lw	s8,592(sp)
9d005338:	8fb7024c 	lw	s7,588(sp)
9d00533c:	8fb60248 	lw	s6,584(sp)
9d005340:	8fb50244 	lw	s5,580(sp)
9d005344:	8fb40240 	lw	s4,576(sp)
9d005348:	8fb3023c 	lw	s3,572(sp)
9d00534c:	8fb20238 	lw	s2,568(sp)
9d005350:	8fb10234 	lw	s1,564(sp)
9d005354:	8fb00230 	lw	s0,560(sp)
9d005358:	03e00008 	jr	ra
9d00535c:	27bd0258 	addiu	sp,sp,600
9d005360:	3c069d01 	lui	a2,0x9d01
9d005364:	0f402b06 	jal	9d00ac18 <repl>
9d005368:	24c6b504 	addiu	a2,a2,-19196
9d00536c:	0b401498 	j	9d005260 <_fconvert+0x3d4>
9d005370:	2403ffff 	li	v1,-1
9d005374:	30620800 	andi	v0,v1,0x800
9d005378:	5440ff83 	bnezl	v0,9d005188 <_fconvert+0x2fc>
9d00537c:	26b5ffd9 	addiu	s5,s5,-39
9d005380:	0b4013ba 	j	9d004ee8 <_fconvert+0x5c>
9d005384:	24150027 	li	s5,39
9d005388:	00008821 	move	s1,zero
9d00538c:	0b4013e9 	j	9d004fa4 <_fconvert+0x118>
9d005390:	27b00210 	addiu	s0,sp,528
9d005394:	00002821 	move	a1,zero
9d005398:	26130001 	addiu	s3,s0,1
9d00539c:	2402002e 	li	v0,46
9d0053a0:	0f402adf 	jal	9d00ab7c <__eqsf2>
9d0053a4:	a2020000 	sb	v0,0(s0)
9d0053a8:	5440ff87 	bnezl	v0,9d0051c8 <_fconvert+0x33c>
9d0053ac:	3c109d01 	lui	s0,0x9d01
9d0053b0:	0b401424 	j	9d005090 <_fconvert+0x204>
9d0053b4:	02729823 	subu	s3,s3,s2
9d0053b8:	0b401424 	j	9d005090 <_fconvert+0x204>
9d0053bc:	02729823 	subu	s3,s3,s2
9d0053c0:	0b4013fd 	j	9d004ff4 <_fconvert+0x168>
9d0053c4:	02408021 	move	s0,s2
9d0053c8:	24020031 	li	v0,49
9d0053cc:	a3a20011 	sb	v0,17(sp)
9d0053d0:	27b20011 	addiu	s2,sp,17
9d0053d4:	0b401424 	j	9d005090 <_fconvert+0x204>
9d0053d8:	02729823 	subu	s3,s3,s2

Disassembly of section .text.dp32mul:

9d0053dc <__divdf3>:
9d0053dc:	00055040 000a5542 00054ac0 00047d42     @P..BU...J..B}..
9d0053ec:	012f4825 000442c0 3c0e8000 012e4825     %H/..B.....<%H..
9d0053fc:	00076840 000d6d42 000762c0 00067d42     @h..Bm...b..B}..
9d00540c:	018f6025 00065ac0 018e6025 00a72826     %`...Z..%`..&(..
9d00541c:	00ae2824 254fffff 2de107fe 102000cb     $(....O%...-.. .
9d00542c:	00000000                                ....

9d005430 <Dlab1>:
9d005430:	25afffff 	addiu	t7,t5,-1
9d005434:	2de107fe 	sltiu	at,t7,2046
9d005438:	102000f4 	beqz	at,9d00580c <DspecB>
9d00543c:	00000000 	nop

9d005440 <Dlab2>:
9d005440:	014d5023 	subu	t2,t2,t5
9d005444:	254a03ff 	addiu	t2,t2,1023
9d005448:	00084042 	srl	t0,t0,0x1
9d00544c:	00097fc0 	sll	t7,t1,0x1f
9d005450:	010f4025 	or	t0,t0,t7
9d005454:	00094842 	srl	t1,t1,0x1
9d005458:	000c3c02 	srl	a3,t4,0x10
9d00545c:	00e001f4 	teq	a3,zero,0x7
9d005460:	0127001b 	divu	zero,t1,a3
9d005464:	00007012 	mflo	t6
9d005468:	00004810 	mfhi	t1
9d00546c:	3186ffff 	andi	a2,t4,0xffff
9d005470:	00ce0019 	multu	a2,t6
9d005474:	00002012 	mflo	a0
9d005478:	00094c00 	sll	t1,t1,0x10
9d00547c:	00087c02 	srl	t7,t0,0x10
9d005480:	012f4825 	or	t1,t1,t7
9d005484:	0124782b 	sltu	t7,t1,a0
9d005488:	11e00006 	beqz	t7,9d0054a4 <i20>
9d00548c:	01244823 	subu	t1,t1,a0

9d005490 <b21>:
9d005490:	25ceffff 	addiu	t6,t6,-1
9d005494:	012c4821 	addu	t1,t1,t4
9d005498:	012c082b 	sltu	at,t1,t4
9d00549c:	1020fffc 	beqz	at,9d005490 <b21>
9d0054a0:	00000000 	nop

9d0054a4 <i20>:
9d0054a4:	00e001f4 	teq	a3,zero,0x7
9d0054a8:	0127001b 	divu	zero,t1,a3
9d0054ac:	00003812 	mflo	a3
9d0054b0:	00004810 	mfhi	t1
9d0054b4:	00c70019 	multu	a2,a3
9d0054b8:	00002012 	mflo	a0
9d0054bc:	00094c00 	sll	t1,t1,0x10
9d0054c0:	310fffff 	andi	t7,t0,0xffff
9d0054c4:	012f4825 	or	t1,t1,t7
9d0054c8:	0124782b 	sltu	t7,t1,a0
9d0054cc:	11e00006 	beqz	t7,9d0054e8 <i22>
9d0054d0:	01244823 	subu	t1,t1,a0

9d0054d4 <b23>:
9d0054d4:	24e7ffff 	addiu	a3,a3,-1
9d0054d8:	012c4821 	addu	t1,t1,t4
9d0054dc:	012c082b 	sltu	at,t1,t4
9d0054e0:	1020fffc 	beqz	at,9d0054d4 <b23>
9d0054e4:	00000000 	nop

9d0054e8 <i22>:
9d0054e8:	000e7400 	sll	t6,t6,0x10
9d0054ec:	01c77021 	addu	t6,t6,a3
9d0054f0:	01cb0019 	multu	t6,t3
9d0054f4:	00003812 	mflo	a3
9d0054f8:	00002010 	mfhi	a0
9d0054fc:	24080000 	li	t0,0
9d005500:	0107782b 	sltu	t7,t0,a3
9d005504:	01074023 	subu	t0,t0,a3
9d005508:	012f102b 	sltu	v0,t1,t7
9d00550c:	012f4823 	subu	t1,t1,t7
9d005510:	0124782b 	sltu	t7,t1,a0
9d005514:	01e27825 	or	t7,t7,v0
9d005518:	11e0000b 	beqz	t7,9d005548 <i24>
9d00551c:	01244823 	subu	t1,t1,a0

9d005520 <Dlab3>:
9d005520:	25ceffff 	addiu	t6,t6,-1
9d005524:	010b4021 	addu	t0,t0,t3
9d005528:	010b782b 	sltu	t7,t0,t3
9d00552c:	012c4821 	addu	t1,t1,t4
9d005530:	012f4821 	addu	t1,t1,t7
9d005534:	112c0002 	beq	t1,t4,9d005540 <L31>
9d005538:	00000000 	nop
9d00553c:	012c782b 	sltu	t7,t1,t4

9d005540 <L31>:
9d005540:	11e0fff7 	beqz	t7,9d005520 <Dlab3>
9d005544:	00000000 	nop

9d005548 <i24>:
9d005548:	152c0006 	bne	t1,t4,9d005564 <i25>
9d00554c:	00000000 	nop
9d005550:	000b2025 	or	a0,zero,t3
9d005554:	00084825 	or	t1,zero,t0
9d005558:	240d0000 	li	t5,0
9d00555c:	1000002a 	b	9d005608 <e25>
9d005560:	000d3825 	or	a3,zero,t5

9d005564 <i25>:
9d005564:	000c3c02 	srl	a3,t4,0x10
9d005568:	00e001f4 	teq	a3,zero,0x7
9d00556c:	0127001b 	divu	zero,t1,a3
9d005570:	00006812 	mflo	t5
9d005574:	00004810 	mfhi	t1
9d005578:	3186ffff 	andi	a2,t4,0xffff
9d00557c:	00cd0019 	multu	a2,t5
9d005580:	00002012 	mflo	a0
9d005584:	00094c00 	sll	t1,t1,0x10
9d005588:	00087c02 	srl	t7,t0,0x10
9d00558c:	012f4825 	or	t1,t1,t7
9d005590:	0124782b 	sltu	t7,t1,a0
9d005594:	11e00006 	beqz	t7,9d0055b0 <i26>
9d005598:	01244823 	subu	t1,t1,a0

9d00559c <b27>:
9d00559c:	25adffff 	addiu	t5,t5,-1
9d0055a0:	012c4821 	addu	t1,t1,t4
9d0055a4:	012c082b 	sltu	at,t1,t4
9d0055a8:	1020fffc 	beqz	at,9d00559c <b27>
9d0055ac:	00000000 	nop

9d0055b0 <i26>:
9d0055b0:	00e001f4 	teq	a3,zero,0x7
9d0055b4:	0127001b 	divu	zero,t1,a3
9d0055b8:	00003812 	mflo	a3
9d0055bc:	00004810 	mfhi	t1
9d0055c0:	00c70019 	multu	a2,a3
9d0055c4:	00002012 	mflo	a0
9d0055c8:	00094c00 	sll	t1,t1,0x10
9d0055cc:	310fffff 	andi	t7,t0,0xffff
9d0055d0:	012f4825 	or	t1,t1,t7
9d0055d4:	0124782b 	sltu	t7,t1,a0
9d0055d8:	11e00006 	beqz	t7,9d0055f4 <i28>
9d0055dc:	01244823 	subu	t1,t1,a0

9d0055e0 <b29>:
9d0055e0:	24e7ffff 	addiu	a3,a3,-1
9d0055e4:	012c4821 	addu	t1,t1,t4
9d0055e8:	012c082b 	sltu	at,t1,t4
9d0055ec:	1020fffc 	beqz	at,9d0055e0 <b29>
9d0055f0:	00000000 	nop

9d0055f4 <i28>:
9d0055f4:	000d6c00 	sll	t5,t5,0x10
9d0055f8:	01a76821 	addu	t5,t5,a3
9d0055fc:	01ab0019 	multu	t5,t3
9d005600:	00003812 	mflo	a3
9d005604:	00002010 	mfhi	a0

9d005608 <e25>:
9d005608:	24080000 	li	t0,0
9d00560c:	0107782b 	sltu	t7,t0,a3
9d005610:	01074023 	subu	t0,t0,a3
9d005614:	012f102b 	sltu	v0,t1,t7
9d005618:	012f4823 	subu	t1,t1,t7
9d00561c:	0124782b 	sltu	t7,t1,a0
9d005620:	01e27825 	or	t7,t7,v0
9d005624:	11e0000b 	beqz	t7,9d005654 <i30>
9d005628:	01244823 	subu	t1,t1,a0

9d00562c <Dlab4>:
9d00562c:	25adffff 	addiu	t5,t5,-1
9d005630:	010b4021 	addu	t0,t0,t3
9d005634:	010b782b 	sltu	t7,t0,t3
9d005638:	012c4821 	addu	t1,t1,t4
9d00563c:	012f4821 	addu	t1,t1,t7
9d005640:	112c0002 	beq	t1,t4,9d00564c <L32>
9d005644:	00000000 	nop
9d005648:	012c782b 	sltu	t7,t1,t4

9d00564c <L32>:
9d00564c:	11e0fff7 	beqz	t7,9d00562c <Dlab4>
9d005650:	00000000 	nop

9d005654 <i30>:
9d005654:	05c00006 	bltz	t6,9d005670 <i31>
9d005658:	00000000 	nop
9d00565c:	01a0782a 	slt	t7,t5,zero
9d005660:	01ad6821 	addu	t5,t5,t5
9d005664:	01ce7021 	addu	t6,t6,t6
9d005668:	01cf7021 	addu	t6,t6,t7
9d00566c:	254affff 	addiu	t2,t2,-1

9d005670 <i31>:
9d005670:	01287825 	or	t7,t1,t0
9d005674:	11e00002 	beqz	t7,9d005680 <i32>
9d005678:	00000000 	nop
9d00567c:	35ad0001 	ori	t5,t5,0x1

9d005680 <i32>:
9d005680:	000e4825 	or	t1,zero,t6
9d005684:	000d4025 	or	t0,zero,t5
9d005688:	254fffff 	addiu	t7,t2,-1
9d00568c:	2de107fe 	sltiu	at,t7,2046
9d005690:	10200015 	beqz	at,9d0056e8 <Doveund>
9d005694:	00000000 	nop
9d005698:	25080400 	addiu	t0,t0,1024
9d00569c:	2d0f0400 	sltiu	t7,t0,1024
9d0056a0:	012f4821 	addu	t1,t1,t7
9d0056a4:	012f782b 	sltu	t7,t1,t7
9d0056a8:	014f5021 	addu	t2,t2,t7

9d0056ac <Dlab8>:
9d0056ac:	00087ac2 	srl	t7,t0,0xb
9d0056b0:	31ef0001 	andi	t7,t7,0x1
9d0056b4:	010f4023 	subu	t0,t0,t7
9d0056b8:	000822c2 	srl	a0,t0,0xb
9d0056bc:	00097d40 	sll	t7,t1,0x15
9d0056c0:	008f2025 	or	a0,a0,t7
9d0056c4:	00097840 	sll	t7,t1,0x1
9d0056c8:	000f7b02 	srl	t7,t7,0xc
9d0056cc:	00af2825 	or	a1,a1,t7
9d0056d0:	000a7d00 	sll	t7,t2,0x14
9d0056d4:	00af2825 	or	a1,a1,t7

9d0056d8 <Dret>:
9d0056d8:	00041025 	or	v0,zero,a0
9d0056dc:	00051825 	or	v1,zero,a1

9d0056e0 <D999>:
9d0056e0:	03e00008 	jr	ra
9d0056e4:	00000000 	nop

9d0056e8 <Doveund>:
9d0056e8:	1d400044 	bgtz	t2,9d0057fc <Dinf>
9d0056ec:	00000000 	nop
9d0056f0:	240e0001 	li	t6,1
9d0056f4:	01ca7023 	subu	t6,t6,t2

9d0056f8 <L33>:
9d0056f8:	2dc10020 	sltiu	at,t6,32
9d0056fc:	14200007 	bnez	at,9d00571c <L34>
9d005700:	00000000 	nop
9d005704:	21ceffe0 	addi	t6,t6,-32
9d005708:	0008202b 	sltu	a0,zero,t0
9d00570c:	1009000d 	beq	zero,t1,9d005744 <L35>
9d005710:	01244025 	or	t0,t1,a0
9d005714:	1000fff8 	b	9d0056f8 <L33>
9d005718:	34090000 	li	t1,0x0

9d00571c <L34>:
9d00571c:	11c00009 	beqz	t6,9d005744 <L35>
9d005720:	00000000 	nop
9d005724:	000e3022 	neg	a2,t6
9d005728:	00c82004 	sllv	a0,t0,a2
9d00572c:	00c93004 	sllv	a2,t1,a2
9d005730:	01c84006 	srlv	t0,t0,t6
9d005734:	01c94806 	srlv	t1,t1,t6
9d005738:	10800002 	beqz	a0,9d005744 <L35>
9d00573c:	00c84025 	or	t0,a2,t0
9d005740:	35080002 	ori	t0,t0,0x2

9d005744 <L35>:
9d005744:	25080400 	addiu	t0,t0,1024
9d005748:	2d0f0400 	sltiu	t7,t0,1024
9d00574c:	012f4821 	addu	t1,t1,t7
9d005750:	1000ffd6 	b	9d0056ac <Dlab8>
9d005754:	000957c2 	srl	t2,t1,0x1f

9d005758 <DspecA>:
9d005758:	0100782a 	slt	t7,t0,zero
9d00575c:	01084021 	addu	t0,t0,t0
9d005760:	01294821 	addu	t1,t1,t1
9d005764:	15400017 	bnez	t2,9d0057c4 <i33>
9d005768:	012f4821 	addu	t1,t1,t7
9d00576c:	01287825 	or	t7,t1,t0
9d005770:	11e00014 	beqz	t7,9d0057c4 <i33>
9d005774:	00000000 	nop
9d005778:	15200008 	bnez	t1,9d00579c <L36>
9d00577c:	00000000 	nop
9d005780:	15000003 	bnez	t0,9d005790 <L37>
9d005784:	00000000 	nop
9d005788:	1000ff29 	b	9d005430 <Dlab1>
9d00578c:	240a0000 	li	t2,0

9d005790 <L37>:
9d005790:	01004825 	move	t1,t0
9d005794:	24080000 	li	t0,0
9d005798:	254affe0 	addiu	t2,t2,-32

9d00579c <L36>:
9d00579c:	712e7020 	clz	t6,t1
9d0057a0:	11c0ff23 	beqz	t6,9d005430 <Dlab1>
9d0057a4:	00000000 	nop
9d0057a8:	014e5023 	subu	t2,t2,t6
9d0057ac:	000e3022 	neg	a2,t6
9d0057b0:	00c83006 	srlv	a2,t0,a2
9d0057b4:	01c84004 	sllv	t0,t0,t6
9d0057b8:	01c94804 	sllv	t1,t1,t6
9d0057bc:	1000ff1c 	b	9d005430 <Dlab1>
9d0057c0:	01264825 	or	t1,t1,a2

9d0057c4 <i33>:
9d0057c4:	154d0005 	bne	t2,t5,9d0057dc <i35>
9d0057c8:	00000000 	nop
9d0057cc:	000c7840 	sll	t7,t4,0x1
9d0057d0:	01eb7825 	or	t7,t7,t3
9d0057d4:	11e0002b 	beqz	t7,9d005884 <Dnan>
9d0057d8:	00000000 	nop

9d0057dc <i35>:
9d0057dc:	240107ff 	li	at,2047
9d0057e0:	11a1000a 	beq	t5,at,9d00580c <DspecB>
9d0057e4:	00000000 	nop
9d0057e8:	1140ffbb 	beqz	t2,9d0056d8 <Dret>
9d0057ec:	00000000 	nop
9d0057f0:	01287825 	or	t7,t1,t0
9d0057f4:	15e00023 	bnez	t7,9d005884 <Dnan>
9d0057f8:	00000000 	nop

9d0057fc <Dinf>:
9d0057fc:	3c017ff0 	lui	at,0x7ff0
9d005800:	00a12825 	or	a1,a1,at
9d005804:	1000ffb4 	b	9d0056d8 <Dret>
9d005808:	24040000 	li	a0,0

9d00580c <DspecB>:
9d00580c:	0160782a 	slt	t7,t3,zero
9d005810:	016b5821 	addu	t3,t3,t3
9d005814:	018c6021 	addu	t4,t4,t4
9d005818:	15a00017 	bnez	t5,9d005878 <i36>
9d00581c:	018f6021 	addu	t4,t4,t7
9d005820:	018b7825 	or	t7,t4,t3
9d005824:	11e0fff5 	beqz	t7,9d0057fc <Dinf>
9d005828:	00000000 	nop
9d00582c:	15800008 	bnez	t4,9d005850 <L39>
9d005830:	00000000 	nop
9d005834:	15600003 	bnez	t3,9d005844 <L40>
9d005838:	00000000 	nop
9d00583c:	1000ff00 	b	9d005440 <Dlab2>
9d005840:	240d0000 	li	t5,0

9d005844 <L40>:
9d005844:	01606025 	move	t4,t3
9d005848:	240b0000 	li	t3,0
9d00584c:	25adffe0 	addiu	t5,t5,-32

9d005850 <L39>:
9d005850:	718e7020 	clz	t6,t4
9d005854:	11c0fefa 	beqz	t6,9d005440 <Dlab2>
9d005858:	00000000 	nop
9d00585c:	01ae6823 	subu	t5,t5,t6
9d005860:	000e3022 	neg	a2,t6
9d005864:	00cb3006 	srlv	a2,t3,a2
9d005868:	01cb5804 	sllv	t3,t3,t6
9d00586c:	01cc6004 	sllv	t4,t4,t6
9d005870:	1000fef3 	b	9d005440 <Dlab2>
9d005874:	01866025 	or	t4,t4,a2

9d005878 <i36>:
9d005878:	018b7825 	or	t7,t4,t3
9d00587c:	11e00002 	beqz	t7,9d005888 <i38>
9d005880:	00000000 	nop

9d005884 <Dnan>:
9d005884:	3c05fff8 	lui	a1,0xfff8

9d005888 <i38>:
9d005888:	1000ff93 	b	9d0056d8 <Dret>
9d00588c:	24040000 	li	a0,0
9d005890:	00000000 	nop

Disassembly of section .text:

9d005894 <__divdi3>:
9d005894:	04a00052 	bltz	a1,9d0059e0 <__divdi3+0x14c>
9d005898:	00004821 	move	t1,zero
9d00589c:	04e20057 	bltzl	a3,9d0059fc <__divdi3+0x168>
9d0058a0:	00063023 	negu	a2,a2
9d0058a4:	00c04021 	move	t0,a2
9d0058a8:	00805021 	move	t2,a0
9d0058ac:	14e00046 	bnez	a3,9d0059c8 <__divdi3+0x134>
9d0058b0:	00a01821 	move	v1,a1
9d0058b4:	00a6102b 	sltu	v0,a1,a2
9d0058b8:	1040005d 	beqz	v0,9d005a30 <__divdi3+0x19c>
9d0058bc:	70c21020 	clz	v0,a2
9d0058c0:	50400008 	beqzl	v0,9d0058e4 <__divdi3+0x50>
9d0058c4:	00082c02 	srl	a1,t0,0x10
9d0058c8:	00022023 	negu	a0,v0
9d0058cc:	008a2006 	srlv	a0,t2,a0
9d0058d0:	00451804 	sllv	v1,a1,v0
9d0058d4:	00464004 	sllv	t0,a2,v0
9d0058d8:	00831825 	or	v1,a0,v1
9d0058dc:	004a5004 	sllv	t2,t2,v0
9d0058e0:	00082c02 	srl	a1,t0,0x10
9d0058e4:	0065001b 	divu	zero,v1,a1
9d0058e8:	00a001f4 	teq	a1,zero,0x7
9d0058ec:	00006010 	mfhi	t4
9d0058f0:	00005812 	mflo	t3
9d0058f4:	3107ffff 	andi	a3,t0,0xffff
9d0058f8:	000a2402 	srl	a0,t2,0x10
9d0058fc:	00001012 	mflo	v0
9d005900:	71673002 	mul	a2,t3,a3
9d005904:	000c6400 	sll	t4,t4,0x10
9d005908:	01842025 	or	a0,t4,a0
9d00590c:	0086602b 	sltu	t4,a0,a2
9d005910:	0065001b 	divu	zero,v1,a1
9d005914:	00a001f4 	teq	a1,zero,0x7
9d005918:	1180000b 	beqz	t4,9d005948 <__divdi3+0xb4>
9d00591c:	00861823 	subu	v1,a0,a2
9d005920:	00882021 	addu	a0,a0,t0
9d005924:	0088182b 	sltu	v1,a0,t0
9d005928:	14600006 	bnez	v1,9d005944 <__divdi3+0xb0>
9d00592c:	2562ffff 	addiu	v0,t3,-1
9d005930:	0086182b 	sltu	v1,a0,a2
9d005934:	10600004 	beqz	v1,9d005948 <__divdi3+0xb4>
9d005938:	00861823 	subu	v1,a0,a2
9d00593c:	2562fffe 	addiu	v0,t3,-2
9d005940:	00882021 	addu	a0,a0,t0
9d005944:	00861823 	subu	v1,a0,a2
9d005948:	314affff 	andi	t2,t2,0xffff
9d00594c:	0065001b 	divu	zero,v1,a1
9d005950:	00a001f4 	teq	a1,zero,0x7
9d005954:	00005810 	mfhi	t3
9d005958:	00003012 	mflo	a2
9d00595c:	00002012 	mflo	a0
9d005960:	70c73802 	mul	a3,a2,a3
9d005964:	000b5c00 	sll	t3,t3,0x10
9d005968:	016a5025 	or	t2,t3,t2
9d00596c:	0147582b 	sltu	t3,t2,a3
9d005970:	0065001b 	divu	zero,v1,a1
9d005974:	00a001f4 	teq	a1,zero,0x7
9d005978:	51600009 	beqzl	t3,9d0059a0 <__divdi3+0x10c>
9d00597c:	00021400 	sll	v0,v0,0x10
9d005980:	01485021 	addu	t2,t2,t0
9d005984:	0148402b 	sltu	t0,t2,t0
9d005988:	15000004 	bnez	t0,9d00599c <__divdi3+0x108>
9d00598c:	24c4ffff 	addiu	a0,a2,-1
9d005990:	0147382b 	sltu	a3,t2,a3
9d005994:	24c6fffe 	addiu	a2,a2,-2
9d005998:	00c7200b 	movn	a0,a2,a3
9d00599c:	00021400 	sll	v0,v0,0x10
9d0059a0:	00821025 	or	v0,a0,v0
9d0059a4:	00001821 	move	v1,zero
9d0059a8:	11200005 	beqz	t1,9d0059c0 <__divdi3+0x12c>
9d0059ac:	00000000 	nop
9d0059b0:	00021023 	negu	v0,v0
9d0059b4:	0002202b 	sltu	a0,zero,v0
9d0059b8:	00031823 	negu	v1,v1
9d0059bc:	00641823 	subu	v1,v1,a0
9d0059c0:	03e00008 	jr	ra
9d0059c4:	00000000 	nop
9d0059c8:	00a7102b 	sltu	v0,a1,a3
9d0059cc:	10400010 	beqz	v0,9d005a10 <__divdi3+0x17c>
9d0059d0:	70e84020 	clz	t0,a3
9d0059d4:	00001821 	move	v1,zero
9d0059d8:	0b40166a 	j	9d0059a8 <__divdi3+0x114>
9d0059dc:	00001021 	move	v0,zero
9d0059e0:	00042023 	negu	a0,a0
9d0059e4:	0004102b 	sltu	v0,zero,a0
9d0059e8:	00052823 	negu	a1,a1
9d0059ec:	00a22823 	subu	a1,a1,v0
9d0059f0:	04e1ffac 	bgez	a3,9d0058a4 <__divdi3+0x10>
9d0059f4:	2409ffff 	li	t1,-1
9d0059f8:	00063023 	negu	a2,a2
9d0059fc:	0006102b 	sltu	v0,zero,a2
9d005a00:	00073823 	negu	a3,a3
9d005a04:	00094827 	nor	t1,zero,t1
9d005a08:	0b401629 	j	9d0058a4 <__divdi3+0x10>
9d005a0c:	00e23823 	subu	a3,a3,v0
9d005a10:	1500007e 	bnez	t0,9d005c0c <__divdi3+0x378>
9d005a14:	24020020 	li	v0,32
9d005a18:	00e5282b 	sltu	a1,a3,a1
9d005a1c:	14a000c6 	bnez	a1,9d005d38 <__divdi3+0x4a4>
9d005a20:	00001821 	move	v1,zero
9d005a24:	0086102b 	sltu	v0,a0,a2
9d005a28:	0b40166a 	j	9d0059a8 <__divdi3+0x114>
9d005a2c:	38420001 	xori	v0,v0,0x1
9d005a30:	14c00006 	bnez	a2,9d005a4c <__divdi3+0x1b8>
9d005a34:	71021020 	clz	v0,t0
9d005a38:	24080001 	li	t0,1
9d005a3c:	0107001b 	divu	zero,t0,a3
9d005a40:	00e001f4 	teq	a3,zero,0x7
9d005a44:	00004012 	mflo	t0
9d005a48:	71021020 	clz	v0,t0
9d005a4c:	54400033 	bnezl	v0,9d005b1c <__divdi3+0x288>
9d005a50:	00484004 	sllv	t0,t0,v0
9d005a54:	00a82023 	subu	a0,a1,t0
9d005a58:	00083c02 	srl	a3,t0,0x10
9d005a5c:	310cffff 	andi	t4,t0,0xffff
9d005a60:	24030001 	li	v1,1
9d005a64:	000a3402 	srl	a2,t2,0x10
9d005a68:	0087001b 	divu	zero,a0,a3
9d005a6c:	00e001f4 	teq	a3,zero,0x7
9d005a70:	00007010 	mfhi	t6
9d005a74:	00006812 	mflo	t5
9d005a78:	00001012 	mflo	v0
9d005a7c:	71ac5802 	mul	t3,t5,t4
9d005a80:	000e7400 	sll	t6,t6,0x10
9d005a84:	01c63025 	or	a2,t6,a2
9d005a88:	00cb702b 	sltu	t6,a2,t3
9d005a8c:	0087001b 	divu	zero,a0,a3
9d005a90:	00e001f4 	teq	a3,zero,0x7
9d005a94:	11c00009 	beqz	t6,9d005abc <__divdi3+0x228>
9d005a98:	00cb2823 	subu	a1,a2,t3
9d005a9c:	00c83021 	addu	a2,a2,t0
9d005aa0:	00c8202b 	sltu	a0,a2,t0
9d005aa4:	14800004 	bnez	a0,9d005ab8 <__divdi3+0x224>
9d005aa8:	25a2ffff 	addiu	v0,t5,-1
9d005aac:	00cb202b 	sltu	a0,a2,t3
9d005ab0:	548000a3 	bnezl	a0,9d005d40 <__divdi3+0x4ac>
9d005ab4:	25a2fffe 	addiu	v0,t5,-2
9d005ab8:	00cb2823 	subu	a1,a2,t3
9d005abc:	314affff 	andi	t2,t2,0xffff
9d005ac0:	00a7001b 	divu	zero,a1,a3
9d005ac4:	00e001f4 	teq	a3,zero,0x7
9d005ac8:	00005810 	mfhi	t3
9d005acc:	00003012 	mflo	a2
9d005ad0:	00002012 	mflo	a0
9d005ad4:	70cc6002 	mul	t4,a2,t4
9d005ad8:	000b5c00 	sll	t3,t3,0x10
9d005adc:	016a5025 	or	t2,t3,t2
9d005ae0:	014c582b 	sltu	t3,t2,t4
9d005ae4:	00a7001b 	divu	zero,a1,a3
9d005ae8:	00e001f4 	teq	a3,zero,0x7
9d005aec:	51600009 	beqzl	t3,9d005b14 <__divdi3+0x280>
9d005af0:	00021400 	sll	v0,v0,0x10
9d005af4:	01485021 	addu	t2,t2,t0
9d005af8:	0148402b 	sltu	t0,t2,t0
9d005afc:	15000004 	bnez	t0,9d005b10 <__divdi3+0x27c>
9d005b00:	24c4ffff 	addiu	a0,a2,-1
9d005b04:	014c502b 	sltu	t2,t2,t4
9d005b08:	24c6fffe 	addiu	a2,a2,-2
9d005b0c:	00ca200b 	movn	a0,a2,t2
9d005b10:	00021400 	sll	v0,v0,0x10
9d005b14:	0b40166a 	j	9d0059a8 <__divdi3+0x114>
9d005b18:	00821025 	or	v0,a0,v0
9d005b1c:	24030020 	li	v1,32
9d005b20:	00621823 	subu	v1,v1,v0
9d005b24:	00653006 	srlv	a2,a1,v1
9d005b28:	00083c02 	srl	a3,t0,0x10
9d005b2c:	00c7001b 	divu	zero,a2,a3
9d005b30:	00e001f4 	teq	a3,zero,0x7
9d005b34:	00007810 	mfhi	t7
9d005b38:	00006812 	mflo	t5
9d005b3c:	310cffff 	andi	t4,t0,0xffff
9d005b40:	00452804 	sllv	a1,a1,v0
9d005b44:	00641806 	srlv	v1,a0,v1
9d005b48:	00652825 	or	a1,v1,a1
9d005b4c:	00057402 	srl	t6,a1,0x10
9d005b50:	00445004 	sllv	t2,a0,v0
9d005b54:	00001812 	mflo	v1
9d005b58:	71ac5802 	mul	t3,t5,t4
9d005b5c:	000f1400 	sll	v0,t7,0x10
9d005b60:	01c21025 	or	v0,t6,v0
9d005b64:	004b202b 	sltu	a0,v0,t3
9d005b68:	00c7001b 	divu	zero,a2,a3
9d005b6c:	00e001f4 	teq	a3,zero,0x7
9d005b70:	5080000b 	beqzl	a0,9d005ba0 <__divdi3+0x30c>
9d005b74:	004b1023 	subu	v0,v0,t3
9d005b78:	00481021 	addu	v0,v0,t0
9d005b7c:	0048202b 	sltu	a0,v0,t0
9d005b80:	14800006 	bnez	a0,9d005b9c <__divdi3+0x308>
9d005b84:	25a3ffff 	addiu	v1,t5,-1
9d005b88:	004b202b 	sltu	a0,v0,t3
9d005b8c:	50800004 	beqzl	a0,9d005ba0 <__divdi3+0x30c>
9d005b90:	004b1023 	subu	v0,v0,t3
9d005b94:	25a3fffe 	addiu	v1,t5,-2
9d005b98:	00481021 	addu	v0,v0,t0
9d005b9c:	004b1023 	subu	v0,v0,t3
9d005ba0:	30adffff 	andi	t5,a1,0xffff
9d005ba4:	0047001b 	divu	zero,v0,a3
9d005ba8:	00e001f4 	teq	a3,zero,0x7
9d005bac:	00002010 	mfhi	a0
9d005bb0:	00005812 	mflo	t3
9d005bb4:	00003012 	mflo	a2
9d005bb8:	716c2802 	mul	a1,t3,t4
9d005bbc:	00042400 	sll	a0,a0,0x10
9d005bc0:	008d2025 	or	a0,a0,t5
9d005bc4:	0085682b 	sltu	t5,a0,a1
9d005bc8:	0047001b 	divu	zero,v0,a3
9d005bcc:	00e001f4 	teq	a3,zero,0x7
9d005bd0:	51a0000b 	beqzl	t5,9d005c00 <__divdi3+0x36c>
9d005bd4:	00031c00 	sll	v1,v1,0x10
9d005bd8:	00882021 	addu	a0,a0,t0
9d005bdc:	0088102b 	sltu	v0,a0,t0
9d005be0:	14400006 	bnez	v0,9d005bfc <__divdi3+0x368>
9d005be4:	2566ffff 	addiu	a2,t3,-1
9d005be8:	0085102b 	sltu	v0,a0,a1
9d005bec:	50400004 	beqzl	v0,9d005c00 <__divdi3+0x36c>
9d005bf0:	00031c00 	sll	v1,v1,0x10
9d005bf4:	2566fffe 	addiu	a2,t3,-2
9d005bf8:	00882021 	addu	a0,a0,t0
9d005bfc:	00031c00 	sll	v1,v1,0x10
9d005c00:	00852023 	subu	a0,a0,a1
9d005c04:	0b401699 	j	9d005a64 <__divdi3+0x1d0>
9d005c08:	00c31825 	or	v1,a2,v1
9d005c0c:	00481023 	subu	v0,v0,t0
9d005c10:	01073804 	sllv	a3,a3,t0
9d005c14:	00461806 	srlv	v1,a2,v0
9d005c18:	00673825 	or	a3,v1,a3
9d005c1c:	00455806 	srlv	t3,a1,v0
9d005c20:	00071c02 	srl	v1,a3,0x10
9d005c24:	0163001b 	divu	zero,t3,v1
9d005c28:	006001f4 	teq	v1,zero,0x7
9d005c2c:	00005010 	mfhi	t2
9d005c30:	00007012 	mflo	t6
9d005c34:	30ecffff 	andi	t4,a3,0xffff
9d005c38:	01052804 	sllv	a1,a1,t0
9d005c3c:	00441006 	srlv	v0,a0,v0
9d005c40:	00452825 	or	a1,v0,a1
9d005c44:	00057c02 	srl	t7,a1,0x10
9d005c48:	00001012 	mflo	v0
9d005c4c:	71cc6802 	mul	t5,t6,t4
9d005c50:	000a5400 	sll	t2,t2,0x10
9d005c54:	014f5025 	or	t2,t2,t7
9d005c58:	014d782b 	sltu	t7,t2,t5
9d005c5c:	0163001b 	divu	zero,t3,v1
9d005c60:	006001f4 	teq	v1,zero,0x7
9d005c64:	11e0000a 	beqz	t7,9d005c90 <__divdi3+0x3fc>
9d005c68:	01063004 	sllv	a2,a2,t0
9d005c6c:	01475021 	addu	t2,t2,a3
9d005c70:	0147582b 	sltu	t3,t2,a3
9d005c74:	15600006 	bnez	t3,9d005c90 <__divdi3+0x3fc>
9d005c78:	25c2ffff 	addiu	v0,t6,-1
9d005c7c:	014d582b 	sltu	t3,t2,t5
9d005c80:	51600004 	beqzl	t3,9d005c94 <__divdi3+0x400>
9d005c84:	014d5023 	subu	t2,t2,t5
9d005c88:	25c2fffe 	addiu	v0,t6,-2
9d005c8c:	01475021 	addu	t2,t2,a3
9d005c90:	014d5023 	subu	t2,t2,t5
9d005c94:	30a5ffff 	andi	a1,a1,0xffff
9d005c98:	0143001b 	divu	zero,t2,v1
9d005c9c:	006001f4 	teq	v1,zero,0x7
9d005ca0:	00007010 	mfhi	t6
9d005ca4:	00006812 	mflo	t5
9d005ca8:	00005812 	mflo	t3
9d005cac:	71ac6002 	mul	t4,t5,t4
9d005cb0:	000e7400 	sll	t6,t6,0x10
9d005cb4:	01c52825 	or	a1,t6,a1
9d005cb8:	00ac702b 	sltu	t6,a1,t4
9d005cbc:	0143001b 	divu	zero,t2,v1
9d005cc0:	006001f4 	teq	v1,zero,0x7
9d005cc4:	51c0000b 	beqzl	t6,9d005cf4 <__divdi3+0x460>
9d005cc8:	00021400 	sll	v0,v0,0x10
9d005ccc:	00a72821 	addu	a1,a1,a3
9d005cd0:	00a7182b 	sltu	v1,a1,a3
9d005cd4:	14600006 	bnez	v1,9d005cf0 <__divdi3+0x45c>
9d005cd8:	25abffff 	addiu	t3,t5,-1
9d005cdc:	00ac182b 	sltu	v1,a1,t4
9d005ce0:	50600004 	beqzl	v1,9d005cf4 <__divdi3+0x460>
9d005ce4:	00021400 	sll	v0,v0,0x10
9d005ce8:	25abfffe 	addiu	t3,t5,-2
9d005cec:	00a72821 	addu	a1,a1,a3
9d005cf0:	00021400 	sll	v0,v0,0x10
9d005cf4:	01621025 	or	v0,t3,v0
9d005cf8:	00ac2823 	subu	a1,a1,t4
9d005cfc:	00460019 	multu	v0,a2
9d005d00:	00003810 	mfhi	a3
9d005d04:	00a7182b 	sltu	v1,a1,a3
9d005d08:	14600008 	bnez	v1,9d005d2c <__divdi3+0x498>
9d005d0c:	00003012 	mflo	a2
9d005d10:	50a70003 	beql	a1,a3,9d005d20 <__divdi3+0x48c>
9d005d14:	01042004 	sllv	a0,a0,t0
9d005d18:	0b40166a 	j	9d0059a8 <__divdi3+0x114>
9d005d1c:	00001821 	move	v1,zero
9d005d20:	0086302b 	sltu	a2,a0,a2
9d005d24:	50c0ff20 	beqzl	a2,9d0059a8 <__divdi3+0x114>
9d005d28:	00001821 	move	v1,zero
9d005d2c:	2442ffff 	addiu	v0,v0,-1
9d005d30:	0b40166a 	j	9d0059a8 <__divdi3+0x114>
9d005d34:	00001821 	move	v1,zero
9d005d38:	0b40166a 	j	9d0059a8 <__divdi3+0x114>
9d005d3c:	24020001 	li	v0,1
9d005d40:	0b4016ae 	j	9d005ab8 <__divdi3+0x224>
9d005d44:	00c83021 	addu	a2,a2,t0

9d005d48 <__umoddi3>:
9d005d48:	00c04021 	move	t0,a2
9d005d4c:	00804821 	move	t1,a0
9d005d50:	14e0003b 	bnez	a3,9d005e40 <__umoddi3+0xf8>
9d005d54:	00a01821 	move	v1,a1
9d005d58:	00a6102b 	sltu	v0,a1,a2
9d005d5c:	10400048 	beqz	v0,9d005e80 <__umoddi3+0x138>
9d005d60:	70c21020 	clz	v0,a2
9d005d64:	50400008 	beqzl	v0,9d005d88 <__umoddi3+0x40>
9d005d68:	00083402 	srl	a2,t0,0x10
9d005d6c:	00021823 	negu	v1,v0
9d005d70:	00452804 	sllv	a1,a1,v0
9d005d74:	00641806 	srlv	v1,a0,v1
9d005d78:	00464004 	sllv	t0,a2,v0
9d005d7c:	00651825 	or	v1,v1,a1
9d005d80:	00444804 	sllv	t1,a0,v0
9d005d84:	00083402 	srl	a2,t0,0x10
9d005d88:	0066001b 	divu	zero,v1,a2
9d005d8c:	00c001f4 	teq	a2,zero,0x7
9d005d90:	00002010 	mfhi	a0
9d005d94:	00005812 	mflo	t3
9d005d98:	310cffff 	andi	t4,t0,0xffff
9d005d9c:	00095402 	srl	t2,t1,0x10
9d005da0:	716c5802 	mul	t3,t3,t4
9d005da4:	00042400 	sll	a0,a0,0x10
9d005da8:	008a5025 	or	t2,a0,t2
9d005dac:	014b682b 	sltu	t5,t2,t3
9d005db0:	0066001b 	divu	zero,v1,a2
9d005db4:	00c001f4 	teq	a2,zero,0x7
9d005db8:	51a00009 	beqzl	t5,9d005de0 <__umoddi3+0x98>
9d005dbc:	014b5023 	subu	t2,t2,t3
9d005dc0:	01485021 	addu	t2,t2,t0
9d005dc4:	0148182b 	sltu	v1,t2,t0
9d005dc8:	54600005 	bnezl	v1,9d005de0 <__umoddi3+0x98>
9d005dcc:	014b5023 	subu	t2,t2,t3
9d005dd0:	014b202b 	sltu	a0,t2,t3
9d005dd4:	01481821 	addu	v1,t2,t0
9d005dd8:	0064500b 	movn	t2,v1,a0
9d005ddc:	014b5023 	subu	t2,t2,t3
9d005de0:	3123ffff 	andi	v1,t1,0xffff
9d005de4:	0146001b 	divu	zero,t2,a2
9d005de8:	00c001f4 	teq	a2,zero,0x7
9d005dec:	00004810 	mfhi	t1
9d005df0:	00002012 	mflo	a0
9d005df4:	708c2002 	mul	a0,a0,t4
9d005df8:	00094c00 	sll	t1,t1,0x10
9d005dfc:	01234825 	or	t1,t1,v1
9d005e00:	0124182b 	sltu	v1,t1,a0
9d005e04:	0146001b 	divu	zero,t2,a2
9d005e08:	00c001f4 	teq	a2,zero,0x7
9d005e0c:	50600009 	beqzl	v1,9d005e34 <__umoddi3+0xec>
9d005e10:	01244823 	subu	t1,t1,a0
9d005e14:	01284821 	addu	t1,t1,t0
9d005e18:	0128182b 	sltu	v1,t1,t0
9d005e1c:	54600005 	bnezl	v1,9d005e34 <__umoddi3+0xec>
9d005e20:	01244823 	subu	t1,t1,a0
9d005e24:	0124182b 	sltu	v1,t1,a0
9d005e28:	01284021 	addu	t0,t1,t0
9d005e2c:	0103480b 	movn	t1,t0,v1
9d005e30:	01244823 	subu	t1,t1,a0
9d005e34:	00491006 	srlv	v0,t1,v0
9d005e38:	03e00008 	jr	ra
9d005e3c:	00001821 	move	v1,zero
9d005e40:	00a7102b 	sltu	v0,a1,a3
9d005e44:	14400047 	bnez	v0,9d005f64 <__umoddi3+0x21c>
9d005e48:	70ea5020 	clz	t2,a3
9d005e4c:	15400048 	bnez	t2,9d005f70 <__umoddi3+0x228>
9d005e50:	240b0020 	li	t3,32
9d005e54:	00e5102b 	sltu	v0,a3,a1
9d005e58:	14400005 	bnez	v0,9d005e70 <__umoddi3+0x128>
9d005e5c:	00861023 	subu	v0,a0,a2
9d005e60:	0086402b 	sltu	t0,a0,a2
9d005e64:	15000089 	bnez	t0,9d00608c <__umoddi3+0x344>
9d005e68:	00801021 	move	v0,a0
9d005e6c:	00861023 	subu	v0,a0,a2
9d005e70:	00a72823 	subu	a1,a1,a3
9d005e74:	0082202b 	sltu	a0,a0,v0
9d005e78:	03e00008 	jr	ra
9d005e7c:	00a41823 	subu	v1,a1,a0
9d005e80:	14c00006 	bnez	a2,9d005e9c <__umoddi3+0x154>
9d005e84:	71021020 	clz	v0,t0
9d005e88:	24020001 	li	v0,1
9d005e8c:	0046001b 	divu	zero,v0,a2
9d005e90:	00c001f4 	teq	a2,zero,0x7
9d005e94:	00004012 	mflo	t0
9d005e98:	71021020 	clz	v0,t0
9d005e9c:	5440007d 	bnezl	v0,9d006094 <__umoddi3+0x34c>
9d005ea0:	00484004 	sllv	t0,t0,v0
9d005ea4:	00a82823 	subu	a1,a1,t0
9d005ea8:	00081c02 	srl	v1,t0,0x10
9d005eac:	3107ffff 	andi	a3,t0,0xffff
9d005eb0:	00092402 	srl	a0,t1,0x10
9d005eb4:	00a3001b 	divu	zero,a1,v1
9d005eb8:	006001f4 	teq	v1,zero,0x7
9d005ebc:	00005010 	mfhi	t2
9d005ec0:	00003012 	mflo	a2
9d005ec4:	70c73002 	mul	a2,a2,a3
9d005ec8:	000a5400 	sll	t2,t2,0x10
9d005ecc:	01442025 	or	a0,t2,a0
9d005ed0:	0086502b 	sltu	t2,a0,a2
9d005ed4:	00a3001b 	divu	zero,a1,v1
9d005ed8:	006001f4 	teq	v1,zero,0x7
9d005edc:	51400009 	beqzl	t2,9d005f04 <__umoddi3+0x1bc>
9d005ee0:	00862023 	subu	a0,a0,a2
9d005ee4:	00882021 	addu	a0,a0,t0
9d005ee8:	0088282b 	sltu	a1,a0,t0
9d005eec:	54a00005 	bnezl	a1,9d005f04 <__umoddi3+0x1bc>
9d005ef0:	00862023 	subu	a0,a0,a2
9d005ef4:	0086502b 	sltu	t2,a0,a2
9d005ef8:	00882821 	addu	a1,a0,t0
9d005efc:	00aa200b 	movn	a0,a1,t2
9d005f00:	00862023 	subu	a0,a0,a2
9d005f04:	3126ffff 	andi	a2,t1,0xffff
9d005f08:	0083001b 	divu	zero,a0,v1
9d005f0c:	006001f4 	teq	v1,zero,0x7
9d005f10:	00004810 	mfhi	t1
9d005f14:	00002812 	mflo	a1
9d005f18:	70a72802 	mul	a1,a1,a3
9d005f1c:	00094c00 	sll	t1,t1,0x10
9d005f20:	01264825 	or	t1,t1,a2
9d005f24:	0125302b 	sltu	a2,t1,a1
9d005f28:	0083001b 	divu	zero,a0,v1
9d005f2c:	006001f4 	teq	v1,zero,0x7
9d005f30:	50c00009 	beqzl	a2,9d005f58 <__umoddi3+0x210>
9d005f34:	01254823 	subu	t1,t1,a1
9d005f38:	01284821 	addu	t1,t1,t0
9d005f3c:	0128182b 	sltu	v1,t1,t0
9d005f40:	54600005 	bnezl	v1,9d005f58 <__umoddi3+0x210>
9d005f44:	01254823 	subu	t1,t1,a1
9d005f48:	0125182b 	sltu	v1,t1,a1
9d005f4c:	01284021 	addu	t0,t1,t0
9d005f50:	0103480b 	movn	t1,t0,v1
9d005f54:	01254823 	subu	t1,t1,a1
9d005f58:	00491006 	srlv	v0,t1,v0
9d005f5c:	03e00008 	jr	ra
9d005f60:	00001821 	move	v1,zero
9d005f64:	00801021 	move	v0,a0
9d005f68:	03e00008 	jr	ra
9d005f6c:	00a01821 	move	v1,a1
9d005f70:	016a5823 	subu	t3,t3,t2
9d005f74:	01473804 	sllv	a3,a3,t2
9d005f78:	01661006 	srlv	v0,a2,t3
9d005f7c:	00473825 	or	a3,v0,a3
9d005f80:	01656806 	srlv	t5,a1,t3
9d005f84:	00074c02 	srl	t1,a3,0x10
9d005f88:	01a9001b 	divu	zero,t5,t1
9d005f8c:	012001f4 	teq	t1,zero,0x7
9d005f90:	00006010 	mfhi	t4
9d005f94:	00001812 	mflo	v1
9d005f98:	30eeffff 	andi	t6,a3,0xffff
9d005f9c:	01452804 	sllv	a1,a1,t2
9d005fa0:	01641006 	srlv	v0,a0,t3
9d005fa4:	00451025 	or	v0,v0,a1
9d005fa8:	00022c02 	srl	a1,v0,0x10
9d005fac:	01463004 	sllv	a2,a2,t2
9d005fb0:	00004012 	mflo	t0
9d005fb4:	706e7802 	mul	t7,v1,t6
9d005fb8:	000c6400 	sll	t4,t4,0x10
9d005fbc:	01856025 	or	t4,t4,a1
9d005fc0:	018f282b 	sltu	a1,t4,t7
9d005fc4:	01a9001b 	divu	zero,t5,t1
9d005fc8:	012001f4 	teq	t1,zero,0x7
9d005fcc:	10a0000a 	beqz	a1,9d005ff8 <__umoddi3+0x2b0>
9d005fd0:	01442004 	sllv	a0,a0,t2
9d005fd4:	01876021 	addu	t4,t4,a3
9d005fd8:	0187282b 	sltu	a1,t4,a3
9d005fdc:	14a00006 	bnez	a1,9d005ff8 <__umoddi3+0x2b0>
9d005fe0:	2468ffff 	addiu	t0,v1,-1
9d005fe4:	018f282b 	sltu	a1,t4,t7
9d005fe8:	50a00004 	beqzl	a1,9d005ffc <__umoddi3+0x2b4>
9d005fec:	018f6023 	subu	t4,t4,t7
9d005ff0:	2468fffe 	addiu	t0,v1,-2
9d005ff4:	01876021 	addu	t4,t4,a3
9d005ff8:	018f6023 	subu	t4,t4,t7
9d005ffc:	3042ffff 	andi	v0,v0,0xffff
9d006000:	0189001b 	divu	zero,t4,t1
9d006004:	012001f4 	teq	t1,zero,0x7
9d006008:	00002810 	mfhi	a1
9d00600c:	00001812 	mflo	v1
9d006010:	00006812 	mflo	t5
9d006014:	706e7002 	mul	t6,v1,t6
9d006018:	00052c00 	sll	a1,a1,0x10
9d00601c:	00a21025 	or	v0,a1,v0
9d006020:	004e282b 	sltu	a1,v0,t6
9d006024:	0189001b 	divu	zero,t4,t1
9d006028:	012001f4 	teq	t1,zero,0x7
9d00602c:	50a00006 	beqzl	a1,9d006048 <__umoddi3+0x300>
9d006030:	00084400 	sll	t0,t0,0x10
9d006034:	00471021 	addu	v0,v0,a3
9d006038:	0047282b 	sltu	a1,v0,a3
9d00603c:	10a0004c 	beqz	a1,9d006170 <__umoddi3+0x428>
9d006040:	246dffff 	addiu	t5,v1,-1
9d006044:	00084400 	sll	t0,t0,0x10
9d006048:	01a84025 	or	t0,t5,t0
9d00604c:	004e1023 	subu	v0,v0,t6
9d006050:	01060019 	multu	t0,a2
9d006054:	00004810 	mfhi	t1
9d006058:	0049182b 	sltu	v1,v0,t1
9d00605c:	1460003e 	bnez	v1,9d006158 <__umoddi3+0x410>
9d006060:	00004012 	mflo	t0
9d006064:	1049004b 	beq	v0,t1,9d006194 <__umoddi3+0x44c>
9d006068:	00491823 	subu	v1,v0,t1
9d00606c:	00003012 	mflo	a2
9d006070:	00863023 	subu	a2,a0,a2
9d006074:	0086202b 	sltu	a0,a0,a2
9d006078:	00641823 	subu	v1,v1,a0
9d00607c:	01631004 	sllv	v0,v1,t3
9d006080:	01463006 	srlv	a2,a2,t2
9d006084:	00461025 	or	v0,v0,a2
9d006088:	01431806 	srlv	v1,v1,t2
9d00608c:	03e00008 	jr	ra
9d006090:	00000000 	nop
9d006094:	24090020 	li	t1,32
9d006098:	01224823 	subu	t1,t1,v0
9d00609c:	01255006 	srlv	t2,a1,t1
9d0060a0:	00081c02 	srl	v1,t0,0x10
9d0060a4:	0143001b 	divu	zero,t2,v1
9d0060a8:	006001f4 	teq	v1,zero,0x7
9d0060ac:	00003010 	mfhi	a2
9d0060b0:	00005812 	mflo	t3
9d0060b4:	3107ffff 	andi	a3,t0,0xffff
9d0060b8:	00452804 	sllv	a1,a1,v0
9d0060bc:	01244806 	srlv	t1,a0,t1
9d0060c0:	01252825 	or	a1,t1,a1
9d0060c4:	00056402 	srl	t4,a1,0x10
9d0060c8:	00444804 	sllv	t1,a0,v0
9d0060cc:	71675802 	mul	t3,t3,a3
9d0060d0:	00063400 	sll	a2,a2,0x10
9d0060d4:	01863025 	or	a2,t4,a2
9d0060d8:	00cb202b 	sltu	a0,a2,t3
9d0060dc:	0143001b 	divu	zero,t2,v1
9d0060e0:	006001f4 	teq	v1,zero,0x7
9d0060e4:	50800006 	beqzl	a0,9d006100 <__umoddi3+0x3b8>
9d0060e8:	00cb3023 	subu	a2,a2,t3
9d0060ec:	00c83021 	addu	a2,a2,t0
9d0060f0:	00c8202b 	sltu	a0,a2,t0
9d0060f4:	10800024 	beqz	a0,9d006188 <__umoddi3+0x440>
9d0060f8:	00cb502b 	sltu	t2,a2,t3
9d0060fc:	00cb3023 	subu	a2,a2,t3
9d006100:	30aaffff 	andi	t2,a1,0xffff
9d006104:	00c3001b 	divu	zero,a2,v1
9d006108:	006001f4 	teq	v1,zero,0x7
9d00610c:	00002010 	mfhi	a0
9d006110:	00002812 	mflo	a1
9d006114:	70a72802 	mul	a1,a1,a3
9d006118:	00042400 	sll	a0,a0,0x10
9d00611c:	008a2025 	or	a0,a0,t2
9d006120:	0085502b 	sltu	t2,a0,a1
9d006124:	00c3001b 	divu	zero,a2,v1
9d006128:	006001f4 	teq	v1,zero,0x7
9d00612c:	5140ff60 	beqzl	t2,9d005eb0 <__umoddi3+0x168>
9d006130:	00852823 	subu	a1,a0,a1
9d006134:	00882021 	addu	a0,a0,t0
9d006138:	0088302b 	sltu	a2,a0,t0
9d00613c:	54c0ff5c 	bnezl	a2,9d005eb0 <__umoddi3+0x168>
9d006140:	00852823 	subu	a1,a0,a1
9d006144:	0085502b 	sltu	t2,a0,a1
9d006148:	00883021 	addu	a2,a0,t0
9d00614c:	00ca200b 	movn	a0,a2,t2
9d006150:	0b4017ac 	j	9d005eb0 <__umoddi3+0x168>
9d006154:	00852823 	subu	a1,a0,a1
9d006158:	01063023 	subu	a2,t0,a2
9d00615c:	01271823 	subu	v1,t1,a3
9d006160:	0106402b 	sltu	t0,t0,a2
9d006164:	00681823 	subu	v1,v1,t0
9d006168:	0b40181c 	j	9d006070 <__umoddi3+0x328>
9d00616c:	00431823 	subu	v1,v0,v1
9d006170:	004e282b 	sltu	a1,v0,t6
9d006174:	50a0ffb4 	beqzl	a1,9d006048 <__umoddi3+0x300>
9d006178:	00084400 	sll	t0,t0,0x10
9d00617c:	246dfffe 	addiu	t5,v1,-2
9d006180:	0b401811 	j	9d006044 <__umoddi3+0x2fc>
9d006184:	00471021 	addu	v0,v0,a3
9d006188:	00c82021 	addu	a0,a2,t0
9d00618c:	0b40183f 	j	9d0060fc <__umoddi3+0x3b4>
9d006190:	008a300b 	movn	a2,a0,t2
9d006194:	0088182b 	sltu	v1,a0,t0
9d006198:	5460fff0 	bnezl	v1,9d00615c <__umoddi3+0x414>
9d00619c:	01063023 	subu	a2,t0,a2
9d0061a0:	00003012 	mflo	a2
9d0061a4:	0b40181c 	j	9d006070 <__umoddi3+0x328>
9d0061a8:	00001821 	move	v1,zero

9d0061ac <__udivdi3>:
9d0061ac:	00c04021 	move	t0,a2
9d0061b0:	00801021 	move	v0,a0
9d0061b4:	14e0003f 	bnez	a3,9d0062b4 <__udivdi3+0x108>
9d0061b8:	00a04821 	move	t1,a1
9d0061bc:	00a6182b 	sltu	v1,a1,a2
9d0061c0:	10600047 	beqz	v1,9d0062e0 <__udivdi3+0x134>
9d0061c4:	70c31820 	clz	v1,a2
9d0061c8:	50600008 	beqzl	v1,9d0061ec <__udivdi3+0x40>
9d0061cc:	00081c02 	srl	v1,t0,0x10
9d0061d0:	00034823 	negu	t1,v1
9d0061d4:	00652804 	sllv	a1,a1,v1
9d0061d8:	01244806 	srlv	t1,a0,t1
9d0061dc:	00664004 	sllv	t0,a2,v1
9d0061e0:	01254825 	or	t1,t1,a1
9d0061e4:	00641004 	sllv	v0,a0,v1
9d0061e8:	00081c02 	srl	v1,t0,0x10
9d0061ec:	0123001b 	divu	zero,t1,v1
9d0061f0:	006001f4 	teq	v1,zero,0x7
9d0061f4:	00006010 	mfhi	t4
9d0061f8:	00005812 	mflo	t3
9d0061fc:	310affff 	andi	t2,t0,0xffff
9d006200:	00022402 	srl	a0,v0,0x10
9d006204:	00003012 	mflo	a2
9d006208:	716a3802 	mul	a3,t3,t2
9d00620c:	000c6400 	sll	t4,t4,0x10
9d006210:	01842025 	or	a0,t4,a0
9d006214:	0087602b 	sltu	t4,a0,a3
9d006218:	0123001b 	divu	zero,t1,v1
9d00621c:	006001f4 	teq	v1,zero,0x7
9d006220:	1180000b 	beqz	t4,9d006250 <__udivdi3+0xa4>
9d006224:	00872823 	subu	a1,a0,a3
9d006228:	00882021 	addu	a0,a0,t0
9d00622c:	0088282b 	sltu	a1,a0,t0
9d006230:	14a00006 	bnez	a1,9d00624c <__udivdi3+0xa0>
9d006234:	2566ffff 	addiu	a2,t3,-1
9d006238:	0087282b 	sltu	a1,a0,a3
9d00623c:	10a00004 	beqz	a1,9d006250 <__udivdi3+0xa4>
9d006240:	00872823 	subu	a1,a0,a3
9d006244:	2566fffe 	addiu	a2,t3,-2
9d006248:	00882021 	addu	a0,a0,t0
9d00624c:	00872823 	subu	a1,a0,a3
9d006250:	3042ffff 	andi	v0,v0,0xffff
9d006254:	00a3001b 	divu	zero,a1,v1
9d006258:	006001f4 	teq	v1,zero,0x7
9d00625c:	00004810 	mfhi	t1
9d006260:	00003812 	mflo	a3
9d006264:	00002012 	mflo	a0
9d006268:	70ea5002 	mul	t2,a3,t2
9d00626c:	00094c00 	sll	t1,t1,0x10
9d006270:	01221025 	or	v0,t1,v0
9d006274:	004a482b 	sltu	t1,v0,t2
9d006278:	00a3001b 	divu	zero,a1,v1
9d00627c:	006001f4 	teq	v1,zero,0x7
9d006280:	51200009 	beqzl	t1,9d0062a8 <__udivdi3+0xfc>
9d006284:	00061400 	sll	v0,a2,0x10
9d006288:	00481021 	addu	v0,v0,t0
9d00628c:	0048402b 	sltu	t0,v0,t0
9d006290:	15000004 	bnez	t0,9d0062a4 <__udivdi3+0xf8>
9d006294:	24e4ffff 	addiu	a0,a3,-1
9d006298:	004a502b 	sltu	t2,v0,t2
9d00629c:	24e7fffe 	addiu	a3,a3,-2
9d0062a0:	00ea200b 	movn	a0,a3,t2
9d0062a4:	00061400 	sll	v0,a2,0x10
9d0062a8:	00821025 	or	v0,a0,v0
9d0062ac:	03e00008 	jr	ra
9d0062b0:	00001821 	move	v1,zero
9d0062b4:	00a7102b 	sltu	v0,a1,a3
9d0062b8:	14400044 	bnez	v0,9d0063cc <__udivdi3+0x220>
9d0062bc:	70e84020 	clz	t0,a3
9d0062c0:	55000045 	bnezl	t0,9d0063d8 <__udivdi3+0x22c>
9d0062c4:	24020020 	li	v0,32
9d0062c8:	00e5282b 	sltu	a1,a3,a1
9d0062cc:	14a000c8 	bnez	a1,9d0065f0 <__udivdi3+0x444>
9d0062d0:	0086302b 	sltu	a2,a0,a2
9d0062d4:	38c20001 	xori	v0,a2,0x1
9d0062d8:	03e00008 	jr	ra
9d0062dc:	00001821 	move	v1,zero
9d0062e0:	14c00006 	bnez	a2,9d0062fc <__udivdi3+0x150>
9d0062e4:	71031820 	clz	v1,t0
9d0062e8:	24030001 	li	v1,1
9d0062ec:	0066001b 	divu	zero,v1,a2
9d0062f0:	00c001f4 	teq	a2,zero,0x7
9d0062f4:	00004012 	mflo	t0
9d0062f8:	71031820 	clz	v1,t0
9d0062fc:	5460007b 	bnezl	v1,9d0064ec <__udivdi3+0x340>
9d006300:	00684004 	sllv	t0,t0,v1
9d006304:	00a82023 	subu	a0,a1,t0
9d006308:	00083c02 	srl	a3,t0,0x10
9d00630c:	310bffff 	andi	t3,t0,0xffff
9d006310:	24030001 	li	v1,1
9d006314:	00023402 	srl	a2,v0,0x10
9d006318:	0087001b 	divu	zero,a0,a3
9d00631c:	00e001f4 	teq	a3,zero,0x7
9d006320:	00006810 	mfhi	t5
9d006324:	00006012 	mflo	t4
9d006328:	00004812 	mflo	t1
9d00632c:	718b5002 	mul	t2,t4,t3
9d006330:	000d6c00 	sll	t5,t5,0x10
9d006334:	01a63025 	or	a2,t5,a2
9d006338:	00ca682b 	sltu	t5,a2,t2
9d00633c:	0087001b 	divu	zero,a0,a3
9d006340:	00e001f4 	teq	a3,zero,0x7
9d006344:	11a00009 	beqz	t5,9d00636c <__udivdi3+0x1c0>
9d006348:	00ca2823 	subu	a1,a2,t2
9d00634c:	00c83021 	addu	a2,a2,t0
9d006350:	00c8202b 	sltu	a0,a2,t0
9d006354:	14800004 	bnez	a0,9d006368 <__udivdi3+0x1bc>
9d006358:	2589ffff 	addiu	t1,t4,-1
9d00635c:	00ca202b 	sltu	a0,a2,t2
9d006360:	548000a6 	bnezl	a0,9d0065fc <__udivdi3+0x450>
9d006364:	2589fffe 	addiu	t1,t4,-2
9d006368:	00ca2823 	subu	a1,a2,t2
9d00636c:	3042ffff 	andi	v0,v0,0xffff
9d006370:	00a7001b 	divu	zero,a1,a3
9d006374:	00e001f4 	teq	a3,zero,0x7
9d006378:	00005010 	mfhi	t2
9d00637c:	00003012 	mflo	a2
9d006380:	00002012 	mflo	a0
9d006384:	70cb5802 	mul	t3,a2,t3
9d006388:	000a5400 	sll	t2,t2,0x10
9d00638c:	01421025 	or	v0,t2,v0
9d006390:	004b502b 	sltu	t2,v0,t3
9d006394:	00a7001b 	divu	zero,a1,a3
9d006398:	00e001f4 	teq	a3,zero,0x7
9d00639c:	51400009 	beqzl	t2,9d0063c4 <__udivdi3+0x218>
9d0063a0:	00091400 	sll	v0,t1,0x10
9d0063a4:	00481021 	addu	v0,v0,t0
9d0063a8:	0048402b 	sltu	t0,v0,t0
9d0063ac:	15000004 	bnez	t0,9d0063c0 <__udivdi3+0x214>
9d0063b0:	24c4ffff 	addiu	a0,a2,-1
9d0063b4:	004b582b 	sltu	t3,v0,t3
9d0063b8:	24c6fffe 	addiu	a2,a2,-2
9d0063bc:	00cb200b 	movn	a0,a2,t3
9d0063c0:	00091400 	sll	v0,t1,0x10
9d0063c4:	03e00008 	jr	ra
9d0063c8:	00821025 	or	v0,a0,v0
9d0063cc:	00001821 	move	v1,zero
9d0063d0:	03e00008 	jr	ra
9d0063d4:	00001021 	move	v0,zero
9d0063d8:	00481023 	subu	v0,v0,t0
9d0063dc:	01073804 	sllv	a3,a3,t0
9d0063e0:	00461806 	srlv	v1,a2,v0
9d0063e4:	00673825 	or	a3,v1,a3
9d0063e8:	00455006 	srlv	t2,a1,v0
9d0063ec:	00071c02 	srl	v1,a3,0x10
9d0063f0:	0143001b 	divu	zero,t2,v1
9d0063f4:	006001f4 	teq	v1,zero,0x7
9d0063f8:	00004810 	mfhi	t1
9d0063fc:	00006812 	mflo	t5
9d006400:	30ebffff 	andi	t3,a3,0xffff
9d006404:	01052804 	sllv	a1,a1,t0
9d006408:	00441006 	srlv	v0,a0,v0
9d00640c:	00452825 	or	a1,v0,a1
9d006410:	00057402 	srl	t6,a1,0x10
9d006414:	00001012 	mflo	v0
9d006418:	71ab6002 	mul	t4,t5,t3
9d00641c:	00094c00 	sll	t1,t1,0x10
9d006420:	012e4825 	or	t1,t1,t6
9d006424:	012c702b 	sltu	t6,t1,t4
9d006428:	0143001b 	divu	zero,t2,v1
9d00642c:	006001f4 	teq	v1,zero,0x7
9d006430:	11c0000a 	beqz	t6,9d00645c <__udivdi3+0x2b0>
9d006434:	01063004 	sllv	a2,a2,t0
9d006438:	01274821 	addu	t1,t1,a3
9d00643c:	0127502b 	sltu	t2,t1,a3
9d006440:	15400006 	bnez	t2,9d00645c <__udivdi3+0x2b0>
9d006444:	25a2ffff 	addiu	v0,t5,-1
9d006448:	012c502b 	sltu	t2,t1,t4
9d00644c:	51400004 	beqzl	t2,9d006460 <__udivdi3+0x2b4>
9d006450:	012c4823 	subu	t1,t1,t4
9d006454:	25a2fffe 	addiu	v0,t5,-2
9d006458:	01274821 	addu	t1,t1,a3
9d00645c:	012c4823 	subu	t1,t1,t4
9d006460:	30a5ffff 	andi	a1,a1,0xffff
9d006464:	0123001b 	divu	zero,t1,v1
9d006468:	006001f4 	teq	v1,zero,0x7
9d00646c:	00006810 	mfhi	t5
9d006470:	00006012 	mflo	t4
9d006474:	00005012 	mflo	t2
9d006478:	718b5802 	mul	t3,t4,t3
9d00647c:	000d6c00 	sll	t5,t5,0x10
9d006480:	01a52825 	or	a1,t5,a1
9d006484:	00ab682b 	sltu	t5,a1,t3
9d006488:	0123001b 	divu	zero,t1,v1
9d00648c:	006001f4 	teq	v1,zero,0x7
9d006490:	51a0000b 	beqzl	t5,9d0064c0 <__udivdi3+0x314>
9d006494:	00021400 	sll	v0,v0,0x10
9d006498:	00a72821 	addu	a1,a1,a3
9d00649c:	00a7182b 	sltu	v1,a1,a3
9d0064a0:	14600006 	bnez	v1,9d0064bc <__udivdi3+0x310>
9d0064a4:	258affff 	addiu	t2,t4,-1
9d0064a8:	00ab182b 	sltu	v1,a1,t3
9d0064ac:	50600004 	beqzl	v1,9d0064c0 <__udivdi3+0x314>
9d0064b0:	00021400 	sll	v0,v0,0x10
9d0064b4:	258afffe 	addiu	t2,t4,-2
9d0064b8:	00a72821 	addu	a1,a1,a3
9d0064bc:	00021400 	sll	v0,v0,0x10
9d0064c0:	01421025 	or	v0,t2,v0
9d0064c4:	00ab2823 	subu	a1,a1,t3
9d0064c8:	00460019 	multu	v0,a2
9d0064cc:	00003810 	mfhi	a3
9d0064d0:	00a7182b 	sltu	v1,a1,a3
9d0064d4:	14600044 	bnez	v1,9d0065e8 <__udivdi3+0x43c>
9d0064d8:	00003012 	mflo	a2
9d0064dc:	10a7003f 	beq	a1,a3,9d0065dc <__udivdi3+0x430>
9d0064e0:	01042004 	sllv	a0,a0,t0
9d0064e4:	03e00008 	jr	ra
9d0064e8:	00001821 	move	v1,zero
9d0064ec:	24020020 	li	v0,32
9d0064f0:	00431023 	subu	v0,v0,v1
9d0064f4:	00454806 	srlv	t1,a1,v0
9d0064f8:	00083c02 	srl	a3,t0,0x10
9d0064fc:	0127001b 	divu	zero,t1,a3
9d006500:	00e001f4 	teq	a3,zero,0x7
9d006504:	00003010 	mfhi	a2
9d006508:	00006012 	mflo	t4
9d00650c:	310bffff 	andi	t3,t0,0xffff
9d006510:	00652804 	sllv	a1,a1,v1
9d006514:	00441006 	srlv	v0,a0,v0
9d006518:	00452825 	or	a1,v0,a1
9d00651c:	00056c02 	srl	t5,a1,0x10
9d006520:	00641004 	sllv	v0,a0,v1
9d006524:	00001812 	mflo	v1
9d006528:	718b5002 	mul	t2,t4,t3
9d00652c:	00063400 	sll	a2,a2,0x10
9d006530:	01a63025 	or	a2,t5,a2
9d006534:	00ca202b 	sltu	a0,a2,t2
9d006538:	0127001b 	divu	zero,t1,a3
9d00653c:	00e001f4 	teq	a3,zero,0x7
9d006540:	5080000b 	beqzl	a0,9d006570 <__udivdi3+0x3c4>
9d006544:	00ca3023 	subu	a2,a2,t2
9d006548:	00c83021 	addu	a2,a2,t0
9d00654c:	00c8202b 	sltu	a0,a2,t0
9d006550:	14800006 	bnez	a0,9d00656c <__udivdi3+0x3c0>
9d006554:	2583ffff 	addiu	v1,t4,-1
9d006558:	00ca202b 	sltu	a0,a2,t2
9d00655c:	50800004 	beqzl	a0,9d006570 <__udivdi3+0x3c4>
9d006560:	00ca3023 	subu	a2,a2,t2
9d006564:	2583fffe 	addiu	v1,t4,-2
9d006568:	00c83021 	addu	a2,a2,t0
9d00656c:	00ca3023 	subu	a2,a2,t2
9d006570:	30acffff 	andi	t4,a1,0xffff
9d006574:	00c7001b 	divu	zero,a2,a3
9d006578:	00e001f4 	teq	a3,zero,0x7
9d00657c:	00002010 	mfhi	a0
9d006580:	00005012 	mflo	t2
9d006584:	00004812 	mflo	t1
9d006588:	714b2802 	mul	a1,t2,t3
9d00658c:	00042400 	sll	a0,a0,0x10
9d006590:	008c2025 	or	a0,a0,t4
9d006594:	0085602b 	sltu	t4,a0,a1
9d006598:	00c7001b 	divu	zero,a2,a3
9d00659c:	00e001f4 	teq	a3,zero,0x7
9d0065a0:	5180000b 	beqzl	t4,9d0065d0 <__udivdi3+0x424>
9d0065a4:	00031c00 	sll	v1,v1,0x10
9d0065a8:	00882021 	addu	a0,a0,t0
9d0065ac:	0088302b 	sltu	a2,a0,t0
9d0065b0:	14c00006 	bnez	a2,9d0065cc <__udivdi3+0x420>
9d0065b4:	2549ffff 	addiu	t1,t2,-1
9d0065b8:	0085302b 	sltu	a2,a0,a1
9d0065bc:	50c00004 	beqzl	a2,9d0065d0 <__udivdi3+0x424>
9d0065c0:	00031c00 	sll	v1,v1,0x10
9d0065c4:	2549fffe 	addiu	t1,t2,-2
9d0065c8:	00882021 	addu	a0,a0,t0
9d0065cc:	00031c00 	sll	v1,v1,0x10
9d0065d0:	00852023 	subu	a0,a0,a1
9d0065d4:	0b4018c5 	j	9d006314 <__udivdi3+0x168>
9d0065d8:	01231825 	or	v1,t1,v1
9d0065dc:	0086302b 	sltu	a2,a0,a2
9d0065e0:	10c0ffc0 	beqz	a2,9d0064e4 <__udivdi3+0x338>
9d0065e4:	00000000 	nop
9d0065e8:	0b401939 	j	9d0064e4 <__udivdi3+0x338>
9d0065ec:	2442ffff 	addiu	v0,v0,-1
9d0065f0:	00001821 	move	v1,zero
9d0065f4:	03e00008 	jr	ra
9d0065f8:	24020001 	li	v0,1
9d0065fc:	0b4018da 	j	9d006368 <__udivdi3+0x1bc>
9d006600:	00c83021 	addu	a2,a2,t0

Disassembly of section .text.dp32subadd:

9d006604 <__subdf3>:
9d006604:	3c018000 00e13826                       ...<&8..

9d00660c <__adddf3>:
9d00660c:	00055840 000b5d42 000552c0 00047d42     @X..B]...R..B}..
9d00661c:	014f5025 00044ac0 3c088000 01485025     %PO..J.....<%PH.
9d00662c:	00077040 000e7542 00076ac0 00067d42     @p..Bu...j..B}..
9d00663c:	01af6825 000662c0 01a86825 256fffff     %h...b..%h....o%
9d00664c:	2de107fe 1020008d 00000000              ...-.. .....

9d006658 <Blab1>:
9d006658:	25cfffff 	addiu	t7,t6,-1
9d00665c:	2de107fe 	sltiu	at,t7,2046
9d006660:	102000bb 	beqz	at,9d006950 <BspecB>
9d006664:	00000000 	nop

9d006668 <Blab2>:
9d006668:	3c018000 	lui	at,0x8000
9d00666c:	00a12824 	and	a1,a1,at
9d006670:	016e4023 	subu	t0,t3,t6
9d006674:	1100002c 	beqz	t0,9d006728 <Badd3>
9d006678:	00000000 	nop
9d00667c:	19000015 	blez	t0,9d0066d4 <i1>
9d006680:	00000000 	nop

9d006684 <L1>:
9d006684:	2d010020 	sltiu	at,t0,32
9d006688:	14200007 	bnez	at,9d0066a8 <L2>
9d00668c:	00000000 	nop
9d006690:	2108ffe0 	addi	t0,t0,-32
9d006694:	000c302b 	sltu	a2,zero,t4
9d006698:	100d0023 	beq	zero,t5,9d006728 <Badd3>
9d00669c:	01a66025 	or	t4,t5,a2
9d0066a0:	1000fff8 	b	9d006684 <L1>
9d0066a4:	340d0000 	li	t5,0x0

9d0066a8 <L2>:
9d0066a8:	1100001f 	beqz	t0,9d006728 <Badd3>
9d0066ac:	00000000 	nop
9d0066b0:	00082022 	neg	a0,t0
9d0066b4:	008c3004 	sllv	a2,t4,a0
9d0066b8:	008d2004 	sllv	a0,t5,a0
9d0066bc:	010c6006 	srlv	t4,t4,t0
9d0066c0:	010d6806 	srlv	t5,t5,t0
9d0066c4:	10c00018 	beqz	a2,9d006728 <Badd3>
9d0066c8:	008c6025 	or	t4,a0,t4
9d0066cc:	10000016 	b	9d006728 <Badd3>
9d0066d0:	358c0002 	ori	t4,t4,0x2

9d0066d4 <i1>:
9d0066d4:	000e5825 	or	t3,zero,t6
9d0066d8:	00084023 	negu	t0,t0

9d0066dc <L4>:
9d0066dc:	2d010020 	sltiu	at,t0,32
9d0066e0:	14200007 	bnez	at,9d006700 <L5>
9d0066e4:	00000000 	nop
9d0066e8:	2108ffe0 	addi	t0,t0,-32
9d0066ec:	0009302b 	sltu	a2,zero,t1
9d0066f0:	100a000d 	beq	zero,t2,9d006728 <Badd3>
9d0066f4:	01464825 	or	t1,t2,a2
9d0066f8:	1000fff8 	b	9d0066dc <L4>
9d0066fc:	340a0000 	li	t2,0x0

9d006700 <L5>:
9d006700:	11000009 	beqz	t0,9d006728 <Badd3>
9d006704:	00000000 	nop
9d006708:	00082022 	neg	a0,t0
9d00670c:	00893004 	sllv	a2,t1,a0
9d006710:	008a2004 	sllv	a0,t2,a0
9d006714:	01094806 	srlv	t1,t1,t0
9d006718:	010a5006 	srlv	t2,t2,t0
9d00671c:	10c00002 	beqz	a2,9d006728 <Badd3>
9d006720:	00894825 	or	t1,a0,t1
9d006724:	35290002 	ori	t1,t1,0x2

9d006728 <Badd3>:
9d006728:	00a77826 	xor	t7,a1,a3
9d00672c:	05e0001c 	bltz	t7,9d0067a0 <Bsub1>
9d006730:	00000000 	nop
9d006734:	012c4821 	addu	t1,t1,t4
9d006738:	012c782b 	sltu	t7,t1,t4
9d00673c:	014d5021 	addu	t2,t2,t5
9d006740:	014f5021 	addu	t2,t2,t7
9d006744:	114d0002 	beq	t2,t5,9d006750 <L7>
9d006748:	00000000 	nop
9d00674c:	014d782b 	sltu	t7,t2,t5

9d006750 <L7>:
9d006750:	11e00037 	beqz	t7,9d006830 <Bres>
9d006754:	00000000 	nop
9d006758:	312f0001 	andi	t7,t1,0x1
9d00675c:	11e00002 	beqz	t7,9d006768 <i3>
9d006760:	00000000 	nop
9d006764:	35290002 	ori	t1,t1,0x2

9d006768 <i3>:
9d006768:	00094842 	srl	t1,t1,0x1
9d00676c:	000a7fc0 	sll	t7,t2,0x1f
9d006770:	012f4825 	or	t1,t1,t7
9d006774:	000a5042 	srl	t2,t2,0x1
9d006778:	3c018000 	lui	at,0x8000
9d00677c:	01415025 	or	t2,t2,at
9d006780:	256b0001 	addiu	t3,t3,1
9d006784:	240107ff 	li	at,2047
9d006788:	15610029 	bne	t3,at,9d006830 <Bres>
9d00678c:	00000000 	nop
9d006790:	3c017ff0 	lui	at,0x7ff0
9d006794:	00a12825 	or	a1,a1,at
9d006798:	10000037 	b	9d006878 <BretA>
9d00679c:	24040000 	li	a0,0

9d0067a0 <Bsub1>:
9d0067a0:	012c782b 	sltu	t7,t1,t4
9d0067a4:	012c4823 	subu	t1,t1,t4
9d0067a8:	014f102b 	sltu	v0,t2,t7
9d0067ac:	014f5023 	subu	t2,t2,t7
9d0067b0:	014d782b 	sltu	t7,t2,t5
9d0067b4:	01e27825 	or	t7,t7,v0
9d0067b8:	11e00007 	beqz	t7,9d0067d8 <i5>
9d0067bc:	014d5023 	subu	t2,t2,t5
9d0067c0:	3c018000 	lui	at,0x8000
9d0067c4:	00a12826 	xor	a1,a1,at
9d0067c8:	0009782b 	sltu	t7,zero,t1
9d0067cc:	00094823 	negu	t1,t1
9d0067d0:	000a5023 	negu	t2,t2
9d0067d4:	014f5023 	subu	t2,t2,t7

9d0067d8 <i5>:
9d0067d8:	15400008 	bnez	t2,9d0067fc <L8>
9d0067dc:	00000000 	nop
9d0067e0:	15200003 	bnez	t1,9d0067f0 <L9>
9d0067e4:	00000000 	nop
9d0067e8:	1000000d 	b	9d006820 <L10>
9d0067ec:	240b0000 	li	t3,0

9d0067f0 <L9>:
9d0067f0:	01205025 	move	t2,t1
9d0067f4:	24090000 	li	t1,0
9d0067f8:	256bffe0 	addiu	t3,t3,-32

9d0067fc <L8>:
9d0067fc:	71484020 	clz	t0,t2
9d006800:	11000007 	beqz	t0,9d006820 <L10>
9d006804:	00000000 	nop
9d006808:	01685823 	subu	t3,t3,t0
9d00680c:	00082022 	neg	a0,t0
9d006810:	00892006 	srlv	a0,t1,a0
9d006814:	01094804 	sllv	t1,t1,t0
9d006818:	010a5004 	sllv	t2,t2,t0
9d00681c:	01445025 	or	t2,t2,a0

9d006820 <L10>:
9d006820:	01497825 	or	t7,t2,t1
9d006824:	15e00002 	bnez	t7,9d006830 <Bres>
9d006828:	00000000 	nop
9d00682c:	24050000 	li	a1,0

9d006830 <Bres>:
9d006830:	19600068 	blez	t3,9d0069d4 <Bund>
9d006834:	00000000 	nop

9d006838 <Blab8>:
9d006838:	25290400 	addiu	t1,t1,1024
9d00683c:	2d2f0400 	sltiu	t7,t1,1024
9d006840:	014f5021 	addu	t2,t2,t7
9d006844:	014f782b 	sltu	t7,t2,t7
9d006848:	016f5821 	addu	t3,t3,t7
9d00684c:	00097ac2 	srl	t7,t1,0xb
9d006850:	31ef0001 	andi	t7,t7,0x1
9d006854:	012f4823 	subu	t1,t1,t7
9d006858:	000922c2 	srl	a0,t1,0xb
9d00685c:	000a7d40 	sll	t7,t2,0x15
9d006860:	008f2025 	or	a0,a0,t7
9d006864:	000a7840 	sll	t7,t2,0x1
9d006868:	000f7b02 	srl	t7,t7,0xc
9d00686c:	00af2825 	or	a1,a1,t7
9d006870:	000b7d00 	sll	t7,t3,0x14
9d006874:	00af2825 	or	a1,a1,t7

9d006878 <BretA>:
9d006878:	00041025 	or	v0,zero,a0
9d00687c:	00051825 	or	v1,zero,a1

9d006880 <B999>:
9d006880:	03e00008 	jr	ra
9d006884:	00000000 	nop

9d006888 <BspecA>:
9d006888:	0120782a 	slt	t7,t1,zero
9d00688c:	01294821 	addu	t1,t1,t1
9d006890:	014a5021 	addu	t2,t2,t2
9d006894:	15600023 	bnez	t3,9d006924 <i7>
9d006898:	014f5021 	addu	t2,t2,t7
9d00689c:	01497825 	or	t7,t2,t1
9d0068a0:	11e00014 	beqz	t7,9d0068f4 <i8>
9d0068a4:	00000000 	nop
9d0068a8:	15400008 	bnez	t2,9d0068cc <L11>
9d0068ac:	00000000 	nop
9d0068b0:	15200003 	bnez	t1,9d0068c0 <L12>
9d0068b4:	00000000 	nop
9d0068b8:	1000ff67 	b	9d006658 <Blab1>
9d0068bc:	240b0000 	li	t3,0

9d0068c0 <L12>:
9d0068c0:	01205025 	move	t2,t1
9d0068c4:	24090000 	li	t1,0
9d0068c8:	256bffe0 	addiu	t3,t3,-32

9d0068cc <L11>:
9d0068cc:	71484020 	clz	t0,t2
9d0068d0:	1100ff61 	beqz	t0,9d006658 <Blab1>
9d0068d4:	00000000 	nop
9d0068d8:	01685823 	subu	t3,t3,t0
9d0068dc:	00082022 	neg	a0,t0
9d0068e0:	00892006 	srlv	a0,t1,a0
9d0068e4:	01094804 	sllv	t1,t1,t0
9d0068e8:	010a5004 	sllv	t2,t2,t0
9d0068ec:	1000ff5a 	b	9d006658 <Blab1>
9d0068f0:	01445025 	or	t2,t2,a0

9d0068f4 <i8>:
9d0068f4:	240107ff 	li	at,2047
9d0068f8:	11c10015 	beq	t6,at,9d006950 <BspecB>
9d0068fc:	00000000 	nop
9d006900:	00e74021 	addu	t0,a3,a3
9d006904:	01067825 	or	t7,t0,a2
9d006908:	15e00003 	bnez	t7,9d006918 <BretB>
9d00690c:	00000000 	nop
9d006910:	04e0ffd9 	bltz	a3,9d006878 <BretA>
9d006914:	00000000 	nop

9d006918 <BretB>:
9d006918:	00061025 	or	v0,zero,a2
9d00691c:	1000ffd8 	b	9d006880 <B999>
9d006920:	00071825 	or	v1,zero,a3

9d006924 <i7>:
9d006924:	01497825 	or	t7,t2,t1
9d006928:	15e00027 	bnez	t7,9d0069c8 <Bnan>
9d00692c:	00000000 	nop
9d006930:	240107ff 	li	at,2047
9d006934:	15c1ffd0 	bne	t6,at,9d006878 <BretA>
9d006938:	00000000 	nop
9d00693c:	00a77826 	xor	t7,a1,a3
9d006940:	05e00021 	bltz	t7,9d0069c8 <Bnan>
9d006944:	00000000 	nop
9d006948:	1000fff3 	b	9d006918 <BretB>
9d00694c:	00000000 	nop

9d006950 <BspecB>:
9d006950:	0180782a 	slt	t7,t4,zero
9d006954:	018c6021 	addu	t4,t4,t4
9d006958:	01ad6821 	addu	t5,t5,t5
9d00695c:	15c00017 	bnez	t6,9d0069bc <i11>
9d006960:	01af6821 	addu	t5,t5,t7
9d006964:	01ac7825 	or	t7,t5,t4
9d006968:	11e0ffc3 	beqz	t7,9d006878 <BretA>
9d00696c:	00000000 	nop
9d006970:	15a00008 	bnez	t5,9d006994 <L14>
9d006974:	00000000 	nop
9d006978:	15800003 	bnez	t4,9d006988 <L15>
9d00697c:	00000000 	nop
9d006980:	1000ff39 	b	9d006668 <Blab2>
9d006984:	240e0000 	li	t6,0

9d006988 <L15>:
9d006988:	01806825 	move	t5,t4
9d00698c:	240c0000 	li	t4,0
9d006990:	25ceffe0 	addiu	t6,t6,-32

9d006994 <L14>:
9d006994:	71a84020 	clz	t0,t5
9d006998:	1100ff33 	beqz	t0,9d006668 <Blab2>
9d00699c:	00000000 	nop
9d0069a0:	01c87023 	subu	t6,t6,t0
9d0069a4:	00082022 	neg	a0,t0
9d0069a8:	008c2006 	srlv	a0,t4,a0
9d0069ac:	010c6004 	sllv	t4,t4,t0
9d0069b0:	010d6804 	sllv	t5,t5,t0
9d0069b4:	1000ff2c 	b	9d006668 <Blab2>
9d0069b8:	01a46825 	or	t5,t5,a0

9d0069bc <i11>:
9d0069bc:	01ac7825 	or	t7,t5,t4
9d0069c0:	11e0ffd5 	beqz	t7,9d006918 <BretB>
9d0069c4:	00000000 	nop

9d0069c8 <Bnan>:
9d0069c8:	3c05fff8 	lui	a1,0xfff8
9d0069cc:	1000ffaa 	b	9d006878 <BretA>
9d0069d0:	24040000 	li	a0,0

9d0069d4 <Bund>:
9d0069d4:	24080001 	li	t0,1
9d0069d8:	010b4023 	subu	t0,t0,t3

9d0069dc <L17>:
9d0069dc:	2d010020 	sltiu	at,t0,32
9d0069e0:	14200007 	bnez	at,9d006a00 <L18>
9d0069e4:	00000000 	nop
9d0069e8:	2108ffe0 	addi	t0,t0,-32
9d0069ec:	0009302b 	sltu	a2,zero,t1
9d0069f0:	100a000d 	beq	zero,t2,9d006a28 <L19>
9d0069f4:	01464825 	or	t1,t2,a2
9d0069f8:	1000fff8 	b	9d0069dc <L17>
9d0069fc:	340a0000 	li	t2,0x0

9d006a00 <L18>:
9d006a00:	11000009 	beqz	t0,9d006a28 <L19>
9d006a04:	00000000 	nop
9d006a08:	00082022 	neg	a0,t0
9d006a0c:	00893004 	sllv	a2,t1,a0
9d006a10:	008a2004 	sllv	a0,t2,a0
9d006a14:	01094806 	srlv	t1,t1,t0
9d006a18:	010a5006 	srlv	t2,t2,t0
9d006a1c:	10c00002 	beqz	a2,9d006a28 <L19>
9d006a20:	00894825 	or	t1,a0,t1
9d006a24:	35290002 	ori	t1,t1,0x2

9d006a28 <L19>:
9d006a28:	1000ff83 	b	9d006838 <Blab8>
9d006a2c:	240b0000 	li	t3,0
9d006a30:	00000000 	nop

Disassembly of section .text.__strtod:

9d006a34 <__strtod>:
9d006a34:	27bdffc8 	addiu	sp,sp,-56
9d006a38:	afbf0034 	sw	ra,52(sp)
9d006a3c:	afbe0030 	sw	s8,48(sp)
9d006a40:	afb7002c 	sw	s7,44(sp)
9d006a44:	afb60028 	sw	s6,40(sp)
9d006a48:	afb50024 	sw	s5,36(sp)
9d006a4c:	afb40020 	sw	s4,32(sp)
9d006a50:	afb3001c 	sw	s3,28(sp)
9d006a54:	afb20018 	sw	s2,24(sp)
9d006a58:	afb10014 	sw	s1,20(sp)
9d006a5c:	afb00010 	sw	s0,16(sp)
9d006a60:	0080b821 	move	s7,a0
9d006a64:	80820000 	lb	v0,0(a0)
9d006a68:	3c1e9d01 	lui	s8,0x9d01
9d006a6c:	27dea0b5 	addiu	s8,s8,-24395
9d006a70:	03c21821 	addu	v1,s8,v0
9d006a74:	80630000 	lb	v1,0(v1)
9d006a78:	00a0a821 	move	s5,a1
9d006a7c:	30630088 	andi	v1,v1,0x88
9d006a80:	10600008 	beqz	v1,9d006aa4 <__strtod+0x70>
9d006a84:	0080a021 	move	s4,a0
9d006a88:	26940001 	addiu	s4,s4,1
9d006a8c:	82820000 	lb	v0,0(s4)
9d006a90:	03c21821 	addu	v1,s8,v0
9d006a94:	80630000 	lb	v1,0(v1)
9d006a98:	30630088 	andi	v1,v1,0x88
9d006a9c:	5460fffb 	bnezl	v1,9d006a8c <__strtod+0x58>
9d006aa0:	26940001 	addiu	s4,s4,1
9d006aa4:	2403002d 	li	v1,45
9d006aa8:	10430098 	beq	v0,v1,9d006d0c <__strtod+0x2d8>
9d006aac:	3842002b 	xori	v0,v0,0x2b
9d006ab0:	2c420001 	sltiu	v0,v0,1
9d006ab4:	00009821 	move	s3,zero
9d006ab8:	0282a021 	addu	s4,s4,v0
9d006abc:	82860000 	lb	a2,0(s4)
9d006ac0:	03c61021 	addu	v0,s8,a2
9d006ac4:	90420000 	lbu	v0,0(v0)
9d006ac8:	30420004 	andi	v0,v0,0x4
9d006acc:	00008821 	move	s1,zero
9d006ad0:	104000bc 	beqz	v0,9d006dc4 <__strtod+0x390>
9d006ad4:	00008021 	move	s0,zero
9d006ad8:	00009021 	move	s2,zero
9d006adc:	24d6ffd0 	addiu	s6,a2,-48
9d006ae0:	02002821 	move	a1,s0
9d006ae4:	02202021 	move	a0,s1
9d006ae8:	00003021 	move	a2,zero
9d006aec:	0f401e11 	jal	9d007844 <.LFE23>
9d006af0:	3c074024 	lui	a3,0x4024
9d006af4:	00408021 	move	s0,v0
9d006af8:	00608821 	move	s1,v1
9d006afc:	0f402c3c 	jal	9d00b0f0 <__floatsidf>
9d006b00:	02c02021 	move	a0,s6
9d006b04:	02002021 	move	a0,s0
9d006b08:	02202821 	move	a1,s1
9d006b0c:	00403021 	move	a2,v0
9d006b10:	00603821 	move	a3,v1
9d006b14:	0f401983 	jal	9d00660c <__adddf3>
9d006b18:	26940001 	addiu	s4,s4,1
9d006b1c:	00408821 	move	s1,v0
9d006b20:	00608021 	move	s0,v1
9d006b24:	82860000 	lb	a2,0(s4)
9d006b28:	03c61021 	addu	v0,s8,a2
9d006b2c:	90420000 	lbu	v0,0(v0)
9d006b30:	30420004 	andi	v0,v0,0x4
9d006b34:	1440ffe9 	bnez	v0,9d006adc <__strtod+0xa8>
9d006b38:	02569025 	or	s2,s2,s6
9d006b3c:	24030001 	li	v1,1
9d006b40:	2402002e 	li	v0,46
9d006b44:	50c20048 	beql	a2,v0,9d006c68 <__strtod+0x234>
9d006b48:	82820001 	lb	v0,1(s4)
9d006b4c:	54600072 	bnezl	v1,9d006d18 <__strtod+0x2e4>
9d006b50:	82820000 	lb	v0,0(s4)
9d006b54:	12a0002a 	beqz	s5,9d006c00 <__strtod+0x1cc>
9d006b58:	00000000 	nop
9d006b5c:	02e0a021 	move	s4,s7
9d006b60:	0000b821 	move	s7,zero
9d006b64:	aeb40000 	sw	s4,0(s5)
9d006b68:	12e00025 	beqz	s7,9d006c00 <__strtod+0x1cc>
9d006b6c:	00004021 	move	t0,zero
9d006b70:	001717c3 	sra	v0,s7,0x1f
9d006b74:	0057b026 	xor	s6,v0,s7
9d006b78:	02c2b023 	subu	s6,s6,v0
9d006b7c:	3c159d01 	lui	s5,0x9d01
9d006b80:	26b5b704 	addiu	s5,s5,-18684
9d006b84:	3c093ff0 	lui	t1,0x3ff0
9d006b88:	0b401ae6 	j	9d006b98 <__strtod+0x164>
9d006b8c:	24140009 	li	s4,9
9d006b90:	1280000e 	beqz	s4,9d006bcc <__strtod+0x198>
9d006b94:	26b5fff8 	addiu	s5,s5,-8
9d006b98:	2694ffff 	addiu	s4,s4,-1
9d006b9c:	02961007 	srav	v0,s6,s4
9d006ba0:	30420001 	andi	v0,v0,0x1
9d006ba4:	1040fffa 	beqz	v0,9d006b90 <__strtod+0x15c>
9d006ba8:	01002021 	move	a0,t0
9d006bac:	8ea60000 	lw	a2,0(s5)
9d006bb0:	8ea70004 	lw	a3,4(s5)
9d006bb4:	0f401e11 	jal	9d007844 <.LFE23>
9d006bb8:	01202821 	move	a1,t1
9d006bbc:	00404021 	move	t0,v0
9d006bc0:	00604821 	move	t1,v1
9d006bc4:	1680fff4 	bnez	s4,9d006b98 <__strtod+0x164>
9d006bc8:	26b5fff8 	addiu	s5,s5,-8
9d006bcc:	02202021 	move	a0,s1
9d006bd0:	02002821 	move	a1,s0
9d006bd4:	01003021 	move	a2,t0
9d006bd8:	06e00075 	bltz	s7,9d006db0 <__strtod+0x37c>
9d006bdc:	01203821 	move	a3,t1
9d006be0:	0f401e11 	jal	9d007844 <.LFE23>
9d006be4:	00000000 	nop
9d006be8:	00402021 	move	a0,v0
9d006bec:	00602821 	move	a1,v1
9d006bf0:	0f4025ee 	jal	9d0097b8 <__ldexp>
9d006bf4:	02e03021 	move	a2,s7
9d006bf8:	00408821 	move	s1,v0
9d006bfc:	00608021 	move	s0,v1
9d006c00:	1220007b 	beqz	s1,9d006df0 <__strtod+0x3bc>
9d006c04:	7e02f000 	ext	v0,s0,0x0,0x1f
9d006c08:	02301025 	or	v0,s1,s0
9d006c0c:	10400073 	beqz	v0,9d006ddc <__strtod+0x3a8>
9d006c10:	00000000 	nop
9d006c14:	12600007 	beqz	s3,9d006c34 <__strtod+0x200>
9d006c18:	02201021 	move	v0,s1
9d006c1c:	02202021 	move	a0,s1
9d006c20:	0f402eb0 	jal	9d00bac0 <__negdf2>
9d006c24:	02002821 	move	a1,s0
9d006c28:	00408821 	move	s1,v0
9d006c2c:	00608021 	move	s0,v1
9d006c30:	02201021 	move	v0,s1
9d006c34:	02001821 	move	v1,s0
9d006c38:	8fbf0034 	lw	ra,52(sp)
9d006c3c:	8fbe0030 	lw	s8,48(sp)
9d006c40:	8fb7002c 	lw	s7,44(sp)
9d006c44:	8fb60028 	lw	s6,40(sp)
9d006c48:	8fb50024 	lw	s5,36(sp)
9d006c4c:	8fb40020 	lw	s4,32(sp)
9d006c50:	8fb3001c 	lw	s3,28(sp)
9d006c54:	8fb20018 	lw	s2,24(sp)
9d006c58:	8fb10014 	lw	s1,20(sp)
9d006c5c:	8fb00010 	lw	s0,16(sp)
9d006c60:	03e00008 	jr	ra
9d006c64:	27bd0038 	addiu	sp,sp,56
9d006c68:	03c22021 	addu	a0,s8,v0
9d006c6c:	90840000 	lbu	a0,0(a0)
9d006c70:	30840004 	andi	a0,a0,0x4
9d006c74:	1080ffb5 	beqz	a0,9d006b4c <__strtod+0x118>
9d006c78:	26940001 	addiu	s4,s4,1
9d006c7c:	0000b821 	move	s7,zero
9d006c80:	2456ffd0 	addiu	s6,v0,-48
9d006c84:	02002821 	move	a1,s0
9d006c88:	02202021 	move	a0,s1
9d006c8c:	00003021 	move	a2,zero
9d006c90:	0f401e11 	jal	9d007844 <.LFE23>
9d006c94:	3c074024 	lui	a3,0x4024
9d006c98:	00408021 	move	s0,v0
9d006c9c:	00608821 	move	s1,v1
9d006ca0:	0f402c3c 	jal	9d00b0f0 <__floatsidf>
9d006ca4:	02c02021 	move	a0,s6
9d006ca8:	02002021 	move	a0,s0
9d006cac:	02202821 	move	a1,s1
9d006cb0:	00403021 	move	a2,v0
9d006cb4:	00603821 	move	a3,v1
9d006cb8:	0f401983 	jal	9d00660c <__adddf3>
9d006cbc:	26940001 	addiu	s4,s4,1
9d006cc0:	00408821 	move	s1,v0
9d006cc4:	00608021 	move	s0,v1
9d006cc8:	82820000 	lb	v0,0(s4)
9d006ccc:	02569025 	or	s2,s2,s6
9d006cd0:	03c21821 	addu	v1,s8,v0
9d006cd4:	90630000 	lbu	v1,0(v1)
9d006cd8:	30630004 	andi	v1,v1,0x4
9d006cdc:	1460ffe8 	bnez	v1,9d006c80 <__strtod+0x24c>
9d006ce0:	26f7ffff 	addiu	s7,s7,-1
9d006ce4:	2403ffdf 	li	v1,-33
9d006ce8:	00431824 	and	v1,v0,v1
9d006cec:	7c031c20 	seb	v1,v1
9d006cf0:	24020045 	li	v0,69
9d006cf4:	5062000f 	beql	v1,v0,9d006d34 <__strtod+0x300>
9d006cf8:	82830001 	lb	v1,1(s4)
9d006cfc:	56a0ff9a 	bnezl	s5,9d006b68 <__strtod+0x134>
9d006d00:	aeb40000 	sw	s4,0(s5)
9d006d04:	0b401ada 	j	9d006b68 <__strtod+0x134>
9d006d08:	00000000 	nop
9d006d0c:	26940001 	addiu	s4,s4,1
9d006d10:	0b401aaf 	j	9d006abc <__strtod+0x88>
9d006d14:	24130001 	li	s3,1
9d006d18:	2403ffdf 	li	v1,-33
9d006d1c:	00431824 	and	v1,v0,v1
9d006d20:	7c031c20 	seb	v1,v1
9d006d24:	24020045 	li	v0,69
9d006d28:	1462fff4 	bne	v1,v0,9d006cfc <__strtod+0x2c8>
9d006d2c:	0000b821 	move	s7,zero
9d006d30:	82830001 	lb	v1,1(s4)
9d006d34:	2402002d 	li	v0,45
9d006d38:	10620019 	beq	v1,v0,9d006da0 <__strtod+0x36c>
9d006d3c:	2402002b 	li	v0,43
9d006d40:	50620023 	beql	v1,v0,9d006dd0 <__strtod+0x39c>
9d006d44:	82830002 	lb	v1,2(s4)
9d006d48:	26940001 	addiu	s4,s4,1
9d006d4c:	00003821 	move	a3,zero
9d006d50:	03c31021 	addu	v0,s8,v1
9d006d54:	90420000 	lbu	v0,0(v0)
9d006d58:	30420004 	andi	v0,v0,0x4
9d006d5c:	1040000c 	beqz	v0,9d006d90 <__strtod+0x35c>
9d006d60:	00001021 	move	v0,zero
9d006d64:	26940001 	addiu	s4,s4,1
9d006d68:	2465ffd0 	addiu	a1,v1,-48
9d006d6c:	82830000 	lb	v1,0(s4)
9d006d70:	00023040 	sll	a2,v0,0x1
9d006d74:	000210c0 	sll	v0,v0,0x3
9d006d78:	03c32021 	addu	a0,s8,v1
9d006d7c:	90840000 	lbu	a0,0(a0)
9d006d80:	00c21021 	addu	v0,a2,v0
9d006d84:	30840004 	andi	a0,a0,0x4
9d006d88:	1480fff6 	bnez	a0,9d006d64 <__strtod+0x330>
9d006d8c:	00451021 	addu	v0,v0,a1
9d006d90:	00021823 	negu	v1,v0
9d006d94:	0067100b 	movn	v0,v1,a3
9d006d98:	0b401b3f 	j	9d006cfc <__strtod+0x2c8>
9d006d9c:	02e2b821 	addu	s7,s7,v0
9d006da0:	82830002 	lb	v1,2(s4)
9d006da4:	24070001 	li	a3,1
9d006da8:	0b401b54 	j	9d006d50 <__strtod+0x31c>
9d006dac:	26940002 	addiu	s4,s4,2
9d006db0:	0f4014f7 	jal	9d0053dc <__divdf3>
9d006db4:	00000000 	nop
9d006db8:	00402021 	move	a0,v0
9d006dbc:	0b401afc 	j	9d006bf0 <__strtod+0x1bc>
9d006dc0:	00602821 	move	a1,v1
9d006dc4:	00001821 	move	v1,zero
9d006dc8:	0b401ad0 	j	9d006b40 <__strtod+0x10c>
9d006dcc:	00009021 	move	s2,zero
9d006dd0:	00003821 	move	a3,zero
9d006dd4:	0b401b54 	j	9d006d50 <__strtod+0x31c>
9d006dd8:	26940002 	addiu	s4,s4,2
9d006ddc:	1240ff8d 	beqz	s2,9d006c14 <__strtod+0x1e0>
9d006de0:	24030022 	li	v1,34
9d006de4:	3c02a000 	lui	v0,0xa000
9d006de8:	0b401b05 	j	9d006c14 <__strtod+0x1e0>
9d006dec:	ac430038 	sw	v1,56(v0)
9d006df0:	3c037ff0 	lui	v1,0x7ff0
9d006df4:	1443ff85 	bne	v0,v1,9d006c0c <__strtod+0x1d8>
9d006df8:	02301025 	or	v0,s1,s0
9d006dfc:	0b401b79 	j	9d006de4 <__strtod+0x3b0>
9d006e00:	24030022 	li	v1,34

Disassembly of section .text.strtoll:

9d006e04 <strtoll>:
9d006e04:	27bdffd0 	addiu	sp,sp,-48
9d006e08:	afbf002c 	sw	ra,44(sp)
9d006e0c:	afb60028 	sw	s6,40(sp)
9d006e10:	afb50024 	sw	s5,36(sp)
9d006e14:	afb40020 	sw	s4,32(sp)
9d006e18:	afb3001c 	sw	s3,28(sp)
9d006e1c:	afb20018 	sw	s2,24(sp)
9d006e20:	afb10014 	sw	s1,20(sp)
9d006e24:	afb00010 	sw	s0,16(sp)
9d006e28:	00809821 	move	s3,a0
9d006e2c:	80820000 	lb	v0,0(a0)
9d006e30:	00a0a021 	move	s4,a1
9d006e34:	104000c0 	beqz	v0,9d007138 <strtoll+0x334>
9d006e38:	00c09021 	move	s2,a2
9d006e3c:	3c049d01 	lui	a0,0x9d01
9d006e40:	2484a0b5 	addiu	a0,a0,-24395
9d006e44:	00821821 	addu	v1,a0,v0
9d006e48:	80630000 	lb	v1,0(v1)
9d006e4c:	30630088 	andi	v1,v1,0x88
9d006e50:	14600007 	bnez	v1,9d006e70 <strtoll+0x6c>
9d006e54:	02608821 	move	s1,s3
9d006e58:	0b401c1c 	j	9d007070 <strtoll+0x26c>
9d006e5c:	2403002b 	li	v1,43
9d006e60:	80630000 	lb	v1,0(v1)
9d006e64:	30630088 	andi	v1,v1,0x88
9d006e68:	50600081 	beqzl	v1,9d007070 <strtoll+0x26c>
9d006e6c:	2403002b 	li	v1,43
9d006e70:	26310001 	addiu	s1,s1,1
9d006e74:	82220000 	lb	v0,0(s1)
9d006e78:	1440fff9 	bnez	v0,9d006e60 <strtoll+0x5c>
9d006e7c:	00821821 	addu	v1,a0,v0
9d006e80:	00008021 	move	s0,zero
9d006e84:	0000b021 	move	s6,zero
9d006e88:	16400063 	bnez	s2,9d007018 <strtoll+0x214>
9d006e8c:	24020010 	li	v0,16
9d006e90:	24020030 	li	v0,48
9d006e94:	12020090 	beq	s0,v0,9d0070d8 <strtoll+0x2d4>
9d006e98:	3c0fcccc 	lui	t7,0xcccc
9d006e9c:	35efcccc 	ori	t7,t7,0xcccc
9d006ea0:	3c0b0ccc 	lui	t3,0xccc
9d006ea4:	356bcccc 	ori	t3,t3,0xcccc
9d006ea8:	240c000a 	li	t4,10
9d006eac:	0000a821 	move	s5,zero
9d006eb0:	00002021 	move	a0,zero
9d006eb4:	2412000a 	li	s2,10
9d006eb8:	2628ffff 	addiu	t0,s1,-1
9d006ebc:	00002821 	move	a1,zero
9d006ec0:	00001021 	move	v0,zero
9d006ec4:	00001821 	move	v1,zero
9d006ec8:	3c079d01 	lui	a3,0x9d01
9d006ecc:	24e7a0b5 	addiu	a3,a3,-24395
9d006ed0:	240e0061 	li	t6,97
9d006ed4:	240d0041 	li	t5,65
9d006ed8:	3c187fff 	lui	t8,0x7fff
9d006edc:	3718ffff 	ori	t8,t8,0xffff
9d006ee0:	1200002c 	beqz	s0,9d006f94 <strtoll+0x190>
9d006ee4:	25080001 	addiu	t0,t0,1
9d006ee8:	02074821 	addu	t1,s0,a3
9d006eec:	91290000 	lbu	t1,0(t1)
9d006ef0:	312a0004 	andi	t2,t1,0x4
9d006ef4:	11400041 	beqz	t2,9d006ffc <strtoll+0x1f8>
9d006ef8:	31260003 	andi	a2,t1,0x3
9d006efc:	2610ffd0 	addiu	s0,s0,-48
9d006f00:	06000024 	bltz	s0,9d006f94 <strtoll+0x190>
9d006f04:	0212482a 	slt	t1,s0,s2
9d006f08:	11200022 	beqz	t1,9d006f94 <strtoll+0x190>
9d006f0c:	0163482a 	slt	t1,t3,v1
9d006f10:	55200037 	bnezl	t1,9d006ff0 <strtoll+0x1ec>
9d006f14:	24050001 	li	a1,1
9d006f18:	146b0003 	bne	v1,t3,9d006f28 <strtoll+0x124>
9d006f1c:	01e2202b 	sltu	a0,t7,v0
9d006f20:	54800033 	bnezl	a0,9d006ff0 <strtoll+0x1ec>
9d006f24:	24050001 	li	a1,1
9d006f28:	14a00030 	bnez	a1,9d006fec <strtoll+0x1e8>
9d006f2c:	02a20018 	mult	s5,v0
9d006f30:	001027c3 	sra	a0,s0,0x1f
9d006f34:	71830000 	madd	t4,v1
9d006f38:	00003012 	mflo	a2
9d006f3c:	004c0019 	multu	v0,t4
9d006f40:	00001012 	mflo	v0
9d006f44:	00001810 	mfhi	v1
9d006f48:	00c31821 	addu	v1,a2,v1
9d006f4c:	03033023 	subu	a2,t8,v1
9d006f50:	00c4482a 	slt	t1,a2,a0
9d006f54:	15200025 	bnez	t1,9d006fec <strtoll+0x1e8>
9d006f58:	00025027 	nor	t2,zero,v0
9d006f5c:	54860005 	bnel	a0,a2,9d006f74 <strtoll+0x170>
9d006f60:	02028021 	addu	s0,s0,v0
9d006f64:	0150502b 	sltu	t2,t2,s0
9d006f68:	55400021 	bnezl	t2,9d006ff0 <strtoll+0x1ec>
9d006f6c:	24050001 	li	a1,1
9d006f70:	02028021 	addu	s0,s0,v0
9d006f74:	0202302b 	sltu	a2,s0,v0
9d006f78:	00642021 	addu	a0,v1,a0
9d006f7c:	02001021 	move	v0,s0
9d006f80:	00c41821 	addu	v1,a2,a0
9d006f84:	81100001 	lb	s0,1(t0)
9d006f88:	24040001 	li	a0,1
9d006f8c:	1600ffd6 	bnez	s0,9d006ee8 <strtoll+0xe4>
9d006f90:	25080001 	addiu	t0,t0,1
9d006f94:	12c0002d 	beqz	s6,9d00704c <strtoll+0x248>
9d006f98:	00000000 	nop
9d006f9c:	54a0003b 	bnezl	a1,9d00708c <strtoll+0x288>
9d006fa0:	24030022 	li	v1,34
9d006fa4:	00023823 	negu	a3,v0
9d006fa8:	0007282b 	sltu	a1,zero,a3
9d006fac:	00033023 	negu	a2,v1
9d006fb0:	00e01021 	move	v0,a3
9d006fb4:	00c51823 	subu	v1,a2,a1
9d006fb8:	12800002 	beqz	s4,9d006fc4 <strtoll+0x1c0>
9d006fbc:	0264400a 	movz	t0,s3,a0
9d006fc0:	ae880000 	sw	t0,0(s4)
9d006fc4:	8fbf002c 	lw	ra,44(sp)
9d006fc8:	8fb60028 	lw	s6,40(sp)
9d006fcc:	8fb50024 	lw	s5,36(sp)
9d006fd0:	8fb40020 	lw	s4,32(sp)
9d006fd4:	8fb3001c 	lw	s3,28(sp)
9d006fd8:	8fb20018 	lw	s2,24(sp)
9d006fdc:	8fb10014 	lw	s1,20(sp)
9d006fe0:	8fb00010 	lw	s0,16(sp)
9d006fe4:	03e00008 	jr	ra
9d006fe8:	27bd0030 	addiu	sp,sp,48
9d006fec:	24050001 	li	a1,1
9d006ff0:	81100001 	lb	s0,1(t0)
9d006ff4:	0b401be3 	j	9d006f8c <strtoll+0x188>
9d006ff8:	24040001 	li	a0,1
9d006ffc:	10c0ffe5 	beqz	a2,9d006f94 <strtoll+0x190>
9d007000:	31290001 	andi	t1,t1,0x1
9d007004:	01a03021 	move	a2,t5
9d007008:	01c9300a 	movz	a2,t6,t1
9d00700c:	02068023 	subu	s0,s0,a2
9d007010:	0b401bc0 	j	9d006f00 <strtoll+0xfc>
9d007014:	2610000a 	addiu	s0,s0,10
9d007018:	12420026 	beq	s2,v0,9d0070b4 <strtoll+0x2b0>
9d00701c:	0012afc3 	sra	s5,s2,0x1f
9d007020:	2404ffff 	li	a0,-1
9d007024:	3c057fff 	lui	a1,0x7fff
9d007028:	34a5ffff 	ori	a1,a1,0xffff
9d00702c:	02403021 	move	a2,s2
9d007030:	0f401625 	jal	9d005894 <__divdi3>
9d007034:	02a03821 	move	a3,s5
9d007038:	02406021 	move	t4,s2
9d00703c:	00407821 	move	t7,v0
9d007040:	00605821 	move	t3,v1
9d007044:	0b401bae 	j	9d006eb8 <strtoll+0xb4>
9d007048:	00002021 	move	a0,zero
9d00704c:	10a0ffda 	beqz	a1,9d006fb8 <strtoll+0x1b4>
9d007050:	00000000 	nop
9d007054:	24030022 	li	v1,34
9d007058:	3c02a000 	lui	v0,0xa000
9d00705c:	ac430038 	sw	v1,56(v0)
9d007060:	2402ffff 	li	v0,-1
9d007064:	3c037fff 	lui	v1,0x7fff
9d007068:	0b401bee 	j	9d006fb8 <strtoll+0x1b4>
9d00706c:	3463ffff 	ori	v1,v1,0xffff
9d007070:	5443000b 	bnel	v0,v1,9d0070a0 <strtoll+0x29c>
9d007074:	2403002d 	li	v1,45
9d007078:	3842002d 	xori	v0,v0,0x2d
9d00707c:	82300001 	lb	s0,1(s1)
9d007080:	2c560001 	sltiu	s6,v0,1
9d007084:	0b401ba2 	j	9d006e88 <strtoll+0x84>
9d007088:	26310001 	addiu	s1,s1,1
9d00708c:	3c02a000 	lui	v0,0xa000
9d007090:	ac430038 	sw	v1,56(v0)
9d007094:	00001021 	move	v0,zero
9d007098:	0b401bee 	j	9d006fb8 <strtoll+0x1b4>
9d00709c:	3c038000 	lui	v1,0x8000
9d0070a0:	5043fff6 	beql	v0,v1,9d00707c <strtoll+0x278>
9d0070a4:	3842002d 	xori	v0,v0,0x2d
9d0070a8:	82300000 	lb	s0,0(s1)
9d0070ac:	0b401ba2 	j	9d006e88 <strtoll+0x84>
9d0070b0:	0000b021 	move	s6,zero
9d0070b4:	24020030 	li	v0,48
9d0070b8:	12020023 	beq	s0,v0,9d007148 <strtoll+0x344>
9d0070bc:	240fffff 	li	t7,-1
9d0070c0:	3c0b07ff 	lui	t3,0x7ff
9d0070c4:	356bffff 	ori	t3,t3,0xffff
9d0070c8:	240c0010 	li	t4,16
9d0070cc:	0000a821 	move	s5,zero
9d0070d0:	0b401bae 	j	9d006eb8 <strtoll+0xb4>
9d0070d4:	00002021 	move	a0,zero
9d0070d8:	82300001 	lb	s0,1(s1)
9d0070dc:	2403ffdf 	li	v1,-33
9d0070e0:	02031824 	and	v1,s0,v1
9d0070e4:	24020058 	li	v0,88
9d0070e8:	5062000a 	beql	v1,v0,9d007114 <strtoll+0x310>
9d0070ec:	82300002 	lb	s0,2(s1)
9d0070f0:	26310001 	addiu	s1,s1,1
9d0070f4:	240fffff 	li	t7,-1
9d0070f8:	3c0b0fff 	lui	t3,0xfff
9d0070fc:	356bffff 	ori	t3,t3,0xffff
9d007100:	240c0008 	li	t4,8
9d007104:	0000a821 	move	s5,zero
9d007108:	24040001 	li	a0,1
9d00710c:	0b401bae 	j	9d006eb8 <strtoll+0xb4>
9d007110:	24120008 	li	s2,8
9d007114:	240fffff 	li	t7,-1
9d007118:	26310002 	addiu	s1,s1,2
9d00711c:	3c0b07ff 	lui	t3,0x7ff
9d007120:	356bffff 	ori	t3,t3,0xffff
9d007124:	240c0010 	li	t4,16
9d007128:	0000a821 	move	s5,zero
9d00712c:	24040001 	li	a0,1
9d007130:	0b401bae 	j	9d006eb8 <strtoll+0xb4>
9d007134:	24120010 	li	s2,16
9d007138:	00008021 	move	s0,zero
9d00713c:	00808821 	move	s1,a0
9d007140:	0b401ba2 	j	9d006e88 <strtoll+0x84>
9d007144:	0000b021 	move	s6,zero
9d007148:	82300001 	lb	s0,1(s1)
9d00714c:	2403ffdf 	li	v1,-33
9d007150:	02031824 	and	v1,s0,v1
9d007154:	24020058 	li	v0,88
9d007158:	50620009 	beql	v1,v0,9d007180 <strtoll+0x37c>
9d00715c:	82300002 	lb	s0,2(s1)
9d007160:	26310001 	addiu	s1,s1,1
9d007164:	240fffff 	li	t7,-1
9d007168:	3c0b07ff 	lui	t3,0x7ff
9d00716c:	356bffff 	ori	t3,t3,0xffff
9d007170:	240c0010 	li	t4,16
9d007174:	0000a821 	move	s5,zero
9d007178:	0b401bae 	j	9d006eb8 <strtoll+0xb4>
9d00717c:	24040001 	li	a0,1
9d007180:	240fffff 	li	t7,-1
9d007184:	0b401c5a 	j	9d007168 <strtoll+0x364>
9d007188:	26310002 	addiu	s1,s1,2

Disassembly of section .text:

9d00718c <io_init>:
#define OFF  	0
	
void io_init(void) {
	
	// initialize output pins
	TRISBbits.TRISB0 = 0;
9d00718c:	3c02bf88 	lui	v0,0xbf88
9d007190:	94436040 	lhu	v1,24640(v0)
9d007194:	7c030004 	ins	v1,zero,0x0,0x1
9d007198:	a4436040 	sh	v1,24640(v0)
	TRISBbits.TRISB1 = 0;
9d00719c:	94436040 	lhu	v1,24640(v0)
9d0071a0:	7c030844 	ins	v1,zero,0x1,0x1
9d0071a4:	a4436040 	sh	v1,24640(v0)
	TRISBbits.TRISB2 = 0;
9d0071a8:	94436040 	lhu	v1,24640(v0)
9d0071ac:	7c031084 	ins	v1,zero,0x2,0x1
9d0071b0:	a4436040 	sh	v1,24640(v0)
	TRISBbits.TRISB3 = 0;
9d0071b4:	94436040 	lhu	v1,24640(v0)
9d0071b8:	7c0318c4 	ins	v1,zero,0x3,0x1
9d0071bc:	a4436040 	sh	v1,24640(v0)
	TRISBbits.TRISB4 = 0;
9d0071c0:	94436040 	lhu	v1,24640(v0)
9d0071c4:	7c032104 	ins	v1,zero,0x4,0x1
9d0071c8:	a4436040 	sh	v1,24640(v0)
	
	// initialize input pins
	TRISEbits.TRISE0 = 1;
9d0071cc:	3c02bf88 	lui	v0,0xbf88
9d0071d0:	90446100 	lbu	a0,24832(v0)
9d0071d4:	24030001 	li	v1,1
9d0071d8:	7c640004 	ins	a0,v1,0x0,0x1
9d0071dc:	a0446100 	sb	a0,24832(v0)
	TRISEbits.TRISE1 = 1;
9d0071e0:	90446100 	lbu	a0,24832(v0)
9d0071e4:	7c640844 	ins	a0,v1,0x1,0x1
9d0071e8:	a0446100 	sb	a0,24832(v0)
	TRISEbits.TRISE2 = 1;
9d0071ec:	90446100 	lbu	a0,24832(v0)
9d0071f0:	7c641084 	ins	a0,v1,0x2,0x1
9d0071f4:	a0446100 	sb	a0,24832(v0)
	TRISEbits.TRISE3 = 1;
9d0071f8:	90446100 	lbu	a0,24832(v0)
9d0071fc:	7c6418c4 	ins	a0,v1,0x3,0x1
9d007200:	a0446100 	sb	a0,24832(v0)
	
	// turn off outputs
	SWITCH_ON = OFF;
9d007204:	3c02bf88 	lui	v0,0xbf88
9d007208:	94436060 	lhu	v1,24672(v0)
9d00720c:	7c030004 	ins	v1,zero,0x0,0x1
9d007210:	a4436060 	sh	v1,24672(v0)
	HOME = OFF;
9d007214:	94436060 	lhu	v1,24672(v0)
9d007218:	7c030844 	ins	v1,zero,0x1,0x1
9d00721c:	a4436060 	sh	v1,24672(v0)
	ERROR_ACK = OFF;
9d007220:	94436060 	lhu	v1,24672(v0)
9d007224:	7c031084 	ins	v1,zero,0x2,0x1
9d007228:	a4436060 	sh	v1,24672(v0)
	SPECIAL_MODE = OFF;
9d00722c:	94436060 	lhu	v1,24672(v0)
9d007230:	7c0318c4 	ins	v1,zero,0x3,0x1
9d007234:	a4436060 	sh	v1,24672(v0)
	GO_INIT_POS = OFF; 
9d007238:	94436060 	lhu	v1,24672(v0)
9d00723c:	7c032104 	ins	v1,zero,0x4,0x1
9d007240:	a4436060 	sh	v1,24672(v0)
9d007244:	03e00008 	jr	ra
9d007248:	00000000 	nop

9d00724c <motor_on>:
	SWITCH_ON = OFF;
	setCurrent(0);
}

void motor_on(void) {
	SWITCH_ON = ON;
9d00724c:	3c02bf88 	lui	v0,0xbf88
9d007250:	94436060 	lhu	v1,24672(v0)
9d007254:	24040001 	li	a0,1
9d007258:	7c830004 	ins	v1,a0,0x0,0x1
9d00725c:	a4436060 	sh	v1,24672(v0)
9d007260:	03e00008 	jr	ra
9d007264:	00000000 	nop

9d007268 <state>:
}

void state(void)
{
9d007268:	27bdffb0 	addiu	sp,sp,-80
9d00726c:	afbf004c 	sw	ra,76(sp)
9d007270:	afb20048 	sw	s2,72(sp)
9d007274:	afb10044 	sw	s1,68(sp)
9d007278:	afb00040 	sw	s0,64(sp)
	int i; char buffer[10];
	int state[] = {!SWITCH_ON, !HOME, !ERROR_ACK, !SPECIAL_MODE, !GO_INIT_POS, IN_TARG_POS, WARNING, ERROR, SPECIAL_MOTION}; //logic flipped for outputs
9d00727c:	3c02bf88 	lui	v0,0xbf88
9d007280:	8c436060 	lw	v1,24672(v0)
9d007284:	38630001 	xori	v1,v1,0x1
9d007288:	30630001 	andi	v1,v1,0x1
9d00728c:	afa3001c 	sw	v1,28(sp)
9d007290:	8c436060 	lw	v1,24672(v0)
9d007294:	38630002 	xori	v1,v1,0x2
9d007298:	7c630040 	ext	v1,v1,0x1,0x1
9d00729c:	afa30020 	sw	v1,32(sp)
9d0072a0:	8c436060 	lw	v1,24672(v0)
9d0072a4:	38630004 	xori	v1,v1,0x4
9d0072a8:	7c630080 	ext	v1,v1,0x2,0x1
9d0072ac:	afa30024 	sw	v1,36(sp)
9d0072b0:	8c436060 	lw	v1,24672(v0)
9d0072b4:	38630008 	xori	v1,v1,0x8
9d0072b8:	7c6300c0 	ext	v1,v1,0x3,0x1
9d0072bc:	afa30028 	sw	v1,40(sp)
9d0072c0:	8c426060 	lw	v0,24672(v0)
9d0072c4:	38420010 	xori	v0,v0,0x10
9d0072c8:	7c420100 	ext	v0,v0,0x4,0x1
9d0072cc:	afa2002c 	sw	v0,44(sp)
9d0072d0:	3c02bf88 	lui	v0,0xbf88
9d0072d4:	8c436110 	lw	v1,24848(v0)
9d0072d8:	30630001 	andi	v1,v1,0x1
9d0072dc:	afa30030 	sw	v1,48(sp)
9d0072e0:	8c436110 	lw	v1,24848(v0)
9d0072e4:	7c630040 	ext	v1,v1,0x1,0x1
9d0072e8:	afa30034 	sw	v1,52(sp)
9d0072ec:	8c436110 	lw	v1,24848(v0)
9d0072f0:	7c630080 	ext	v1,v1,0x2,0x1
9d0072f4:	afa30038 	sw	v1,56(sp)
9d0072f8:	8c426110 	lw	v0,24848(v0)
9d0072fc:	7c4200c0 	ext	v0,v0,0x3,0x1
9d007300:	afa2003c 	sw	v0,60(sp)
9d007304:	27b0001c 	addiu	s0,sp,28
9d007308:	27b20040 	addiu	s2,sp,64
	
	for (i = 0; i < 9; i++) {      
        sprintf(buffer, "%d\r\n",state[i]);  // store data in buffer
9d00730c:	3c119d01 	lui	s1,0x9d01
9d007310:	2631bb88 	addiu	s1,s1,-17528
9d007314:	27a40010 	addiu	a0,sp,16
9d007318:	02202821 	move	a1,s1
9d00731c:	0f402c77 	jal	9d00b1dc <_sprintf_cdfFnopuxX>
9d007320:	8e060000 	lw	a2,0(s0)

9d007324 <.LVL2>:
        NU32_WriteUART3(buffer);              // write data to client
9d007324:	0f402570 	jal	9d0095c0 <NU32_WriteUART3>
9d007328:	27a40010 	addiu	a0,sp,16

9d00732c <.LVL3>:
9d00732c:	26100004 	addiu	s0,s0,4
void state(void)
{
	int i; char buffer[10];
	int state[] = {!SWITCH_ON, !HOME, !ERROR_ACK, !SPECIAL_MODE, !GO_INIT_POS, IN_TARG_POS, WARNING, ERROR, SPECIAL_MOTION}; //logic flipped for outputs
	
	for (i = 0; i < 9; i++) {      
9d007330:	5612fff9 	bnel	s0,s2,9d007318 <state+0xb0>
9d007334:	27a40010 	addiu	a0,sp,16
        sprintf(buffer, "%d\r\n",state[i]);  // store data in buffer
        NU32_WriteUART3(buffer);              // write data to client
    }
	
}
9d007338:	8fbf004c 	lw	ra,76(sp)
9d00733c:	8fb20048 	lw	s2,72(sp)
9d007340:	8fb10044 	lw	s1,68(sp)
9d007344:	8fb00040 	lw	s0,64(sp)
9d007348:	03e00008 	jr	ra
9d00734c:	27bd0050 	addiu	sp,sp,80

9d007350 <home>:

void home(void)
{
	HOME = ON;			// begin homing sequence	
9d007350:	3c02bf88 	lui	v0,0xbf88
9d007354:	94436060 	lhu	v1,24672(v0)
9d007358:	24040001 	li	a0,1
9d00735c:	7c830844 	ins	v1,a0,0x1,0x1
9d007360:	a4436060 	sh	v1,24672(v0)
	while (!IN_TARG_POS){
9d007364:	3c03bf88 	lui	v1,0xbf88
9d007368:	8c626110 	lw	v0,24848(v1)
9d00736c:	30420001 	andi	v0,v0,0x1
9d007370:	1040fffd 	beqz	v0,9d007368 <home+0x18>
9d007374:	00000000 	nop
    }
	
}

void home(void)
{
9d007378:	27bdffe8 	addiu	sp,sp,-24
9d00737c:	afbf0014 	sw	ra,20(sp)
	HOME = ON;			// begin homing sequence	
	while (!IN_TARG_POS){
		;	// wait for homng sequence to complete
	}
	encoder_reset();	// set home position
9d007380:	0f4026e4 	jal	9d009b90 <encoder_reset>
9d007384:	00000000 	nop

9d007388 <.LVL4>:
	HOME = OFF;			// complete homing sequence
9d007388:	3c02bf88 	lui	v0,0xbf88
9d00738c:	94436060 	lhu	v1,24672(v0)
9d007390:	7c030844 	ins	v1,zero,0x1,0x1
9d007394:	a4436060 	sh	v1,24672(v0)
}
9d007398:	8fbf0014 	lw	ra,20(sp)
9d00739c:	03e00008 	jr	ra
9d0073a0:	27bd0018 	addiu	sp,sp,24

9d0073a4 <error_ack>:

void error_ack(void)
{
9d0073a4:	27bdfff8 	addiu	sp,sp,-8
9d0073a8:	afbf0004 	sw	ra,4(sp)
	ERROR_ACK = ON;
9d0073ac:	3c02bf88 	lui	v0,0xbf88
9d0073b0:	94436060 	lhu	v1,24672(v0)
9d0073b4:	24040001 	li	a0,1
9d0073b8:	7c831084 	ins	v1,a0,0x2,0x1
9d0073bc:	a4436060 	sh	v1,24672(v0)
	_CP0_SET_COUNT(0);
9d0073c0:	00001021 	move	v0,zero
9d0073c4:	40824800 	mtc0	v0,c0_count
9d0073c8:	000000c0 	ehb
	while (_CP0_GET_COUNT() < 20000000){
9d0073cc:	3c030131 	lui	v1,0x131
9d0073d0:	24632d00 	addiu	v1,v1,11520
9d0073d4:	40024800 	mfc0	v0,c0_count
9d0073d8:	0043102b 	sltu	v0,v0,v1
9d0073dc:	1440fffd 	bnez	v0,9d0073d4 <error_ack+0x30>
9d0073e0:	3c02bf88 	lui	v0,0xbf88
		;
	}
	ERROR_ACK = OFF;
9d0073e4:	94436060 	lhu	v1,24672(v0)
9d0073e8:	7c031084 	ins	v1,zero,0x2,0x1
9d0073ec:	a4436060 	sh	v1,24672(v0)
}
9d0073f0:	8fbf0004 	lw	ra,4(sp)
9d0073f4:	03e00008 	jr	ra
9d0073f8:	27bd0008 	addiu	sp,sp,8

9d0073fc <setCurrent>:

void setCurrent(float voltage)
{
9d0073fc:	27bdffe8 	addiu	sp,sp,-24
9d007400:	afbf0014 	sw	ra,20(sp)
	static float scale = 1;
	static float offset = -0.04;
	setVoltage(voltage*scale + offset);
9d007404:	3c029d01 	lui	v0,0x9d01
9d007408:	0f4022df 	jal	9d008b7c <__subsf3>
9d00740c:	8c45bb90 	lw	a1,-17520(v0)
9d007410:	0f4024d3 	jal	9d00934c <setVoltage>
9d007414:	00402021 	move	a0,v0

9d007418 <.LVL7>:
}
9d007418:	8fbf0014 	lw	ra,20(sp)
9d00741c:	03e00008 	jr	ra
9d007420:	27bd0018 	addiu	sp,sp,24

9d007424 <motor_off>:
	SPECIAL_MODE = OFF;
	GO_INIT_POS = OFF; 
	
}

void motor_off(void) {
9d007424:	27bdffe8 	addiu	sp,sp,-24
9d007428:	afbf0014 	sw	ra,20(sp)
	SWITCH_ON = OFF;
9d00742c:	3c02bf88 	lui	v0,0xbf88
9d007430:	94436060 	lhu	v1,24672(v0)
9d007434:	7c030004 	ins	v1,zero,0x0,0x1
9d007438:	a4436060 	sh	v1,24672(v0)
	setCurrent(0);
9d00743c:	0f401cff 	jal	9d0073fc <setCurrent>
9d007440:	00002021 	move	a0,zero

9d007444 <.LVL8>:
}
9d007444:	8fbf0014 	lw	ra,20(sp)
9d007448:	03e00008 	jr	ra
9d00744c:	27bd0018 	addiu	sp,sp,24

9d007450 <motor_startup>:
	static float scale = 1;
	static float offset = -0.04;
	setVoltage(voltage*scale + offset);
}

void motor_startup(void) {
9d007450:	27bdffe0 	addiu	sp,sp,-32
9d007454:	afbf001c 	sw	ra,28(sp)
9d007458:	afb10018 	sw	s1,24(sp)
9d00745c:	afb00014 	sw	s0,20(sp)
	
	setCurrent(0);	// set voltage (motor current) to zero
9d007460:	0f401cff 	jal	9d0073fc <setCurrent>
9d007464:	00002021 	move	a0,zero

9d007468 <.LVL9>:
	
	error_ack();	// acknowledge any errors	
9d007468:	0f401ce9 	jal	9d0073a4 <error_ack>
9d00746c:	00000000 	nop

9d007470 <.LVL10>:

	// enable position control of the motor
	SWITCH_ON = OFF;
9d007470:	3c02bf88 	lui	v0,0xbf88
9d007474:	94436060 	lhu	v1,24672(v0)
9d007478:	7c030004 	ins	v1,zero,0x0,0x1
9d00747c:	a4436060 	sh	v1,24672(v0)
	_CP0_SET_COUNT(0);
9d007480:	00001021 	move	v0,zero
9d007484:	40824800 	mtc0	v0,c0_count
9d007488:	000000c0 	ehb
	while (_CP0_GET_COUNT() < 20000000){
9d00748c:	3c030131 	lui	v1,0x131
9d007490:	24632d00 	addiu	v1,v1,11520
9d007494:	40024800 	mfc0	v0,c0_count
9d007498:	0043102b 	sltu	v0,v0,v1
9d00749c:	1440fffd 	bnez	v0,9d007494 <.LVL10+0x24>
9d0074a0:	3c10bf88 	lui	s0,0xbf88

9d0074a4 <.LBB4>:
	SWITCH_ON = OFF;
	setCurrent(0);
}

void motor_on(void) {
	SWITCH_ON = ON;
9d0074a4:	96026060 	lhu	v0,24672(s0)
9d0074a8:	24110001 	li	s1,1
9d0074ac:	7e220004 	ins	v0,s1,0x0,0x1
9d0074b0:	a6026060 	sh	v0,24672(s0)

9d0074b4 <.LBE4>:
		;
	}
	
	motor_on();	// Switch on
	
	home();				// perform homing sequence
9d0074b4:	0f401cd4 	jal	9d007350 <home>
9d0074b8:	00000000 	nop

9d0074bc <.LVL11>:
	SPECIAL_MODE = ON;	// enable current control
9d0074bc:	96026060 	lhu	v0,24672(s0)
9d0074c0:	7e2218c4 	ins	v0,s1,0x3,0x1
9d0074c4:	a6026060 	sh	v0,24672(s0)
	
	reset_pos();	// reset desired position to 0 mm
9d0074c8:	0f400f8f 	jal	9d003e3c <reset_pos>
9d0074cc:	00000000 	nop

9d0074d0 <.LVL12>:
	
	setMODE(HOLD);	// set MODE to HOLD
9d0074d0:	0f402409 	jal	9d009024 <setMODE>
9d0074d4:	24040001 	li	a0,1

9d0074d8 <.LVL13>:
}
9d0074d8:	8fbf001c 	lw	ra,28(sp)
9d0074dc:	8fb10018 	lw	s1,24(sp)
9d0074e0:	8fb00014 	lw	s0,20(sp)
9d0074e4:	03e00008 	jr	ra
9d0074e8:	27bd0020 	addiu	sp,sp,32

Disassembly of section .text.__strtof:

9d0074ec <__strtof>:
9d0074ec:	27bdffc8 	addiu	sp,sp,-56
9d0074f0:	afbf0034 	sw	ra,52(sp)
9d0074f4:	afb70030 	sw	s7,48(sp)
9d0074f8:	afb6002c 	sw	s6,44(sp)
9d0074fc:	afb50028 	sw	s5,40(sp)
9d007500:	afb40024 	sw	s4,36(sp)
9d007504:	afb30020 	sw	s3,32(sp)
9d007508:	afb2001c 	sw	s2,28(sp)
9d00750c:	afb10018 	sw	s1,24(sp)
9d007510:	afb00014 	sw	s0,20(sp)
9d007514:	0080a821 	move	s5,a0
9d007518:	80820000 	lb	v0,0(a0)
9d00751c:	3c139d01 	lui	s3,0x9d01
9d007520:	2673a0b5 	addiu	s3,s3,-24395
9d007524:	02621821 	addu	v1,s3,v0
9d007528:	80630000 	lb	v1,0(v1)
9d00752c:	00a0b021 	move	s6,a1
9d007530:	30630088 	andi	v1,v1,0x88
9d007534:	10600008 	beqz	v1,9d007558 <__strtof+0x6c>
9d007538:	00808021 	move	s0,a0
9d00753c:	26100001 	addiu	s0,s0,1
9d007540:	82020000 	lb	v0,0(s0)
9d007544:	02621821 	addu	v1,s3,v0
9d007548:	80630000 	lb	v1,0(v1)
9d00754c:	30630088 	andi	v1,v1,0x88
9d007550:	5460fffb 	bnezl	v1,9d007540 <__strtof+0x54>
9d007554:	26100001 	addiu	s0,s0,1
9d007558:	2403002d 	li	v1,45
9d00755c:	10430081 	beq	v0,v1,9d007764 <__strtof+0x278>
9d007560:	3842002b 	xori	v0,v0,0x2b
9d007564:	2c420001 	sltiu	v0,v0,1
9d007568:	0000b821 	move	s7,zero
9d00756c:	02028021 	addu	s0,s0,v0
9d007570:	82030000 	lb	v1,0(s0)
9d007574:	02631021 	addu	v0,s3,v1
9d007578:	90420000 	lbu	v0,0(v0)
9d00757c:	30420004 	andi	v0,v0,0x4
9d007580:	104000a5 	beqz	v0,9d007818 <__strtof+0x32c>
9d007584:	00008821 	move	s1,zero
9d007588:	0000a021 	move	s4,zero
9d00758c:	2472ffd0 	addiu	s2,v1,-48
9d007590:	02202021 	move	a0,s1
9d007594:	0f40257f 	jal	9d0095fc <__mulsf3>
9d007598:	3c054120 	lui	a1,0x4120
9d00759c:	00408821 	move	s1,v0
9d0075a0:	0f402d12 	jal	9d00b448 <__floatsisf>
9d0075a4:	02402021 	move	a0,s2
9d0075a8:	02202021 	move	a0,s1
9d0075ac:	00402821 	move	a1,v0
9d0075b0:	0f4022e1 	jal	9d008b84 <__addsf3>
9d0075b4:	26100001 	addiu	s0,s0,1
9d0075b8:	00408821 	move	s1,v0
9d0075bc:	82030000 	lb	v1,0(s0)
9d0075c0:	02631021 	addu	v0,s3,v1
9d0075c4:	90420000 	lbu	v0,0(v0)
9d0075c8:	30420004 	andi	v0,v0,0x4
9d0075cc:	1440ffef 	bnez	v0,9d00758c <__strtof+0xa0>
9d0075d0:	0292a025 	or	s4,s4,s2
9d0075d4:	24040001 	li	a0,1
9d0075d8:	2402002e 	li	v0,46
9d0075dc:	5062003e 	beql	v1,v0,9d0076d8 <__strtof+0x1ec>
9d0075e0:	82020001 	lb	v0,1(s0)
9d0075e4:	54800062 	bnezl	a0,9d007770 <__strtof+0x284>
9d0075e8:	82020000 	lb	v0,0(s0)
9d0075ec:	12c00024 	beqz	s6,9d007680 <__strtof+0x194>
9d0075f0:	00111840 	sll	v1,s1,0x1
9d0075f4:	02a08021 	move	s0,s5
9d0075f8:	00009021 	move	s2,zero
9d0075fc:	aed00000 	sw	s0,0(s6)
9d007600:	1240001f 	beqz	s2,9d007680 <__strtof+0x194>
9d007604:	00111840 	sll	v1,s1,0x1
9d007608:	001217c3 	sra	v0,s2,0x1f
9d00760c:	0052a826 	xor	s5,v0,s2
9d007610:	02a2a823 	subu	s5,s5,v0
9d007614:	3c139d01 	lui	s3,0x9d01
9d007618:	2673bb20 	addiu	s3,s3,-17632
9d00761c:	24100006 	li	s0,6
9d007620:	0b401d8c 	j	9d007630 <__strtof+0x144>
9d007624:	3c023f80 	lui	v0,0x3f80
9d007628:	1200000b 	beqz	s0,9d007658 <__strtof+0x16c>
9d00762c:	2673fffc 	addiu	s3,s3,-4
9d007630:	2610ffff 	addiu	s0,s0,-1
9d007634:	02151807 	srav	v1,s5,s0
9d007638:	30630001 	andi	v1,v1,0x1
9d00763c:	1060fffa 	beqz	v1,9d007628 <__strtof+0x13c>
9d007640:	00000000 	nop
9d007644:	8e650000 	lw	a1,0(s3)
9d007648:	0f40257f 	jal	9d0095fc <__mulsf3>
9d00764c:	00402021 	move	a0,v0
9d007650:	1600fff7 	bnez	s0,9d007630 <__strtof+0x144>
9d007654:	2673fffc 	addiu	s3,s3,-4
9d007658:	02202021 	move	a0,s1
9d00765c:	0640006a 	bltz	s2,9d007808 <__strtof+0x31c>
9d007660:	00402821 	move	a1,v0
9d007664:	0f40257f 	jal	9d0095fc <__mulsf3>
9d007668:	00000000 	nop
9d00766c:	00402021 	move	a0,v0
9d007670:	0f40286e 	jal	9d00a1b8 <__ldexpf>
9d007674:	02402821 	move	a1,s2
9d007678:	00408821 	move	s1,v0
9d00767c:	00111840 	sll	v1,s1,0x1
9d007680:	3c02ff00 	lui	v0,0xff00
9d007684:	5062006c 	beql	v1,v0,9d007838 <__strtof+0x34c>
9d007688:	24030022 	li	v1,34
9d00768c:	12200068 	beqz	s1,9d007830 <__strtof+0x344>
9d007690:	00000000 	nop
9d007694:	12e00005 	beqz	s7,9d0076ac <__strtof+0x1c0>
9d007698:	02201021 	move	v0,s1
9d00769c:	0f402edd 	jal	9d00bb74 <__negsf2>
9d0076a0:	02202021 	move	a0,s1
9d0076a4:	00408821 	move	s1,v0
9d0076a8:	02201021 	move	v0,s1
9d0076ac:	8fbf0034 	lw	ra,52(sp)
9d0076b0:	8fb70030 	lw	s7,48(sp)
9d0076b4:	8fb6002c 	lw	s6,44(sp)
9d0076b8:	8fb50028 	lw	s5,40(sp)
9d0076bc:	8fb40024 	lw	s4,36(sp)
9d0076c0:	8fb30020 	lw	s3,32(sp)
9d0076c4:	8fb2001c 	lw	s2,28(sp)
9d0076c8:	8fb10018 	lw	s1,24(sp)
9d0076cc:	8fb00014 	lw	s0,20(sp)
9d0076d0:	03e00008 	jr	ra
9d0076d4:	27bd0038 	addiu	sp,sp,56
9d0076d8:	02621821 	addu	v1,s3,v0
9d0076dc:	90630000 	lbu	v1,0(v1)
9d0076e0:	30630004 	andi	v1,v1,0x4
9d0076e4:	1060ffbf 	beqz	v1,9d0075e4 <__strtof+0xf8>
9d0076e8:	26100001 	addiu	s0,s0,1
9d0076ec:	00009021 	move	s2,zero
9d0076f0:	2455ffd0 	addiu	s5,v0,-48
9d0076f4:	02202021 	move	a0,s1
9d0076f8:	0f40257f 	jal	9d0095fc <__mulsf3>
9d0076fc:	3c054120 	lui	a1,0x4120
9d007700:	00408821 	move	s1,v0
9d007704:	0f402d12 	jal	9d00b448 <__floatsisf>
9d007708:	02a02021 	move	a0,s5
9d00770c:	02202021 	move	a0,s1
9d007710:	00402821 	move	a1,v0
9d007714:	0f4022e1 	jal	9d008b84 <__addsf3>
9d007718:	26100001 	addiu	s0,s0,1
9d00771c:	00408821 	move	s1,v0
9d007720:	82020000 	lb	v0,0(s0)
9d007724:	0295a025 	or	s4,s4,s5
9d007728:	02621821 	addu	v1,s3,v0
9d00772c:	90630000 	lbu	v1,0(v1)
9d007730:	30630004 	andi	v1,v1,0x4
9d007734:	1460ffee 	bnez	v1,9d0076f0 <__strtof+0x204>
9d007738:	2652ffff 	addiu	s2,s2,-1
9d00773c:	2403ffdf 	li	v1,-33
9d007740:	00431824 	and	v1,v0,v1
9d007744:	7c031c20 	seb	v1,v1
9d007748:	24020045 	li	v0,69
9d00774c:	5062000f 	beql	v1,v0,9d00778c <__strtof+0x2a0>
9d007750:	82030001 	lb	v1,1(s0)
9d007754:	56c0ffaa 	bnezl	s6,9d007600 <__strtof+0x114>
9d007758:	aed00000 	sw	s0,0(s6)
9d00775c:	0b401d80 	j	9d007600 <__strtof+0x114>
9d007760:	00000000 	nop
9d007764:	26100001 	addiu	s0,s0,1
9d007768:	0b401d5c 	j	9d007570 <__strtof+0x84>
9d00776c:	24170001 	li	s7,1
9d007770:	2403ffdf 	li	v1,-33
9d007774:	00431824 	and	v1,v0,v1
9d007778:	7c031c20 	seb	v1,v1
9d00777c:	24020045 	li	v0,69
9d007780:	1462fff4 	bne	v1,v0,9d007754 <__strtof+0x268>
9d007784:	00009021 	move	s2,zero
9d007788:	82030001 	lb	v1,1(s0)
9d00778c:	2402002d 	li	v0,45
9d007790:	10620019 	beq	v1,v0,9d0077f8 <__strtof+0x30c>
9d007794:	2402002b 	li	v0,43
9d007798:	50620022 	beql	v1,v0,9d007824 <__strtof+0x338>
9d00779c:	82030002 	lb	v1,2(s0)
9d0077a0:	26100001 	addiu	s0,s0,1
9d0077a4:	00003821 	move	a3,zero
9d0077a8:	02631021 	addu	v0,s3,v1
9d0077ac:	90420000 	lbu	v0,0(v0)
9d0077b0:	30420004 	andi	v0,v0,0x4
9d0077b4:	1040000c 	beqz	v0,9d0077e8 <__strtof+0x2fc>
9d0077b8:	00001021 	move	v0,zero
9d0077bc:	26100001 	addiu	s0,s0,1
9d0077c0:	2465ffd0 	addiu	a1,v1,-48
9d0077c4:	82030000 	lb	v1,0(s0)
9d0077c8:	00023040 	sll	a2,v0,0x1
9d0077cc:	000210c0 	sll	v0,v0,0x3
9d0077d0:	02632021 	addu	a0,s3,v1
9d0077d4:	90840000 	lbu	a0,0(a0)
9d0077d8:	00c21021 	addu	v0,a2,v0
9d0077dc:	30840004 	andi	a0,a0,0x4
9d0077e0:	1480fff6 	bnez	a0,9d0077bc <__strtof+0x2d0>
9d0077e4:	00451021 	addu	v0,v0,a1
9d0077e8:	00021823 	negu	v1,v0
9d0077ec:	0067100b 	movn	v0,v1,a3
9d0077f0:	0b401dd5 	j	9d007754 <__strtof+0x268>
9d0077f4:	02429021 	addu	s2,s2,v0
9d0077f8:	82030002 	lb	v1,2(s0)
9d0077fc:	24070001 	li	a3,1
9d007800:	0b401dea 	j	9d0077a8 <__strtof+0x2bc>
9d007804:	26100002 	addiu	s0,s0,2
9d007808:	0f40237d 	jal	9d008df4 <__divsf3>
9d00780c:	00000000 	nop
9d007810:	0b401d9c 	j	9d007670 <__strtof+0x184>
9d007814:	00402021 	move	a0,v0
9d007818:	00002021 	move	a0,zero
9d00781c:	0b401d76 	j	9d0075d8 <__strtof+0xec>
9d007820:	0000a021 	move	s4,zero
9d007824:	00003821 	move	a3,zero
9d007828:	0b401dea 	j	9d0077a8 <__strtof+0x2bc>
9d00782c:	26100002 	addiu	s0,s0,2
9d007830:	1280ff98 	beqz	s4,9d007694 <__strtof+0x1a8>
9d007834:	24030022 	li	v1,34
9d007838:	3c02a000 	lui	v0,0xa000
9d00783c:	0b401da5 	j	9d007694 <__strtof+0x1a8>
9d007840:	ac430038 	sw	v1,56(v0)

Disassembly of section .text.dp32mul:

9d007844 <__muldf3>:
9d007844:	00055040 000a5542 00054ac0 00047d42     @P..BU...J..B}..
9d007854:	012f4825 000442c0 3c0e8000 012e4825     %H/..B.....<%H..
9d007864:	00076840 000d6d42 000762c0 00067d42     @h..Bm...b..B}..
9d007874:	018f6025 00065ac0 018e6025 00a72826     %`...Z..%`..&(..
9d007884:	00ae2824 254fffff 2de107fe 10200047     $(....O%...-G. .
9d007894:	00000000                                ....

9d007898 <Clab1>:
9d007898:	25afffff 	addiu	t7,t5,-1
9d00789c:	2de107fe 	sltiu	at,t7,2046
9d0078a0:	1020006f 	beqz	at,9d007a60 <CspecB>
9d0078a4:	00000000 	nop

9d0078a8 <Clab2>:
9d0078a8:	25affc02 	addiu	t7,t5,-1022
9d0078ac:	014f5021 	addu	t2,t2,t7
9d0078b0:	012c0019 	multu	t1,t4
9d0078b4:	00003812 	mflo	a3
9d0078b8:	00007010 	mfhi	t6
9d0078bc:	010b0019 	multu	t0,t3
9d0078c0:	00002012 	mflo	a0
9d0078c4:	00003010 	mfhi	a2
9d0078c8:	012b0019 	multu	t1,t3
9d0078cc:	00005812 	mflo	t3
9d0078d0:	00006810 	mfhi	t5
9d0078d4:	00cb3021 	addu	a2,a2,t3
9d0078d8:	00cb782b 	sltu	t7,a2,t3
9d0078dc:	00ed3821 	addu	a3,a3,t5
9d0078e0:	00ef3821 	addu	a3,a3,t7
9d0078e4:	10ed0002 	beq	a3,t5,9d0078f0 <L20>
9d0078e8:	00000000 	nop
9d0078ec:	00ed782b 	sltu	t7,a3,t5

9d0078f0 <L20>:
9d0078f0:	01cf7021 	addu	t6,t6,t7
9d0078f4:	010c0019 	multu	t0,t4
9d0078f8:	00004012 	mflo	t0
9d0078fc:	00004810 	mfhi	t1
9d007900:	00c83021 	addu	a2,a2,t0
9d007904:	00c8782b 	sltu	t7,a2,t0
9d007908:	00e93821 	addu	a3,a3,t1
9d00790c:	00ef3821 	addu	a3,a3,t7
9d007910:	10e90002 	beq	a3,t1,9d00791c <L21>
9d007914:	00000000 	nop
9d007918:	00e9782b 	sltu	t7,a3,t1

9d00791c <L21>:
9d00791c:	01cf7021 	addu	t6,t6,t7
9d007920:	00867825 	or	t7,a0,a2
9d007924:	11e00002 	beqz	t7,9d007930 <i13>
9d007928:	00000000 	nop
9d00792c:	34e70001 	ori	a3,a3,0x1

9d007930 <i13>:
9d007930:	000e4825 	or	t1,zero,t6
9d007934:	05200006 	bltz	t1,9d007950 <i14>
9d007938:	00074025 	or	t0,zero,a3
9d00793c:	0100782a 	slt	t7,t0,zero
9d007940:	01084021 	addu	t0,t0,t0
9d007944:	01294821 	addu	t1,t1,t1
9d007948:	012f4821 	addu	t1,t1,t7
9d00794c:	254affff 	addiu	t2,t2,-1

9d007950 <i14>:
9d007950:	254fffff 	addiu	t7,t2,-1
9d007954:	2de107fe 	sltiu	at,t7,2046
9d007958:	10200068 	beqz	at,9d007afc <Coveund>
9d00795c:	00000000 	nop
9d007960:	25080400 	addiu	t0,t0,1024
9d007964:	2d0f0400 	sltiu	t7,t0,1024
9d007968:	012f4821 	addu	t1,t1,t7
9d00796c:	012f782b 	sltu	t7,t1,t7
9d007970:	014f5021 	addu	t2,t2,t7

9d007974 <Clab8>:
9d007974:	00087ac2 	srl	t7,t0,0xb
9d007978:	31ef0001 	andi	t7,t7,0x1
9d00797c:	010f4023 	subu	t0,t0,t7
9d007980:	000822c2 	srl	a0,t0,0xb
9d007984:	00097d40 	sll	t7,t1,0x15
9d007988:	008f2025 	or	a0,a0,t7
9d00798c:	00097840 	sll	t7,t1,0x1
9d007990:	000f7b02 	srl	t7,t7,0xc
9d007994:	00af2825 	or	a1,a1,t7
9d007998:	000a7d00 	sll	t7,t2,0x14
9d00799c:	00af2825 	or	a1,a1,t7

9d0079a0 <Cret>:
9d0079a0:	00041025 	or	v0,zero,a0
9d0079a4:	00051825 	or	v1,zero,a1

9d0079a8 <C999>:
9d0079a8:	03e00008 	jr	ra
9d0079ac:	00000000 	nop

9d0079b0 <CspecA>:
9d0079b0:	0100782a 	slt	t7,t0,zero
9d0079b4:	01084021 	addu	t0,t0,t0
9d0079b8:	01294821 	addu	t1,t1,t1
9d0079bc:	1540001c 	bnez	t2,9d007a30 <i15>
9d0079c0:	012f4821 	addu	t1,t1,t7
9d0079c4:	01287825 	or	t7,t1,t0
9d0079c8:	11e00014 	beqz	t7,9d007a1c <i16>
9d0079cc:	00000000 	nop
9d0079d0:	15200008 	bnez	t1,9d0079f4 <L22>
9d0079d4:	00000000 	nop
9d0079d8:	15000003 	bnez	t0,9d0079e8 <L23>
9d0079dc:	00000000 	nop
9d0079e0:	1000ffad 	b	9d007898 <Clab1>
9d0079e4:	240a0000 	li	t2,0

9d0079e8 <L23>:
9d0079e8:	01004825 	move	t1,t0
9d0079ec:	24080000 	li	t0,0
9d0079f0:	254affe0 	addiu	t2,t2,-32

9d0079f4 <L22>:
9d0079f4:	712e7020 	clz	t6,t1
9d0079f8:	11c0ffa7 	beqz	t6,9d007898 <Clab1>
9d0079fc:	00000000 	nop
9d007a00:	014e5023 	subu	t2,t2,t6
9d007a04:	000e3822 	neg	a3,t6
9d007a08:	00e83806 	srlv	a3,t0,a3
9d007a0c:	01c84004 	sllv	t0,t0,t6
9d007a10:	01c94804 	sllv	t1,t1,t6
9d007a14:	1000ffa0 	b	9d007898 <Clab1>
9d007a18:	01274825 	or	t1,t1,a3

9d007a1c <i16>:
9d007a1c:	240107ff 	li	at,2047
9d007a20:	11a10033 	beq	t5,at,9d007af0 <Cnan>
9d007a24:	00000000 	nop
9d007a28:	1000ffdd 	b	9d0079a0 <Cret>
9d007a2c:	00000000 	nop

9d007a30 <i15>:
9d007a30:	01287825 	or	t7,t1,t0
9d007a34:	15e0002e 	bnez	t7,9d007af0 <Cnan>
9d007a38:	00000000 	nop
9d007a3c:	15a00005 	bnez	t5,9d007a54 <i17>
9d007a40:	00000000 	nop
9d007a44:	000c7840 	sll	t7,t4,0x1
9d007a48:	01eb7825 	or	t7,t7,t3
9d007a4c:	11e00028 	beqz	t7,9d007af0 <Cnan>
9d007a50:	00000000 	nop

9d007a54 <i17>:
9d007a54:	240107ff 	li	at,2047
9d007a58:	15a10021 	bne	t5,at,9d007ae0 <Cinf>
9d007a5c:	00000000 	nop

9d007a60 <CspecB>:
9d007a60:	0160782a 	slt	t7,t3,zero
9d007a64:	016b5821 	addu	t3,t3,t3
9d007a68:	018c6021 	addu	t4,t4,t4
9d007a6c:	15a00019 	bnez	t5,9d007ad4 <i18>
9d007a70:	018f6021 	addu	t4,t4,t7
9d007a74:	018b7825 	or	t7,t4,t3
9d007a78:	11e00014 	beqz	t7,9d007acc <i19>
9d007a7c:	00000000 	nop
9d007a80:	15800008 	bnez	t4,9d007aa4 <L25>
9d007a84:	00000000 	nop
9d007a88:	15600003 	bnez	t3,9d007a98 <L26>
9d007a8c:	00000000 	nop
9d007a90:	1000ff85 	b	9d0078a8 <Clab2>
9d007a94:	240d0000 	li	t5,0

9d007a98 <L26>:
9d007a98:	01606025 	move	t4,t3
9d007a9c:	240b0000 	li	t3,0
9d007aa0:	25adffe0 	addiu	t5,t5,-32

9d007aa4 <L25>:
9d007aa4:	71863020 	clz	a2,t4
9d007aa8:	10c0ff7f 	beqz	a2,9d0078a8 <Clab2>
9d007aac:	00000000 	nop
9d007ab0:	01a66823 	subu	t5,t5,a2
9d007ab4:	00067022 	neg	t6,a2
9d007ab8:	01cb7006 	srlv	t6,t3,t6
9d007abc:	00cb5804 	sllv	t3,t3,a2
9d007ac0:	00cc6004 	sllv	t4,t4,a2
9d007ac4:	1000ff78 	b	9d0078a8 <Clab2>
9d007ac8:	018e6025 	or	t4,t4,t6

9d007acc <i19>:
9d007acc:	1000ffb4 	b	9d0079a0 <Cret>
9d007ad0:	24040000 	li	a0,0

9d007ad4 <i18>:
9d007ad4:	018b7825 	or	t7,t4,t3
9d007ad8:	15e00005 	bnez	t7,9d007af0 <Cnan>
9d007adc:	00000000 	nop

9d007ae0 <Cinf>:
9d007ae0:	3c017ff0 	lui	at,0x7ff0
9d007ae4:	00a12825 	or	a1,a1,at
9d007ae8:	1000ffad 	b	9d0079a0 <Cret>
9d007aec:	24040000 	li	a0,0

9d007af0 <Cnan>:
9d007af0:	3c05fff8 	lui	a1,0xfff8
9d007af4:	1000ffaa 	b	9d0079a0 <Cret>
9d007af8:	24040000 	li	a0,0

9d007afc <Coveund>:
9d007afc:	1d40fff8 	bgtz	t2,9d007ae0 <Cinf>
9d007b00:	00000000 	nop
9d007b04:	240e0001 	li	t6,1
9d007b08:	01ca7023 	subu	t6,t6,t2

9d007b0c <L28>:
9d007b0c:	2dc10020 	sltiu	at,t6,32
9d007b10:	14200007 	bnez	at,9d007b30 <L29>
9d007b14:	00000000 	nop
9d007b18:	21ceffe0 	addi	t6,t6,-32
9d007b1c:	0008302b 	sltu	a2,zero,t0
9d007b20:	1009000d 	beq	zero,t1,9d007b58 <L30>
9d007b24:	01264025 	or	t0,t1,a2
9d007b28:	1000fff8 	b	9d007b0c <L28>
9d007b2c:	34090000 	li	t1,0x0

9d007b30 <L29>:
9d007b30:	11c00009 	beqz	t6,9d007b58 <L30>
9d007b34:	00000000 	nop
9d007b38:	000e3822 	neg	a3,t6
9d007b3c:	00e83004 	sllv	a2,t0,a3
9d007b40:	00e93804 	sllv	a3,t1,a3
9d007b44:	01c84006 	srlv	t0,t0,t6
9d007b48:	01c94806 	srlv	t1,t1,t6
9d007b4c:	10c00002 	beqz	a2,9d007b58 <L30>
9d007b50:	00e84025 	or	t0,a3,t0
9d007b54:	35080002 	ori	t0,t0,0x2

9d007b58 <L30>:
9d007b58:	25080400 	addiu	t0,t0,1024
9d007b5c:	2d0f0400 	sltiu	t7,t0,1024
9d007b60:	012f4821 	addu	t1,t1,t7
9d007b64:	1000ff83 	b	9d007974 <Clab8>
9d007b68:	000957c2 	srl	t2,t1,0x1f
9d007b6c:	00000000 	nop

Disassembly of section .text.strtoull:

9d007b70 <strtoull>:
9d007b70:	27bdffd0 	addiu	sp,sp,-48
9d007b74:	afbf002c 	sw	ra,44(sp)
9d007b78:	afb50028 	sw	s5,40(sp)
9d007b7c:	afb40024 	sw	s4,36(sp)
9d007b80:	afb30020 	sw	s3,32(sp)
9d007b84:	afb2001c 	sw	s2,28(sp)
9d007b88:	afb10018 	sw	s1,24(sp)
9d007b8c:	afb00014 	sw	s0,20(sp)
9d007b90:	00808821 	move	s1,a0
9d007b94:	80820000 	lb	v0,0(a0)
9d007b98:	00a09821 	move	s3,a1
9d007b9c:	1040001f 	beqz	v0,9d007c1c <strtoull+0xac>
9d007ba0:	00c09021 	move	s2,a2
9d007ba4:	3c049d01 	lui	a0,0x9d01
9d007ba8:	2484a0b5 	addiu	a0,a0,-24395
9d007bac:	0b401ef0 	j	9d007bc0 <strtoull+0x50>
9d007bb0:	00821821 	addu	v1,a0,v0
9d007bb4:	82220000 	lb	v0,0(s1)
9d007bb8:	10400018 	beqz	v0,9d007c1c <strtoull+0xac>
9d007bbc:	00821821 	addu	v1,a0,v0
9d007bc0:	80630000 	lb	v1,0(v1)
9d007bc4:	30630088 	andi	v1,v1,0x88
9d007bc8:	5460fffa 	bnezl	v1,9d007bb4 <strtoull+0x44>
9d007bcc:	26310001 	addiu	s1,s1,1
9d007bd0:	2403002b 	li	v1,43
9d007bd4:	14430079 	bne	v0,v1,9d007dbc <strtoull+0x24c>
9d007bd8:	2403002d 	li	v1,45
9d007bdc:	3842002d 	xori	v0,v0,0x2d
9d007be0:	82300001 	lb	s0,1(s1)
9d007be4:	2c550001 	sltiu	s5,v0,1
9d007be8:	26310001 	addiu	s1,s1,1
9d007bec:	1640000f 	bnez	s2,9d007c2c <strtoull+0xbc>
9d007bf0:	24020010 	li	v0,16
9d007bf4:	24020030 	li	v0,48
9d007bf8:	12020075 	beq	s0,v0,9d007dd0 <strtoull+0x260>
9d007bfc:	3c0d9999 	lui	t5,0x9999
9d007c00:	35ad9999 	ori	t5,t5,0x9999
9d007c04:	3c0a1999 	lui	t2,0x1999
9d007c08:	354a9999 	ori	t2,t2,0x9999
9d007c0c:	240b000a 	li	t3,10
9d007c10:	0000a021 	move	s4,zero
9d007c14:	0b401f15 	j	9d007c54 <strtoull+0xe4>
9d007c18:	2412000a 	li	s2,10
9d007c1c:	00008021 	move	s0,zero
9d007c20:	1240fff4 	beqz	s2,9d007bf4 <strtoull+0x84>
9d007c24:	0000a821 	move	s5,zero
9d007c28:	24020010 	li	v0,16
9d007c2c:	12420076 	beq	s2,v0,9d007e08 <strtoull+0x298>
9d007c30:	0012a7c3 	sra	s4,s2,0x1f
9d007c34:	2404ffff 	li	a0,-1
9d007c38:	2405ffff 	li	a1,-1
9d007c3c:	02403021 	move	a2,s2
9d007c40:	0f40186b 	jal	9d0061ac <__udivdi3>
9d007c44:	02803821 	move	a3,s4
9d007c48:	02405821 	move	t3,s2
9d007c4c:	00406821 	move	t5,v0
9d007c50:	00605021 	move	t2,v1
9d007c54:	2624ffff 	addiu	a0,s1,-1
9d007c58:	00002821 	move	a1,zero
9d007c5c:	00001021 	move	v0,zero
9d007c60:	00001821 	move	v1,zero
9d007c64:	3c079d01 	lui	a3,0x9d01
9d007c68:	24e7a0b5 	addiu	a3,a3,-24395
9d007c6c:	240e0061 	li	t6,97
9d007c70:	240c0041 	li	t4,65
9d007c74:	1200002b 	beqz	s0,9d007d24 <strtoull+0x1b4>
9d007c78:	24840001 	addiu	a0,a0,1
9d007c7c:	02074021 	addu	t0,s0,a3
9d007c80:	91080000 	lbu	t0,0(t0)
9d007c84:	31090004 	andi	t1,t0,0x4
9d007c88:	1120003d 	beqz	t1,9d007d80 <strtoull+0x210>
9d007c8c:	31060003 	andi	a2,t0,0x3
9d007c90:	2610ffd0 	addiu	s0,s0,-48
9d007c94:	06000023 	bltz	s0,9d007d24 <strtoull+0x1b4>
9d007c98:	0212402a 	slt	t0,s0,s2
9d007c9c:	11000021 	beqz	t0,9d007d24 <strtoull+0x1b4>
9d007ca0:	0143402b 	sltu	t0,t2,v1
9d007ca4:	55000034 	bnezl	t0,9d007d78 <strtoull+0x208>
9d007ca8:	24050001 	li	a1,1
9d007cac:	146a0003 	bne	v1,t2,9d007cbc <strtoull+0x14c>
9d007cb0:	01a2302b 	sltu	a2,t5,v0
9d007cb4:	54c00030 	bnezl	a2,9d007d78 <strtoull+0x208>
9d007cb8:	24050001 	li	a1,1
9d007cbc:	14a00016 	bnez	a1,9d007d18 <strtoull+0x1a8>
9d007cc0:	02820018 	mult	s4,v0
9d007cc4:	001047c3 	sra	t0,s0,0x1f
9d007cc8:	71630000 	madd	t3,v1
9d007ccc:	00003012 	mflo	a2
9d007cd0:	004b0019 	multu	v0,t3
9d007cd4:	00001012 	mflo	v0
9d007cd8:	00001810 	mfhi	v1
9d007cdc:	00c31821 	addu	v1,a2,v1
9d007ce0:	00033027 	nor	a2,zero,v1
9d007ce4:	00c8482b 	sltu	t1,a2,t0
9d007ce8:	15200022 	bnez	t1,9d007d74 <strtoull+0x204>
9d007cec:	00027827 	nor	t7,zero,v0
9d007cf0:	55060005 	bnel	t0,a2,9d007d08 <strtoull+0x198>
9d007cf4:	02028021 	addu	s0,s0,v0
9d007cf8:	01f0782b 	sltu	t7,t7,s0
9d007cfc:	55e0001e 	bnezl	t7,9d007d78 <strtoull+0x208>
9d007d00:	24050001 	li	a1,1
9d007d04:	02028021 	addu	s0,s0,v0
9d007d08:	0202302b 	sltu	a2,s0,v0
9d007d0c:	00684021 	addu	t0,v1,t0
9d007d10:	02001021 	move	v0,s0
9d007d14:	00c81821 	addu	v1,a2,t0
9d007d18:	80900001 	lb	s0,1(a0)
9d007d1c:	1600ffd7 	bnez	s0,9d007c7c <strtoull+0x10c>
9d007d20:	24840001 	addiu	a0,a0,1
9d007d24:	12a0001d 	beqz	s5,9d007d9c <strtoull+0x22c>
9d007d28:	00000000 	nop
9d007d2c:	54a0001e 	bnezl	a1,9d007da8 <strtoull+0x238>
9d007d30:	24030022 	li	v1,34
9d007d34:	00023823 	negu	a3,v0
9d007d38:	0007282b 	sltu	a1,zero,a3
9d007d3c:	00033023 	negu	a2,v1
9d007d40:	00e01021 	move	v0,a3
9d007d44:	00c51823 	subu	v1,a2,a1
9d007d48:	56600001 	bnezl	s3,9d007d50 <strtoull+0x1e0>
9d007d4c:	ae640000 	sw	a0,0(s3)
9d007d50:	8fbf002c 	lw	ra,44(sp)
9d007d54:	8fb50028 	lw	s5,40(sp)
9d007d58:	8fb40024 	lw	s4,36(sp)
9d007d5c:	8fb30020 	lw	s3,32(sp)
9d007d60:	8fb2001c 	lw	s2,28(sp)
9d007d64:	8fb10018 	lw	s1,24(sp)
9d007d68:	8fb00014 	lw	s0,20(sp)
9d007d6c:	03e00008 	jr	ra
9d007d70:	27bd0030 	addiu	sp,sp,48
9d007d74:	24050001 	li	a1,1
9d007d78:	0b401f47 	j	9d007d1c <strtoull+0x1ac>
9d007d7c:	80900001 	lb	s0,1(a0)
9d007d80:	10c0ffe8 	beqz	a2,9d007d24 <strtoull+0x1b4>
9d007d84:	31080001 	andi	t0,t0,0x1
9d007d88:	01803021 	move	a2,t4
9d007d8c:	01c8300a 	movz	a2,t6,t0
9d007d90:	02068023 	subu	s0,s0,a2
9d007d94:	0b401f25 	j	9d007c94 <strtoull+0x124>
9d007d98:	2610000a 	addiu	s0,s0,10
9d007d9c:	10a0ffea 	beqz	a1,9d007d48 <strtoull+0x1d8>
9d007da0:	00000000 	nop
9d007da4:	24030022 	li	v1,34
9d007da8:	3c02a000 	lui	v0,0xa000
9d007dac:	ac430038 	sw	v1,56(v0)
9d007db0:	2402ffff 	li	v0,-1
9d007db4:	0b401f52 	j	9d007d48 <strtoull+0x1d8>
9d007db8:	2403ffff 	li	v1,-1
9d007dbc:	1043ff88 	beq	v0,v1,9d007be0 <strtoull+0x70>
9d007dc0:	3842002d 	xori	v0,v0,0x2d
9d007dc4:	82300000 	lb	s0,0(s1)
9d007dc8:	0b401efb 	j	9d007bec <strtoull+0x7c>
9d007dcc:	0000a821 	move	s5,zero
9d007dd0:	82300001 	lb	s0,1(s1)
9d007dd4:	2403ffdf 	li	v1,-33
9d007dd8:	02031824 	and	v1,s0,v1
9d007ddc:	24020058 	li	v0,88
9d007de0:	50620012 	beql	v1,v0,9d007e2c <strtoull+0x2bc>
9d007de4:	82300002 	lb	s0,2(s1)
9d007de8:	26310001 	addiu	s1,s1,1
9d007dec:	240dffff 	li	t5,-1
9d007df0:	3c0a1fff 	lui	t2,0x1fff
9d007df4:	354affff 	ori	t2,t2,0xffff
9d007df8:	240b0008 	li	t3,8
9d007dfc:	0000a021 	move	s4,zero
9d007e00:	0b401f15 	j	9d007c54 <strtoull+0xe4>
9d007e04:	24120008 	li	s2,8
9d007e08:	24020030 	li	v0,48
9d007e0c:	5202000f 	beql	s0,v0,9d007e4c <strtoull+0x2dc>
9d007e10:	82300001 	lb	s0,1(s1)
9d007e14:	240dffff 	li	t5,-1
9d007e18:	3c0a0fff 	lui	t2,0xfff
9d007e1c:	354affff 	ori	t2,t2,0xffff
9d007e20:	240b0010 	li	t3,16
9d007e24:	0b401f15 	j	9d007c54 <strtoull+0xe4>
9d007e28:	0000a021 	move	s4,zero
9d007e2c:	240dffff 	li	t5,-1
9d007e30:	26310002 	addiu	s1,s1,2
9d007e34:	3c0a0fff 	lui	t2,0xfff
9d007e38:	354affff 	ori	t2,t2,0xffff
9d007e3c:	240b0010 	li	t3,16
9d007e40:	0000a021 	move	s4,zero
9d007e44:	0b401f15 	j	9d007c54 <strtoull+0xe4>
9d007e48:	24120010 	li	s2,16
9d007e4c:	24020078 	li	v0,120
9d007e50:	52020003 	beql	s0,v0,9d007e60 <strtoull+0x2f0>
9d007e54:	82300002 	lb	s0,2(s1)
9d007e58:	0b401f85 	j	9d007e14 <strtoull+0x2a4>
9d007e5c:	26310001 	addiu	s1,s1,1
9d007e60:	240dffff 	li	t5,-1
9d007e64:	26310002 	addiu	s1,s1,2
9d007e68:	3c0a0fff 	lui	t2,0xfff
9d007e6c:	354affff 	ori	t2,t2,0xffff
9d007e70:	240b0010 	li	t3,16
9d007e74:	0b401f15 	j	9d007c54 <strtoull+0xe4>
9d007e78:	0000a021 	move	s4,zero

Disassembly of section .text:

9d007e7c <main>:


#define BUF_SIZE 200

int main()
{
9d007e7c:	27bdff00 	addiu	sp,sp,-256
9d007e80:	afbf00fc 	sw	ra,252(sp)
9d007e84:	afb500f8 	sw	s5,248(sp)
9d007e88:	afb400f4 	sw	s4,244(sp)
9d007e8c:	afb300f0 	sw	s3,240(sp)
9d007e90:	afb200ec 	sw	s2,236(sp)
9d007e94:	afb100e8 	sw	s1,232(sp)
    char buffer[BUF_SIZE];
    NU32_Startup(); // cache on, min flash wait, interrupts on, LED/button init, UART init
9d007e98:	0f40250e 	jal	9d009438 <NU32_Startup>
9d007e9c:	afb000e4 	sw	s0,228(sp)

9d007ea0 <.LVL0>:
    NU32_LED1 = 1; NU32_LED2 = 1;  // turn off LEDs
9d007ea0:	3c02bf88 	lui	v0,0xbf88
9d007ea4:	90436160 	lbu	v1,24928(v0)
9d007ea8:	24040001 	li	a0,1
9d007eac:	7c830004 	ins	v1,a0,0x0,0x1
9d007eb0:	a0436160 	sb	v1,24928(v0)
9d007eb4:	90436160 	lbu	v1,24928(v0)
9d007eb8:	7c830844 	ins	v1,a0,0x1,0x1
9d007ebc:	a0436160 	sb	v1,24928(v0)
   
    __builtin_disable_interrupts();     // Initialize modules
9d007ec0:	41626000 	di	v0
9d007ec4:	000000c0 	ehb
	encoder_init();
9d007ec8:	0f4026eb 	jal	9d009bac <encoder_init>
9d007ecc:	00000000 	nop

9d007ed0 <.LVL1>:
	io_init();
9d007ed0:	0f401c63 	jal	9d00718c <io_init>
9d007ed4:	00000000 	nop

9d007ed8 <.LVL2>:
	dac_init();
9d007ed8:	0f402492 	jal	9d009248 <dac_init>
9d007edc:	00000000 	nop

9d007ee0 <.LVL3>:
	positioncontrol_setup();
9d007ee0:	0f400f99 	jal	9d003e64 <positioncontrol_setup>
9d007ee4:	00000000 	nop

9d007ee8 <.LVL4>:
    __builtin_enable_interrupts();
9d007ee8:	41626020 	ei	v0
    
    while(1)
    {
        NU32_ReadUART3(buffer,BUF_SIZE); // Expect next character to be a menu command
        NU32_LED2 = 1;                   // Clear the error LED
9d007eec:	3c10bf88 	lui	s0,0xbf88
        switch (buffer[0]) {
9d007ef0:	3c129d00 	lui	s2,0x9d00
9d007ef4:	26527f54 	addiu	s2,s2,32596
			}
			case 'z':	// Client test
			{
				int n = 0;
				NU32_ReadUART3(buffer,BUF_SIZE);
				sscanf(buffer, "%d", &n);
9d007ef8:	3c159d01 	lui	s5,0x9d01
9d007efc:	26b5baf0 	addiu	s5,s5,-17680
				sprintf(buffer, "%d\r\n", n+1);
9d007f00:	3c139d01 	lui	s3,0x9d01
9d007f04:	2673badc 	addiu	s3,s3,-17700
			}
			case 'y':	// Test dac
			{
				float n;
				NU32_ReadUART3(buffer,BUF_SIZE);
				sscanf(buffer,"%f",&n);
9d007f08:	3c149d01 	lui	s4,0x9d01
    __builtin_enable_interrupts();
    
    while(1)
    {
        NU32_ReadUART3(buffer,BUF_SIZE); // Expect next character to be a menu command
        NU32_LED2 = 1;                   // Clear the error LED
9d007f0c:	24110001 	li	s1,1
	positioncontrol_setup();
    __builtin_enable_interrupts();
    
    while(1)
    {
        NU32_ReadUART3(buffer,BUF_SIZE); // Expect next character to be a menu command
9d007f10:	27a40010 	addiu	a0,sp,16
9d007f14:	0f402553 	jal	9d00954c <NU32_ReadUART3>
9d007f18:	240500c8 	li	a1,200

9d007f1c <.LVL5>:
        NU32_LED2 = 1;                   // Clear the error LED
9d007f1c:	92026160 	lbu	v0,24928(s0)
9d007f20:	7e220844 	ins	v0,s1,0x1,0x1
9d007f24:	a2026160 	sb	v0,24928(s0)
        switch (buffer[0]) {
9d007f28:	93a20010 	lbu	v0,16(sp)
9d007f2c:	2442ff9f 	addiu	v0,v0,-97
9d007f30:	304300ff 	andi	v1,v0,0xff
9d007f34:	2c63001a 	sltiu	v1,v1,26
9d007f38:	1060fff5 	beqz	v1,9d007f10 <.LVL4+0x28>
9d007f3c:	304200ff 	andi	v0,v0,0xff
9d007f40:	00021080 	sll	v0,v0,0x2
9d007f44:	02421021 	addu	v0,s2,v0
9d007f48:	8c420000 	lw	v0,0(v0)
9d007f4c:	00400008 	jr	v0
9d007f50:	00000000 	nop
9d007f54:	9d007fbc 	0x9d007fbc
9d007f58:	9d007fec 	0x9d007fec
9d007f5c:	9d008020 	0x9d008020
9d007f60:	9d007f10 	0x9d007f10
9d007f64:	9d007f10 	0x9d007f10
9d007f68:	9d007f10 	0x9d007f10
9d007f6c:	9d007f10 	0x9d007f10
9d007f70:	9d007f10 	0x9d007f10
9d007f74:	9d008030 	0x9d008030
9d007f78:	9d008040 	0x9d008040
9d007f7c:	9d008050 	0x9d008050
9d007f80:	9d008060 	0x9d008060
9d007f84:	9d008078 	0x9d008078
9d007f88:	9d008088 	0x9d008088
9d007f8c:	9d008098 	0x9d008098
9d007f90:	9d0080a8 	0x9d0080a8
9d007f94:	9d0080b8 	0x9d0080b8
9d007f98:	9d0080c8 	0x9d0080c8
9d007f9c:	9d0080f0 	0x9d0080f0
9d007fa0:	9d007f10 	0x9d007f10
9d007fa4:	9d007f10 	0x9d007f10
9d007fa8:	9d007f10 	0x9d007f10
9d007fac:	9d007f10 	0x9d007f10
9d007fb0:	9d008100 	0x9d008100
9d007fb4:	9d008108 	0x9d008108
9d007fb8:	9d008134 	0x9d008134

9d007fbc <.LBB4>:
			case 'a':	// Read encoder (counts)
            {
                int i = encoder_counts(); // SPI bug correction
9d007fbc:	0f4026cf 	jal	9d009b3c <encoder_counts>
9d007fc0:	24110001 	li	s1,1

9d007fc4 <.LVL6>:
				sprintf(buffer,"%d\r\n",encoder_counts());
9d007fc4:	0f4026cf 	jal	9d009b3c <encoder_counts>
9d007fc8:	00000000 	nop

9d007fcc <.LVL7>:
9d007fcc:	27a40010 	addiu	a0,sp,16
9d007fd0:	02602821 	move	a1,s3
9d007fd4:	0f402c77 	jal	9d00b1dc <_sprintf_cdfFnopuxX>
9d007fd8:	00403021 	move	a2,v0

9d007fdc <.LVL8>:
				NU32_WriteUART3(buffer); // send encoder count to client
9d007fdc:	0f402570 	jal	9d0095c0 <NU32_WriteUART3>
9d007fe0:	27a40010 	addiu	a0,sp,16

9d007fe4 <.LVL9>:
				break;
9d007fe4:	0b401fc5 	j	9d007f14 <.LVL4+0x2c>
9d007fe8:	27a40010 	addiu	a0,sp,16

9d007fec <.LBE4>:
			}
			case 'b':	// Read encoder (mm)
			{
				encoder_position(); // spi bug correction
9d007fec:	0f4026d6 	jal	9d009b58 <encoder_position>
9d007ff0:	24110001 	li	s1,1

9d007ff4 <.LVL10>:
				sprintf(buffer,"%.2f\r\n",encoder_position());
9d007ff4:	0f4026d6 	jal	9d009b58 <encoder_position>
9d007ff8:	00000000 	nop

9d007ffc <.LVL11>:
9d007ffc:	27a40010 	addiu	a0,sp,16
9d008000:	3c059d01 	lui	a1,0x9d01
9d008004:	24a5bae4 	addiu	a1,a1,-17692
9d008008:	0f402c77 	jal	9d00b1dc <_sprintf_cdfFnopuxX>
9d00800c:	00403021 	move	a2,v0

9d008010 <.LVL12>:
				NU32_WriteUART3(buffer);
9d008010:	0f402570 	jal	9d0095c0 <NU32_WriteUART3>
9d008014:	27a40010 	addiu	a0,sp,16

9d008018 <.LVL13>:
				break;
9d008018:	0b401fc5 	j	9d007f14 <.LVL4+0x2c>
9d00801c:	27a40010 	addiu	a0,sp,16
			}
			case 'c':	// Reset encoder
			{
				encoder_reset();    // reset encoder count to 32,768
9d008020:	0f4026e4 	jal	9d009b90 <encoder_reset>
9d008024:	24110001 	li	s1,1

9d008028 <.LVL14>:
                break;
9d008028:	0b401fc5 	j	9d007f14 <.LVL4+0x2c>
9d00802c:	27a40010 	addiu	a0,sp,16
			}
			case 'i':   // Set position gains
            {
                set_position_gains();
9d008030:	0f400f47 	jal	9d003d1c <set_position_gains>
9d008034:	24110001 	li	s1,1

9d008038 <.LVL15>:
                break;
9d008038:	0b401fc5 	j	9d007f14 <.LVL4+0x2c>
9d00803c:	27a40010 	addiu	a0,sp,16
            }
            case 'j':   // Get position gains
            {
                get_position_gains();
9d008040:	0f400f60 	jal	9d003d80 <get_position_gains>
9d008044:	24110001 	li	s1,1

9d008048 <.LVL16>:
                break;
9d008048:	0b401fc5 	j	9d007f14 <.LVL4+0x2c>
9d00804c:	27a40010 	addiu	a0,sp,16
            }
			case 'k':	// Motor startup
			{
				motor_startup();
9d008050:	0f401d14 	jal	9d007450 <motor_startup>
9d008054:	24110001 	li	s1,1

9d008058 <.LVL17>:
				break;
9d008058:	0b401fc5 	j	9d007f14 <.LVL4+0x2c>
9d00805c:	27a40010 	addiu	a0,sp,16
			}
			case 'l':   // Go to position (mm)
            {
                get_pos();    	// Get desired position from client
9d008060:	0f400f7a 	jal	9d003de8 <get_pos>
9d008064:	24110001 	li	s1,1

9d008068 <.LVL18>:
                setMODE(HOLD);  // Set PIC32 to hold specified position
9d008068:	0f402409 	jal	9d009024 <setMODE>
9d00806c:	24040001 	li	a0,1

9d008070 <.LVL19>:
                break;
9d008070:	0b401fc5 	j	9d007f14 <.LVL4+0x2c>
9d008074:	27a40010 	addiu	a0,sp,16
            }
			case 'm':   // Load step trajectory
            {
                load_trajectory();
9d008078:	0f400fbf 	jal	9d003efc <load_trajectory>
9d00807c:	24110001 	li	s1,1

9d008080 <.LVL20>:
                break;
9d008080:	0b401fc5 	j	9d007f14 <.LVL4+0x2c>
9d008084:	27a40010 	addiu	a0,sp,16
            }
			case 'n':   // Load cubic trajectory
            {
                load_trajectory();
9d008088:	0f400fbf 	jal	9d003efc <load_trajectory>
9d00808c:	24110001 	li	s1,1

9d008090 <.LVL21>:
                break;
9d008090:	0b401fc5 	j	9d007f14 <.LVL4+0x2c>
9d008094:	27a40010 	addiu	a0,sp,16
            }
			case 'o':   // Execute trajectory
            {
                setMODE(TRACK);
9d008098:	0f402409 	jal	9d009024 <setMODE>
9d00809c:	24040002 	li	a0,2

9d0080a0 <.LVL22>:
                break;
9d0080a0:	0b401fc4 	j	9d007f10 <.LVL4+0x28>
9d0080a4:	24110001 	li	s1,1
            }
			case 'p':	// Loop trajectory
			{
				setMODE(LOOP);
9d0080a8:	0f402409 	jal	9d009024 <setMODE>
9d0080ac:	24040003 	li	a0,3

9d0080b0 <.LVL23>:
				break;
9d0080b0:	0b401fc4 	j	9d007f10 <.LVL4+0x28>
9d0080b4:	24110001 	li	s1,1
			}
			case 'q':   // Quit
            {
                setMODE(IDLE);
9d0080b8:	0f402409 	jal	9d009024 <setMODE>
9d0080bc:	00002021 	move	a0,zero

9d0080c0 <.LVL24>:
                break;
9d0080c0:	0b401fc4 	j	9d007f10 <.LVL4+0x28>
9d0080c4:	24110001 	li	s1,1
            }
			case 'r':   // Get mode
            {   
                sprintf(buffer,"%d\r\n",getMODE()); // Store mode in buffer
9d0080c8:	0f40241a 	jal	9d009068 <getMODE>
9d0080cc:	24110001 	li	s1,1

9d0080d0 <.LVL25>:
9d0080d0:	27a40010 	addiu	a0,sp,16
9d0080d4:	02602821 	move	a1,s3
9d0080d8:	0f402c77 	jal	9d00b1dc <_sprintf_cdfFnopuxX>
9d0080dc:	00403021 	move	a2,v0

9d0080e0 <.LVL26>:
                NU32_WriteUART3(buffer);            // Send mode to client
9d0080e0:	0f402570 	jal	9d0095c0 <NU32_WriteUART3>
9d0080e4:	27a40010 	addiu	a0,sp,16

9d0080e8 <.LVL27>:
                break;
9d0080e8:	0b401fc5 	j	9d007f14 <.LVL4+0x2c>
9d0080ec:	27a40010 	addiu	a0,sp,16
            }
			case 's':	// Get state
			{
				state();
9d0080f0:	0f401c9a 	jal	9d007268 <state>
9d0080f4:	24110001 	li	s1,1

9d0080f8 <.LVL28>:
				break;
9d0080f8:	0b401fc5 	j	9d007f14 <.LVL4+0x2c>
9d0080fc:	27a40010 	addiu	a0,sp,16
			}
			case 'x':	// Turn off motor
			{
				motor_off();
9d008100:	0f401d09 	jal	9d007424 <motor_off>
9d008104:	00000000 	nop

9d008108 <.LVL29>:
			}
			case 'y':	// Test dac
			{
				float n;
				NU32_ReadUART3(buffer,BUF_SIZE);
9d008108:	27a40010 	addiu	a0,sp,16
9d00810c:	0f402553 	jal	9d00954c <NU32_ReadUART3>
9d008110:	240500c8 	li	a1,200

9d008114 <.LVL30>:
				sscanf(buffer,"%f",&n);
9d008114:	27a40010 	addiu	a0,sp,16
9d008118:	2685baec 	addiu	a1,s4,-17684
9d00811c:	0f402c5a 	jal	9d00b168 <_sscanf_cdfFnopuxX>
9d008120:	27a600d8 	addiu	a2,sp,216

9d008124 <.LVL31>:
				setVoltage(n);
9d008124:	0f4024d3 	jal	9d00934c <setVoltage>
9d008128:	8fa400d8 	lw	a0,216(sp)

9d00812c <.LVL32>:
    __builtin_enable_interrupts();
    
    while(1)
    {
        NU32_ReadUART3(buffer,BUF_SIZE); // Expect next character to be a menu command
        NU32_LED2 = 1;                   // Clear the error LED
9d00812c:	0b401fc4 	j	9d007f10 <.LVL4+0x28>
9d008130:	24110001 	li	s1,1
				setVoltage(n);
				break;
			}
			case 'z':	// Client test
			{
				int n = 0;
9d008134:	afa000d8 	sw	zero,216(sp)
				NU32_ReadUART3(buffer,BUF_SIZE);
9d008138:	27a40010 	addiu	a0,sp,16
9d00813c:	0f402553 	jal	9d00954c <NU32_ReadUART3>
9d008140:	240500c8 	li	a1,200

9d008144 <.LVL33>:
				sscanf(buffer, "%d", &n);
9d008144:	27a40010 	addiu	a0,sp,16
9d008148:	02a02821 	move	a1,s5
9d00814c:	0f402c5a 	jal	9d00b168 <_sscanf_cdfFnopuxX>
9d008150:	27a600d8 	addiu	a2,sp,216

9d008154 <.LVL34>:
				sprintf(buffer, "%d\r\n", n+1);
9d008154:	27a40010 	addiu	a0,sp,16
9d008158:	02602821 	move	a1,s3
9d00815c:	8fa600d8 	lw	a2,216(sp)
9d008160:	0f402c77 	jal	9d00b1dc <_sprintf_cdfFnopuxX>
9d008164:	24c60001 	addiu	a2,a2,1

9d008168 <.LVL35>:
				NU32_WriteUART3(buffer);
9d008168:	0f402570 	jal	9d0095c0 <NU32_WriteUART3>
9d00816c:	27a40010 	addiu	a0,sp,16

9d008170 <.LVL36>:
    __builtin_enable_interrupts();
    
    while(1)
    {
        NU32_ReadUART3(buffer,BUF_SIZE); // Expect next character to be a menu command
        NU32_LED2 = 1;                   // Clear the error LED
9d008170:	0b401fc4 	j	9d007f10 <.LVL4+0x28>
9d008174:	24110001 	li	s1,1

Disassembly of section .text._strtostr:

9d008178 <_strtostr>:
9d008178:	27bdfec8 	addiu	sp,sp,-312
9d00817c:	afbf0134 	sw	ra,308(sp)
9d008180:	afbe0130 	sw	s8,304(sp)
9d008184:	afb7012c 	sw	s7,300(sp)
9d008188:	afb60128 	sw	s6,296(sp)
9d00818c:	afb50124 	sw	s5,292(sp)
9d008190:	afb40120 	sw	s4,288(sp)
9d008194:	afb3011c 	sw	s3,284(sp)
9d008198:	afb20118 	sw	s2,280(sp)
9d00819c:	afb10114 	sw	s1,276(sp)
9d0081a0:	afb00110 	sw	s0,272(sp)
9d0081a4:	00808021 	move	s0,a0
9d0081a8:	afa5013c 	sw	a1,316(sp)
9d0081ac:	00c09821 	move	s3,a2
9d0081b0:	00e0b021 	move	s6,a3
9d0081b4:	24020002 	li	v0,2
9d0081b8:	10820056 	beq	a0,v0,9d008314 <_strtostr+0x19c>
9d0081bc:	8fb20148 	lw	s2,328(sp)
9d0081c0:	32730001 	andi	s3,s3,0x1
9d0081c4:	16600005 	bnez	s3,9d0081dc <_strtostr+0x64>
9d0081c8:	00000000 	nop
9d0081cc:	8e42000c 	lw	v0,12(s2)
9d0081d0:	24430004 	addiu	v1,v0,4
9d0081d4:	ae43000c 	sw	v1,12(s2)
9d0081d8:	8c510000 	lw	s1,0(v0)
9d0081dc:	12c00081 	beqz	s6,9d0083e4 <_strtostr+0x26c>
9d0081e0:	02c0b821 	move	s7,s6
9d0081e4:	2414ffff 	li	s4,-1
9d0081e8:	24150001 	li	s5,1
9d0081ec:	3c1e9d01 	lui	s8,0x9d01
9d0081f0:	27dea0b5 	addiu	s8,s8,-24395
9d0081f4:	0f402ce0 	jal	9d00b380 <gsgetc>
9d0081f8:	02402021 	move	a0,s2
9d0081fc:	50540011 	beql	v0,s4,9d008244 <_strtostr+0xcc>
9d008200:	02e01821 	move	v1,s7
9d008204:	12150038 	beq	s0,s5,9d0082e8 <_strtostr+0x170>
9d008208:	26e3ffff 	addiu	v1,s7,-1
9d00820c:	24040002 	li	a0,2
9d008210:	1204002b 	beq	s0,a0,9d0082c0 <_strtostr+0x148>
9d008214:	27a50010 	addiu	a1,sp,16
9d008218:	16600003 	bnez	s3,9d008228 <_strtostr+0xb0>
9d00821c:	00000000 	nop
9d008220:	a2220000 	sb	v0,0(s1)
9d008224:	26310001 	addiu	s1,s1,1
9d008228:	10600006 	beqz	v1,9d008244 <_strtostr+0xcc>
9d00822c:	0060b821 	move	s7,v1
9d008230:	0f402ce0 	jal	9d00b380 <gsgetc>
9d008234:	02402021 	move	a0,s2
9d008238:	1454fff2 	bne	v0,s4,9d008204 <_strtostr+0x8c>
9d00823c:	00000000 	nop
9d008240:	02e01821 	move	v1,s7
9d008244:	2402ffff 	li	v0,-1
9d008248:	8e440014 	lw	a0,20(s2)
9d00824c:	24840001 	addiu	a0,a0,1
9d008250:	16600008 	bnez	s3,9d008274 <_strtostr+0xfc>
9d008254:	ae440014 	sw	a0,20(s2)
9d008258:	24040001 	li	a0,1
9d00825c:	8fa6013c 	lw	a2,316(sp)
9d008260:	50c40001 	beql	a2,a0,9d008268 <_strtostr+0xf0>
9d008264:	a2200000 	sb	zero,0(s1)
9d008268:	8e440018 	lw	a0,24(s2)
9d00826c:	24840001 	addiu	a0,a0,1
9d008270:	ae440018 	sw	a0,24(s2)
9d008274:	14760005 	bne	v1,s6,9d00828c <_strtostr+0x114>
9d008278:	00002021 	move	a0,zero
9d00827c:	2404ffff 	li	a0,-1
9d008280:	00021027 	nor	v0,zero,v0
9d008284:	24030001 	li	v1,1
9d008288:	0062200b 	movn	a0,v1,v0
9d00828c:	00801021 	move	v0,a0
9d008290:	8fbf0134 	lw	ra,308(sp)
9d008294:	8fbe0130 	lw	s8,304(sp)
9d008298:	8fb7012c 	lw	s7,300(sp)
9d00829c:	8fb60128 	lw	s6,296(sp)
9d0082a0:	8fb50124 	lw	s5,292(sp)
9d0082a4:	8fb40120 	lw	s4,288(sp)
9d0082a8:	8fb3011c 	lw	s3,284(sp)
9d0082ac:	8fb20118 	lw	s2,280(sp)
9d0082b0:	8fb10114 	lw	s1,276(sp)
9d0082b4:	8fb00110 	lw	s0,272(sp)
9d0082b8:	03e00008 	jr	ra
9d0082bc:	27bd0138 	addiu	sp,sp,312
9d0082c0:	00a22021 	addu	a0,a1,v0
9d0082c4:	80840000 	lb	a0,0(a0)
9d0082c8:	1480ffd3 	bnez	a0,9d008218 <_strtostr+0xa0>
9d0082cc:	00000000 	nop
9d0082d0:	8e440010 	lw	a0,16(s2)
9d0082d4:	ae420004 	sw	v0,4(s2)
9d0082d8:	02e01821 	move	v1,s7
9d0082dc:	2484ffff 	addiu	a0,a0,-1
9d0082e0:	0b402092 	j	9d008248 <_strtostr+0xd0>
9d0082e4:	ae440010 	sw	a0,16(s2)
9d0082e8:	005e2021 	addu	a0,v0,s8
9d0082ec:	80840000 	lb	a0,0(a0)
9d0082f0:	30840088 	andi	a0,a0,0x88
9d0082f4:	1080ffc8 	beqz	a0,9d008218 <_strtostr+0xa0>
9d0082f8:	00000000 	nop
9d0082fc:	8e440010 	lw	a0,16(s2)
9d008300:	ae420004 	sw	v0,4(s2)
9d008304:	02e01821 	move	v1,s7
9d008308:	2484ffff 	addiu	a0,a0,-1
9d00830c:	0b402092 	j	9d008248 <_strtostr+0xd0>
9d008310:	ae440010 	sw	a0,16(s2)
9d008314:	8e540008 	lw	s4,8(s2)
9d008318:	82830000 	lb	v1,0(s4)
9d00831c:	2402005e 	li	v0,94
9d008320:	50620032 	beql	v1,v0,9d0083ec <_strtostr+0x274>
9d008324:	26940001 	addiu	s4,s4,1
9d008328:	24150001 	li	s5,1
9d00832c:	00002821 	move	a1,zero
9d008330:	27a40010 	addiu	a0,sp,16
9d008334:	0f402e63 	jal	9d00b98c <memset>
9d008338:	24060100 	li	a2,256
9d00833c:	82830000 	lb	v1,0(s4)
9d008340:	2405ffff 	li	a1,-1
9d008344:	2409ffff 	li	t1,-1
9d008348:	240a002d 	li	t2,45
9d00834c:	2408005d 	li	t0,93
9d008350:	0b4020e0 	j	9d008380 <_strtostr+0x208>
9d008354:	7c152420 	seb	a0,s5
9d008358:	00602821 	move	a1,v1
9d00835c:	27a30010 	addiu	v1,sp,16
9d008360:	00651021 	addu	v0,v1,a1
9d008364:	a0550000 	sb	s5,0(v0)
9d008368:	02801021 	move	v0,s4
9d00836c:	24540001 	addiu	s4,v0,1
9d008370:	ae540008 	sw	s4,8(s2)
9d008374:	80430001 	lb	v1,1(v0)
9d008378:	50680018 	beql	v1,t0,9d0083dc <_strtostr+0x264>
9d00837c:	24420002 	addiu	v0,v0,2
9d008380:	10a9fff5 	beq	a1,t1,9d008358 <_strtostr+0x1e0>
9d008384:	82870001 	lb	a3,1(s4)
9d008388:	546afff4 	bnel	v1,t2,9d00835c <_strtostr+0x1e4>
9d00838c:	00602821 	move	a1,v1
9d008390:	10e8fff1 	beq	a3,t0,9d008358 <_strtostr+0x1e0>
9d008394:	24a20001 	addiu	v0,a1,1
9d008398:	00e2282a 	slt	a1,a3,v0
9d00839c:	27a30010 	addiu	v1,sp,16
9d0083a0:	00621021 	addu	v0,v1,v0
9d0083a4:	27a60011 	addiu	a2,sp,17
9d0083a8:	14a00005 	bnez	a1,9d0083c0 <_strtostr+0x248>
9d0083ac:	00c71821 	addu	v1,a2,a3
9d0083b0:	a0440000 	sb	a0,0(v0)
9d0083b4:	24420001 	addiu	v0,v0,1
9d0083b8:	5443fffe 	bnel	v0,v1,9d0083b4 <_strtostr+0x23c>
9d0083bc:	a0440000 	sb	a0,0(v0)
9d0083c0:	26820001 	addiu	v0,s4,1
9d0083c4:	24540001 	addiu	s4,v0,1
9d0083c8:	ae540008 	sw	s4,8(s2)
9d0083cc:	80430001 	lb	v1,1(v0)
9d0083d0:	1468ffeb 	bne	v1,t0,9d008380 <_strtostr+0x208>
9d0083d4:	2405ffff 	li	a1,-1
9d0083d8:	24420002 	addiu	v0,v0,2
9d0083dc:	0b402070 	j	9d0081c0 <_strtostr+0x48>
9d0083e0:	ae420008 	sw	v0,8(s2)
9d0083e4:	0b402091 	j	9d008244 <_strtostr+0xcc>
9d0083e8:	00001821 	move	v1,zero
9d0083ec:	ae540008 	sw	s4,8(s2)
9d0083f0:	0000a821 	move	s5,zero
9d0083f4:	0b4020cc 	j	9d008330 <_strtostr+0x1b8>
9d0083f8:	24050001 	li	a1,1

Disassembly of section .text.free:

9d0083fc <free>:
9d0083fc:	10800076 	beqz	a0,9d0085d8 <free+0x1dc>
9d008400:	2403fffe 	li	v1,-2
9d008404:	8c86fffc 	lw	a2,-4(a0)
9d008408:	2485fff8 	addiu	a1,a0,-8
9d00840c:	00c31824 	and	v1,a2,v1
9d008410:	00a31021 	addu	v0,a1,v1
9d008414:	8c470004 	lw	a3,4(v0)
9d008418:	30e80001 	andi	t0,a3,0x1
9d00841c:	1100006e 	beqz	t0,9d0085d8 <free+0x1dc>
9d008420:	240afffc 	li	t2,-4
9d008424:	3c08a000 	lui	t0,0xa000
9d008428:	25085ec4 	addiu	t0,t0,24260
9d00842c:	8d090008 	lw	t1,8(t0)
9d008430:	00ea3824 	and	a3,a3,t2
9d008434:	10490058 	beq	v0,t1,9d008598 <free+0x19c>
9d008438:	30c60001 	andi	a2,a2,0x1
9d00843c:	ac470004 	sw	a3,4(v0)
9d008440:	14c0000c 	bnez	a2,9d008474 <free+0x78>
9d008444:	00004821 	move	t1,zero
9d008448:	8c86fff8 	lw	a2,-8(a0)
9d00844c:	00a62823 	subu	a1,a1,a2
9d008450:	8ca40008 	lw	a0,8(a1)
9d008454:	00661821 	addu	v1,v1,a2
9d008458:	3c06a000 	lui	a2,0xa000
9d00845c:	24c65ecc 	addiu	a2,a2,24268
9d008460:	50860004 	beql	a0,a2,9d008474 <free+0x78>
9d008464:	24090001 	li	t1,1
9d008468:	8ca6000c 	lw	a2,12(a1)
9d00846c:	ac86000c 	sw	a2,12(a0)
9d008470:	acc40008 	sw	a0,8(a2)
9d008474:	00472021 	addu	a0,v0,a3
9d008478:	8c840004 	lw	a0,4(a0)
9d00847c:	30840001 	andi	a0,a0,0x1
9d008480:	54800008 	bnezl	a0,9d0084a4 <free+0xa8>
9d008484:	34640001 	ori	a0,v1,0x1
9d008488:	00671821 	addu	v1,v1,a3
9d00848c:	11200027 	beqz	t1,9d00852c <free+0x130>
9d008490:	8c440008 	lw	a0,8(v0)
9d008494:	8c42000c 	lw	v0,12(v0)
9d008498:	ac82000c 	sw	v0,12(a0)
9d00849c:	ac440008 	sw	a0,8(v0)
9d0084a0:	34640001 	ori	a0,v1,0x1
9d0084a4:	00a31021 	addu	v0,a1,v1
9d0084a8:	aca40004 	sw	a0,4(a1)
9d0084ac:	1520004a 	bnez	t1,9d0085d8 <free+0x1dc>
9d0084b0:	ac430000 	sw	v1,0(v0)
9d0084b4:	2c620200 	sltiu	v0,v1,512
9d0084b8:	54400029 	bnezl	v0,9d008560 <free+0x164>
9d0084bc:	000318c2 	srl	v1,v1,0x3
9d0084c0:	00031242 	srl	v0,v1,0x9
9d0084c4:	2c440005 	sltiu	a0,v0,5
9d0084c8:	1080004d 	beqz	a0,9d008600 <free+0x204>
9d0084cc:	2c440015 	sltiu	a0,v0,21
9d0084d0:	00032182 	srl	a0,v1,0x6
9d0084d4:	24840038 	addiu	a0,a0,56
9d0084d8:	00043040 	sll	a2,a0,0x1
9d0084dc:	00063080 	sll	a2,a2,0x2
9d0084e0:	01063021 	addu	a2,t0,a2
9d0084e4:	8cc20008 	lw	v0,8(a2)
9d0084e8:	5046004a 	beql	v0,a2,9d008614 <free+0x218>
9d0084ec:	8d030004 	lw	v1,4(t0)
9d0084f0:	2407fffc 	li	a3,-4
9d0084f4:	8c440004 	lw	a0,4(v0)
9d0084f8:	00872024 	and	a0,a0,a3
9d0084fc:	0064202b 	sltu	a0,v1,a0
9d008500:	50800005 	beqzl	a0,9d008518 <free+0x11c>
9d008504:	8c43000c 	lw	v1,12(v0)
9d008508:	8c420008 	lw	v0,8(v0)
9d00850c:	54c2fffa 	bnel	a2,v0,9d0084f8 <free+0xfc>
9d008510:	8c440004 	lw	a0,4(v0)
9d008514:	8c43000c 	lw	v1,12(v0)
9d008518:	aca3000c 	sw	v1,12(a1)
9d00851c:	aca20008 	sw	v0,8(a1)
9d008520:	ac650008 	sw	a1,8(v1)
9d008524:	03e00008 	jr	ra
9d008528:	ac45000c 	sw	a1,12(v0)
9d00852c:	3c06a000 	lui	a2,0xa000
9d008530:	24c65ecc 	addiu	a2,a2,24268
9d008534:	5486ffd8 	bnel	a0,a2,9d008498 <free+0x9c>
9d008538:	8c42000c 	lw	v0,12(v0)
9d00853c:	34660001 	ori	a2,v1,0x1
9d008540:	00a31021 	addu	v0,a1,v1
9d008544:	ad050014 	sw	a1,20(t0)
9d008548:	ad050010 	sw	a1,16(t0)
9d00854c:	aca4000c 	sw	a0,12(a1)
9d008550:	aca40008 	sw	a0,8(a1)
9d008554:	aca60004 	sw	a2,4(a1)
9d008558:	03e00008 	jr	ra
9d00855c:	ac430000 	sw	v1,0(v0)
9d008560:	000310c0 	sll	v0,v1,0x3
9d008564:	01021021 	addu	v0,t0,v0
9d008568:	8d060004 	lw	a2,4(t0)
9d00856c:	8c440008 	lw	a0,8(v0)
9d008570:	00031883 	sra	v1,v1,0x2
9d008574:	24070001 	li	a3,1
9d008578:	00671804 	sllv	v1,a3,v1
9d00857c:	00661825 	or	v1,v1,a2
9d008580:	aca2000c 	sw	v0,12(a1)
9d008584:	aca40008 	sw	a0,8(a1)
9d008588:	ad030004 	sw	v1,4(t0)
9d00858c:	ac450008 	sw	a1,8(v0)
9d008590:	03e00008 	jr	ra
9d008594:	ac85000c 	sw	a1,12(a0)
9d008598:	14c00008 	bnez	a2,9d0085bc <free+0x1c0>
9d00859c:	00e33821 	addu	a3,a3,v1
9d0085a0:	8c84fff8 	lw	a0,-8(a0)
9d0085a4:	00a42823 	subu	a1,a1,a0
9d0085a8:	8ca2000c 	lw	v0,12(a1)
9d0085ac:	8ca30008 	lw	v1,8(a1)
9d0085b0:	00e43821 	addu	a3,a3,a0
9d0085b4:	ac62000c 	sw	v0,12(v1)
9d0085b8:	ac430008 	sw	v1,8(v0)
9d0085bc:	3c02a000 	lui	v0,0xa000
9d0085c0:	8c425ec0 	lw	v0,24256(v0)
9d0085c4:	34e30001 	ori	v1,a3,0x1
9d0085c8:	aca30004 	sw	v1,4(a1)
9d0085cc:	00e2382b 	sltu	a3,a3,v0
9d0085d0:	10e00003 	beqz	a3,9d0085e0 <free+0x1e4>
9d0085d4:	ad050008 	sw	a1,8(t0)
9d0085d8:	03e00008 	jr	ra
9d0085dc:	00000000 	nop
9d0085e0:	27bdffe8 	addiu	sp,sp,-24
9d0085e4:	afbf0014 	sw	ra,20(sp)
9d0085e8:	3c02a000 	lui	v0,0xa000
9d0085ec:	0f4027eb 	jal	9d009fac <malloc_trim>
9d0085f0:	8c446458 	lw	a0,25688(v0)
9d0085f4:	8fbf0014 	lw	ra,20(sp)
9d0085f8:	03e00008 	jr	ra
9d0085fc:	27bd0018 	addiu	sp,sp,24
9d008600:	5080000b 	beqzl	a0,9d008630 <free+0x234>
9d008604:	2c440055 	sltiu	a0,v0,85
9d008608:	2444005b 	addiu	a0,v0,91
9d00860c:	0b402137 	j	9d0084dc <free+0xe0>
9d008610:	00043040 	sll	a2,a0,0x1
9d008614:	00042083 	sra	a0,a0,0x2
9d008618:	24060001 	li	a2,1
9d00861c:	00862004 	sllv	a0,a2,a0
9d008620:	00831825 	or	v1,a0,v1
9d008624:	ad030004 	sw	v1,4(t0)
9d008628:	0b402146 	j	9d008518 <free+0x11c>
9d00862c:	00401821 	move	v1,v0
9d008630:	50800005 	beqzl	a0,9d008648 <free+0x24c>
9d008634:	2c440155 	sltiu	a0,v0,341
9d008638:	00032302 	srl	a0,v1,0xc
9d00863c:	2484006e 	addiu	a0,a0,110
9d008640:	0b402137 	j	9d0084dc <free+0xe0>
9d008644:	00043040 	sll	a2,a0,0x1
9d008648:	10800005 	beqz	a0,9d008660 <free+0x264>
9d00864c:	2c420555 	sltiu	v0,v0,1365
9d008650:	000323c2 	srl	a0,v1,0xf
9d008654:	24840077 	addiu	a0,a0,119
9d008658:	0b402137 	j	9d0084dc <free+0xe0>
9d00865c:	00043040 	sll	a2,a0,0x1
9d008660:	50400005 	beqzl	v0,9d008678 <free+0x27c>
9d008664:	240600fc 	li	a2,252
9d008668:	00032482 	srl	a0,v1,0x12
9d00866c:	2484007c 	addiu	a0,a0,124
9d008670:	0b402137 	j	9d0084dc <free+0xe0>
9d008674:	00043040 	sll	a2,a0,0x1
9d008678:	0b402137 	j	9d0084dc <free+0xe0>
9d00867c:	2404007e 	li	a0,126

Disassembly of section .text.strtoul:

9d008680 <strtoul>:
9d008680:	80820000 	lb	v0,0(a0)
9d008684:	10400089 	beqz	v0,9d0088ac <strtoul+0x22c>
9d008688:	00001821 	move	v1,zero
9d00868c:	3c089d01 	lui	t0,0x9d01
9d008690:	2508a0b5 	addiu	t0,t0,-24395
9d008694:	01021821 	addu	v1,t0,v0
9d008698:	80630000 	lb	v1,0(v1)
9d00869c:	30630088 	andi	v1,v1,0x88
9d0086a0:	14600007 	bnez	v1,9d0086c0 <strtoul+0x40>
9d0086a4:	00803821 	move	a3,a0
9d0086a8:	0b402204 	j	9d008810 <strtoul+0x190>
9d0086ac:	2403002b 	li	v1,43
9d0086b0:	80630000 	lb	v1,0(v1)
9d0086b4:	30630088 	andi	v1,v1,0x88
9d0086b8:	50600055 	beqzl	v1,9d008810 <strtoul+0x190>
9d0086bc:	2403002b 	li	v1,43
9d0086c0:	24e70001 	addiu	a3,a3,1
9d0086c4:	80e20000 	lb	v0,0(a3)
9d0086c8:	1440fff9 	bnez	v0,9d0086b0 <strtoul+0x30>
9d0086cc:	01021821 	addu	v1,t0,v0
9d0086d0:	00001821 	move	v1,zero
9d0086d4:	0000c021 	move	t8,zero
9d0086d8:	14c00041 	bnez	a2,9d0087e0 <strtoul+0x160>
9d0086dc:	24020010 	li	v0,16
9d0086e0:	24020030 	li	v0,48
9d0086e4:	1062005d 	beq	v1,v0,9d00885c <strtoul+0x1dc>
9d0086e8:	3c0d1999 	lui	t5,0x1999
9d0086ec:	35ad9999 	ori	t5,t5,0x9999
9d0086f0:	240f000a 	li	t7,10
9d0086f4:	00005821 	move	t3,zero
9d0086f8:	2406000a 	li	a2,10
9d0086fc:	24e7ffff 	addiu	a3,a3,-1
9d008700:	00005021 	move	t2,zero
9d008704:	00001021 	move	v0,zero
9d008708:	3c0c9d01 	lui	t4,0x9d01
9d00870c:	258ca0b5 	addiu	t4,t4,-24395
9d008710:	24190061 	li	t9,97
9d008714:	240e0041 	li	t6,65
9d008718:	10600019 	beqz	v1,9d008780 <strtoul+0x100>
9d00871c:	24e70001 	addiu	a3,a3,1
9d008720:	006c4021 	addu	t0,v1,t4
9d008724:	91080000 	lbu	t0,0(t0)
9d008728:	31090004 	andi	t1,t0,0x4
9d00872c:	11200023 	beqz	t1,9d0087bc <strtoul+0x13c>
9d008730:	31090003 	andi	t1,t0,0x3
9d008734:	2463ffd0 	addiu	v1,v1,-48
9d008738:	04600011 	bltz	v1,9d008780 <strtoul+0x100>
9d00873c:	0066402a 	slt	t0,v1,a2
9d008740:	1100000f 	beqz	t0,9d008780 <strtoul+0x100>
9d008744:	01a2402b 	sltu	t0,t5,v0
9d008748:	55000019 	bnezl	t0,9d0087b0 <strtoul+0x130>
9d00874c:	240a0001 	li	t2,1
9d008750:	55400008 	bnezl	t2,9d008774 <strtoul+0xf4>
9d008754:	80e30001 	lb	v1,1(a3)
9d008758:	704f1002 	mul	v0,v0,t7
9d00875c:	00024027 	nor	t0,zero,v0
9d008760:	0103402b 	sltu	t0,t0,v1
9d008764:	55000012 	bnezl	t0,9d0087b0 <strtoul+0x130>
9d008768:	240a0001 	li	t2,1
9d00876c:	00431021 	addu	v0,v0,v1
9d008770:	80e30001 	lb	v1,1(a3)
9d008774:	240b0001 	li	t3,1
9d008778:	1460ffe9 	bnez	v1,9d008720 <strtoul+0xa0>
9d00877c:	24e70001 	addiu	a3,a3,1
9d008780:	1300001f 	beqz	t8,9d008800 <strtoul+0x180>
9d008784:	00000000 	nop
9d008788:	11400005 	beqz	t2,9d0087a0 <strtoul+0x120>
9d00878c:	00021023 	negu	v0,v0
9d008790:	24030022 	li	v1,34
9d008794:	3c02a000 	lui	v0,0xa000
9d008798:	ac430038 	sw	v1,56(v0)
9d00879c:	2402ffff 	li	v0,-1
9d0087a0:	10a0000d 	beqz	a1,9d0087d8 <strtoul+0x158>
9d0087a4:	008b380a 	movz	a3,a0,t3
9d0087a8:	03e00008 	jr	ra
9d0087ac:	aca70000 	sw	a3,0(a1)
9d0087b0:	80e30001 	lb	v1,1(a3)
9d0087b4:	0b4021de 	j	9d008778 <strtoul+0xf8>
9d0087b8:	240b0001 	li	t3,1
9d0087bc:	1120fff0 	beqz	t1,9d008780 <strtoul+0x100>
9d0087c0:	31080001 	andi	t0,t0,0x1
9d0087c4:	01c04821 	move	t1,t6
9d0087c8:	0328480a 	movz	t1,t9,t0
9d0087cc:	00691823 	subu	v1,v1,t1
9d0087d0:	0b4021ce 	j	9d008738 <strtoul+0xb8>
9d0087d4:	2463000a 	addiu	v1,v1,10
9d0087d8:	03e00008 	jr	ra
9d0087dc:	00000000 	nop
9d0087e0:	10c20017 	beq	a2,v0,9d008840 <strtoul+0x1c0>
9d0087e4:	240dffff 	li	t5,-1
9d0087e8:	00c07821 	move	t7,a2
9d0087ec:	01a6001b 	divu	zero,t5,a2
9d0087f0:	00c001f4 	teq	a2,zero,0x7
9d0087f4:	00006812 	mflo	t5
9d0087f8:	0b4021bf 	j	9d0086fc <strtoul+0x7c>
9d0087fc:	00005821 	move	t3,zero
9d008800:	1540ffe4 	bnez	t2,9d008794 <strtoul+0x114>
9d008804:	24030022 	li	v1,34
9d008808:	0b4021e8 	j	9d0087a0 <strtoul+0x120>
9d00880c:	00000000 	nop
9d008810:	54430006 	bnel	v0,v1,9d00882c <strtoul+0x1ac>
9d008814:	2403002d 	li	v1,45
9d008818:	3842002d 	xori	v0,v0,0x2d
9d00881c:	80e30001 	lb	v1,1(a3)
9d008820:	2c580001 	sltiu	t8,v0,1
9d008824:	0b4021b6 	j	9d0086d8 <strtoul+0x58>
9d008828:	24e70001 	addiu	a3,a3,1
9d00882c:	5043fffb 	beql	v0,v1,9d00881c <strtoul+0x19c>
9d008830:	3842002d 	xori	v0,v0,0x2d
9d008834:	80e30000 	lb	v1,0(a3)
9d008838:	0b4021b6 	j	9d0086d8 <strtoul+0x58>
9d00883c:	0000c021 	move	t8,zero
9d008840:	24020030 	li	v0,48
9d008844:	1062001c 	beq	v1,v0,9d0088b8 <strtoul+0x238>
9d008848:	3c0d0fff 	lui	t5,0xfff
9d00884c:	35adffff 	ori	t5,t5,0xffff
9d008850:	240f0010 	li	t7,16
9d008854:	0b4021bf 	j	9d0086fc <strtoul+0x7c>
9d008858:	00005821 	move	t3,zero
9d00885c:	80e30001 	lb	v1,1(a3)
9d008860:	2406ffdf 	li	a2,-33
9d008864:	00663024 	and	a2,v1,a2
9d008868:	24020058 	li	v0,88
9d00886c:	50c20008 	beql	a2,v0,9d008890 <strtoul+0x210>
9d008870:	80e30002 	lb	v1,2(a3)
9d008874:	24e70001 	addiu	a3,a3,1
9d008878:	3c0d1fff 	lui	t5,0x1fff
9d00887c:	35adffff 	ori	t5,t5,0xffff
9d008880:	240f0008 	li	t7,8
9d008884:	240b0001 	li	t3,1
9d008888:	0b4021bf 	j	9d0086fc <strtoul+0x7c>
9d00888c:	24060008 	li	a2,8
9d008890:	3c0d0fff 	lui	t5,0xfff
9d008894:	35adffff 	ori	t5,t5,0xffff
9d008898:	24e70002 	addiu	a3,a3,2
9d00889c:	240f0010 	li	t7,16
9d0088a0:	240b0001 	li	t3,1
9d0088a4:	0b4021bf 	j	9d0086fc <strtoul+0x7c>
9d0088a8:	24060010 	li	a2,16
9d0088ac:	00803821 	move	a3,a0
9d0088b0:	0b4021b6 	j	9d0086d8 <strtoul+0x58>
9d0088b4:	0000c021 	move	t8,zero
9d0088b8:	80e30001 	lb	v1,1(a3)
9d0088bc:	2408ffdf 	li	t0,-33
9d0088c0:	00684024 	and	t0,v1,t0
9d0088c4:	24020058 	li	v0,88
9d0088c8:	51020007 	beql	t0,v0,9d0088e8 <strtoul+0x268>
9d0088cc:	80e30002 	lb	v1,2(a3)
9d0088d0:	24e70001 	addiu	a3,a3,1
9d0088d4:	3c0d0fff 	lui	t5,0xfff
9d0088d8:	35adffff 	ori	t5,t5,0xffff
9d0088dc:	240f0010 	li	t7,16
9d0088e0:	0b4021bf 	j	9d0086fc <strtoul+0x7c>
9d0088e4:	240b0001 	li	t3,1
9d0088e8:	3c0d0fff 	lui	t5,0xfff
9d0088ec:	35adffff 	ori	t5,t5,0xffff
9d0088f0:	24e70002 	addiu	a3,a3,2
9d0088f4:	240f0010 	li	t7,16
9d0088f8:	0b4021bf 	j	9d0086fc <strtoul+0x7c>
9d0088fc:	240b0001 	li	t3,1

Disassembly of section .text.strtol:

9d008900 <strtol>:
9d008900:	80820000 	lb	v0,0(a0)
9d008904:	1040008a 	beqz	v0,9d008b30 <strtol+0x230>
9d008908:	00001821 	move	v1,zero
9d00890c:	3c089d01 	lui	t0,0x9d01
9d008910:	2508a0b5 	addiu	t0,t0,-24395
9d008914:	01021821 	addu	v1,t0,v0
9d008918:	80630000 	lb	v1,0(v1)
9d00891c:	30630088 	andi	v1,v1,0x88
9d008920:	14600007 	bnez	v1,9d008940 <strtol+0x40>
9d008924:	00803821 	move	a3,a0
9d008928:	0b4022a8 	j	9d008aa0 <strtol+0x1a0>
9d00892c:	2403002b 	li	v1,43
9d008930:	80630000 	lb	v1,0(v1)
9d008934:	30630088 	andi	v1,v1,0x88
9d008938:	50600059 	beqzl	v1,9d008aa0 <strtol+0x1a0>
9d00893c:	2403002b 	li	v1,43
9d008940:	24e70001 	addiu	a3,a3,1
9d008944:	80e20000 	lb	v0,0(a3)
9d008948:	1440fff9 	bnez	v0,9d008930 <strtol+0x30>
9d00894c:	01021821 	addu	v1,t0,v0
9d008950:	00001821 	move	v1,zero
9d008954:	0000c021 	move	t8,zero
9d008958:	14c00042 	bnez	a2,9d008a64 <strtol+0x164>
9d00895c:	24020010 	li	v0,16
9d008960:	24020030 	li	v0,48
9d008964:	10620060 	beq	v1,v0,9d008ae8 <strtol+0x1e8>
9d008968:	3c0d0ccc 	lui	t5,0xccc
9d00896c:	35adcccc 	ori	t5,t5,0xcccc
9d008970:	00005821 	move	t3,zero
9d008974:	2406000a 	li	a2,10
9d008978:	24e7ffff 	addiu	a3,a3,-1
9d00897c:	00005021 	move	t2,zero
9d008980:	00001021 	move	v0,zero
9d008984:	3c0c9d01 	lui	t4,0x9d01
9d008988:	258ca0b5 	addiu	t4,t4,-24395
9d00898c:	240f0061 	li	t7,97
9d008990:	240e0041 	li	t6,65
9d008994:	3c197fff 	lui	t9,0x7fff
9d008998:	3739ffff 	ori	t9,t9,0xffff
9d00899c:	10600019 	beqz	v1,9d008a04 <strtol+0x104>
9d0089a0:	24e70001 	addiu	a3,a3,1
9d0089a4:	006c4021 	addu	t0,v1,t4
9d0089a8:	91080000 	lbu	t0,0(t0)
9d0089ac:	31090004 	andi	t1,t0,0x4
9d0089b0:	11200023 	beqz	t1,9d008a40 <strtol+0x140>
9d0089b4:	31090003 	andi	t1,t0,0x3
9d0089b8:	2463ffd0 	addiu	v1,v1,-48
9d0089bc:	04600011 	bltz	v1,9d008a04 <strtol+0x104>
9d0089c0:	0066402a 	slt	t0,v1,a2
9d0089c4:	1100000f 	beqz	t0,9d008a04 <strtol+0x104>
9d0089c8:	01a2402a 	slt	t0,t5,v0
9d0089cc:	55000019 	bnezl	t0,9d008a34 <strtol+0x134>
9d0089d0:	240a0001 	li	t2,1
9d0089d4:	55400017 	bnezl	t2,9d008a34 <strtol+0x134>
9d0089d8:	240a0001 	li	t2,1
9d0089dc:	70461002 	mul	v0,v0,a2
9d0089e0:	03224023 	subu	t0,t9,v0
9d0089e4:	0103402a 	slt	t0,t0,v1
9d0089e8:	55000012 	bnezl	t0,9d008a34 <strtol+0x134>
9d0089ec:	240a0001 	li	t2,1
9d0089f0:	00431021 	addu	v0,v0,v1
9d0089f4:	80e30001 	lb	v1,1(a3)
9d0089f8:	240b0001 	li	t3,1
9d0089fc:	1460ffe9 	bnez	v1,9d0089a4 <strtol+0xa4>
9d008a00:	24e70001 	addiu	a3,a3,1
9d008a04:	1300001f 	beqz	t8,9d008a84 <strtol+0x184>
9d008a08:	00000000 	nop
9d008a0c:	11400005 	beqz	t2,9d008a24 <strtol+0x124>
9d008a10:	00021023 	negu	v0,v0
9d008a14:	24030022 	li	v1,34
9d008a18:	3c02a000 	lui	v0,0xa000
9d008a1c:	ac430038 	sw	v1,56(v0)
9d008a20:	3c028000 	lui	v0,0x8000
9d008a24:	10a0000d 	beqz	a1,9d008a5c <strtol+0x15c>
9d008a28:	008b380a 	movz	a3,a0,t3
9d008a2c:	03e00008 	jr	ra
9d008a30:	aca70000 	sw	a3,0(a1)
9d008a34:	80e30001 	lb	v1,1(a3)
9d008a38:	0b40227f 	j	9d0089fc <strtol+0xfc>
9d008a3c:	240b0001 	li	t3,1
9d008a40:	1120fff0 	beqz	t1,9d008a04 <strtol+0x104>
9d008a44:	31080001 	andi	t0,t0,0x1
9d008a48:	01c04821 	move	t1,t6
9d008a4c:	01e8480a 	movz	t1,t7,t0
9d008a50:	00691823 	subu	v1,v1,t1
9d008a54:	0b40226f 	j	9d0089bc <strtol+0xbc>
9d008a58:	2463000a 	addiu	v1,v1,10
9d008a5c:	03e00008 	jr	ra
9d008a60:	00000000 	nop
9d008a64:	10c2001a 	beq	a2,v0,9d008ad0 <strtol+0x1d0>
9d008a68:	3c0d7fff 	lui	t5,0x7fff
9d008a6c:	35adffff 	ori	t5,t5,0xffff
9d008a70:	01a6001a 	div	zero,t5,a2
9d008a74:	00c001f4 	teq	a2,zero,0x7
9d008a78:	00006812 	mflo	t5
9d008a7c:	0b40225e 	j	9d008978 <strtol+0x78>
9d008a80:	00005821 	move	t3,zero
9d008a84:	1140ffe7 	beqz	t2,9d008a24 <strtol+0x124>
9d008a88:	24030022 	li	v1,34
9d008a8c:	3c02a000 	lui	v0,0xa000
9d008a90:	ac430038 	sw	v1,56(v0)
9d008a94:	3c027fff 	lui	v0,0x7fff
9d008a98:	0b402289 	j	9d008a24 <strtol+0x124>
9d008a9c:	3442ffff 	ori	v0,v0,0xffff
9d008aa0:	54430006 	bnel	v0,v1,9d008abc <strtol+0x1bc>
9d008aa4:	2403002d 	li	v1,45
9d008aa8:	3842002d 	xori	v0,v0,0x2d
9d008aac:	80e30001 	lb	v1,1(a3)
9d008ab0:	2c580001 	sltiu	t8,v0,1
9d008ab4:	0b402256 	j	9d008958 <strtol+0x58>
9d008ab8:	24e70001 	addiu	a3,a3,1
9d008abc:	5043fffb 	beql	v0,v1,9d008aac <strtol+0x1ac>
9d008ac0:	3842002d 	xori	v0,v0,0x2d
9d008ac4:	80e30000 	lb	v1,0(a3)
9d008ac8:	0b402256 	j	9d008958 <strtol+0x58>
9d008acc:	0000c021 	move	t8,zero
9d008ad0:	24020030 	li	v0,48
9d008ad4:	10620019 	beq	v1,v0,9d008b3c <strtol+0x23c>
9d008ad8:	3c0d07ff 	lui	t5,0x7ff
9d008adc:	35adffff 	ori	t5,t5,0xffff
9d008ae0:	0b40225e 	j	9d008978 <strtol+0x78>
9d008ae4:	00005821 	move	t3,zero
9d008ae8:	80e30001 	lb	v1,1(a3)
9d008aec:	2406ffdf 	li	a2,-33
9d008af0:	00663024 	and	a2,v1,a2
9d008af4:	24020058 	li	v0,88
9d008af8:	50c20007 	beql	a2,v0,9d008b18 <strtol+0x218>
9d008afc:	80e30002 	lb	v1,2(a3)
9d008b00:	24e70001 	addiu	a3,a3,1
9d008b04:	3c0d0fff 	lui	t5,0xfff
9d008b08:	35adffff 	ori	t5,t5,0xffff
9d008b0c:	240b0001 	li	t3,1
9d008b10:	0b40225e 	j	9d008978 <strtol+0x78>
9d008b14:	24060008 	li	a2,8
9d008b18:	3c0d07ff 	lui	t5,0x7ff
9d008b1c:	35adffff 	ori	t5,t5,0xffff
9d008b20:	24e70002 	addiu	a3,a3,2
9d008b24:	240b0001 	li	t3,1
9d008b28:	0b40225e 	j	9d008978 <strtol+0x78>
9d008b2c:	24060010 	li	a2,16
9d008b30:	00803821 	move	a3,a0
9d008b34:	0b402256 	j	9d008958 <strtol+0x58>
9d008b38:	0000c021 	move	t8,zero
9d008b3c:	80e30001 	lb	v1,1(a3)
9d008b40:	2408ffdf 	li	t0,-33
9d008b44:	00684024 	and	t0,v1,t0
9d008b48:	24020058 	li	v0,88
9d008b4c:	51020006 	beql	t0,v0,9d008b68 <strtol+0x268>
9d008b50:	80e30002 	lb	v1,2(a3)
9d008b54:	24e70001 	addiu	a3,a3,1
9d008b58:	3c0d07ff 	lui	t5,0x7ff
9d008b5c:	35adffff 	ori	t5,t5,0xffff
9d008b60:	0b40225e 	j	9d008978 <strtol+0x78>
9d008b64:	240b0001 	li	t3,1
9d008b68:	3c0d07ff 	lui	t5,0x7ff
9d008b6c:	35adffff 	ori	t5,t5,0xffff
9d008b70:	24e70002 	addiu	a3,a3,2
9d008b74:	0b40225e 	j	9d008978 <strtol+0x78>
9d008b78:	240b0001 	li	t3,1

Disassembly of section .text.fpsubadd:

9d008b7c <__subsf3>:
9d008b7c:	3c018000 00a12826                       ...<&(..

9d008b84 <__addsf3>:
9d008b84:	00044dc2 312900ff 00055dc2 316b00ff     .M....)1.]....k1
9d008b94:	3c078000 00044200 01074025 00055200     ...<.B..%@...R..
9d008ba4:	01475025 252dffff 2da100fe 10200061     %PG...-%...-a. .
9d008bb4:	00000000                                ....

9d008bb8 <Blab1>:
9d008bb8:	256dffff 	addiu	t5,t3,-1
9d008bbc:	2da100fe 	sltiu	at,t5,254
9d008bc0:	10200077 	beqz	at,9d008da0 <BspecB>
9d008bc4:	00000000 	nop

9d008bc8 <Blab2>:
9d008bc8:	012b6023 	subu	t4,t1,t3
9d008bcc:	0580000d 	bltz	t4,9d008c04 <i1>
9d008bd0:	00000000 	nop
9d008bd4:	29810020 	slti	at,t4,32
9d008bd8:	14200003 	bnez	at,9d008be8 <i2>
9d008bdc:	00000000 	nop
9d008be0:	10000015 	b	9d008c38 <e1>
9d008be4:	240a0002 	li	t2,2

9d008be8 <i2>:
9d008be8:	000a3025 	or	a2,zero,t2
9d008bec:	018a5006 	srlv	t2,t2,t4
9d008bf0:	018a6804 	sllv	t5,t2,t4
9d008bf4:	11a60010 	beq	t5,a2,9d008c38 <e1>
9d008bf8:	00000000 	nop
9d008bfc:	1000000e 	b	9d008c38 <e1>
9d008c00:	354a0002 	ori	t2,t2,0x2

9d008c04 <i1>:
9d008c04:	000b4825 	or	t1,zero,t3
9d008c08:	000c6023 	negu	t4,t4
9d008c0c:	29810020 	slti	at,t4,32
9d008c10:	14200003 	bnez	at,9d008c20 <i4>
9d008c14:	00000000 	nop
9d008c18:	10000007 	b	9d008c38 <e1>
9d008c1c:	24080002 	li	t0,2

9d008c20 <i4>:
9d008c20:	00083025 	or	a2,zero,t0
9d008c24:	01884006 	srlv	t0,t0,t4
9d008c28:	01886804 	sllv	t5,t0,t4
9d008c2c:	11a60002 	beq	t5,a2,9d008c38 <e1>
9d008c30:	00000000 	nop
9d008c34:	35080002 	ori	t0,t0,0x2

9d008c38 <e1>:
9d008c38:	00876024 	and	t4,a0,a3
9d008c3c:	01856826 	xor	t5,t4,a1
9d008c40:	05a00010 	bltz	t5,9d008c84 <Bsub1>
9d008c44:	00000000 	nop
9d008c48:	010a4021 	addu	t0,t0,t2
9d008c4c:	010a682b 	sltu	t5,t0,t2
9d008c50:	11a00017 	beqz	t5,9d008cb0 <Bres>
9d008c54:	00000000 	nop
9d008c58:	310d0001 	andi	t5,t0,0x1
9d008c5c:	11a00002 	beqz	t5,9d008c68 <i7>
9d008c60:	00000000 	nop
9d008c64:	35080002 	ori	t0,t0,0x2

9d008c68 <i7>:
9d008c68:	00084042 	srl	t0,t0,0x1
9d008c6c:	25290001 	addiu	t1,t1,1
9d008c70:	240100ff 	li	at,255
9d008c74:	1521000e 	bne	t1,at,9d008cb0 <Bres>
9d008c78:	00000000 	nop
9d008c7c:	1000000c 	b	9d008cb0 <Bres>
9d008c80:	24080000 	li	t0,0

9d008c84 <Bsub1>:
9d008c84:	010a682b 	sltu	t5,t0,t2
9d008c88:	11a00004 	beqz	t5,9d008c9c <i9>
9d008c8c:	010a4023 	subu	t0,t0,t2
9d008c90:	00084023 	negu	t0,t0
9d008c94:	10000003 	b	9d008ca4 <e9>
9d008c98:	01876026 	xor	t4,t4,a3

9d008c9c <i9>:
9d008c9c:	11000050 	beqz	t0,9d008de0 <Bzer>
9d008ca0:	00000000 	nop

9d008ca4 <e9>:
9d008ca4:	71063020 	clz	a2,t0
9d008ca8:	01264823 	subu	t1,t1,a2
9d008cac:	00c84004 	sllv	t0,t0,a2

9d008cb0 <Bres>:
9d008cb0:	1920000e 	blez	t1,9d008cec <Bund>
9d008cb4:	00000000 	nop

9d008cb8 <Blab12>:
9d008cb8:	25080080 	addiu	t0,t0,128
9d008cbc:	2d0d0080 	sltiu	t5,t0,128
9d008cc0:	012d4821 	addu	t1,t1,t5
9d008cc4:	00086a02 	srl	t5,t0,0x8
9d008cc8:	31ad0001 	andi	t5,t5,0x1
9d008ccc:	010d4023 	subu	t0,t0,t5
9d008cd0:	00084040 	sll	t0,t0,0x1
9d008cd4:	00084242 	srl	t0,t0,0x9
9d008cd8:	00096dc0 	sll	t5,t1,0x17
9d008cdc:	010d4025 	or	t0,t0,t5
9d008ce0:	010c1025 	or	v0,t0,t4

9d008ce4 <B999>:
9d008ce4:	03e00008 	jr	ra
9d008ce8:	00000000 	nop

9d008cec <Bund>:
9d008cec:	24060001 	li	a2,1
9d008cf0:	00c93023 	subu	a2,a2,t1
9d008cf4:	2cc10020 	sltiu	at,a2,32
9d008cf8:	10200039 	beqz	at,9d008de0 <Bzer>
9d008cfc:	00000000 	nop
9d008d00:	3c018000 	lui	at,0x8000
9d008d04:	01014025 	or	t0,t0,at
9d008d08:	240d0020 	li	t5,32
9d008d0c:	01a66823 	subu	t5,t5,a2
9d008d10:	01a84804 	sllv	t1,t0,t5
9d008d14:	11200002 	beqz	t1,9d008d20 <i10>
9d008d18:	00c84006 	srlv	t0,t0,a2
9d008d1c:	35080001 	ori	t0,t0,0x1

9d008d20 <i10>:
9d008d20:	24090000 	li	t1,0
9d008d24:	250d0080 	addiu	t5,t0,128
9d008d28:	05a1ffe3 	bgez	t5,9d008cb8 <Blab12>
9d008d2c:	00000000 	nop
9d008d30:	1000ffe1 	b	9d008cb8 <Blab12>
9d008d34:	24090001 	li	t1,1

9d008d38 <BspecA>:
9d008d38:	1520000e 	bnez	t1,9d008d74 <i12>
9d008d3c:	00000000 	nop
9d008d40:	01084021 	addu	t0,t0,t0
9d008d44:	11000005 	beqz	t0,9d008d5c <i13>
9d008d48:	00000000 	nop
9d008d4c:	710c6020 	clz	t4,t0
9d008d50:	012c4823 	subu	t1,t1,t4
9d008d54:	1000ff98 	b	9d008bb8 <Blab1>
9d008d58:	01884004 	sllv	t0,t0,t4

9d008d5c <i13>:
9d008d5c:	240100ff 	li	at,255
9d008d60:	1161000f 	beq	t3,at,9d008da0 <BspecB>
9d008d64:	00000000 	nop
9d008d68:	3c018000 	lui	at,0x8000
9d008d6c:	14a10018 	bne	a1,at,9d008dd0 <BretB>
9d008d70:	00000000 	nop

9d008d74 <i12>:
9d008d74:	01086821 	addu	t5,t0,t0
9d008d78:	15a0001b 	bnez	t5,9d008de8 <Bnan>
9d008d7c:	00000000 	nop
9d008d80:	240100ff 	li	at,255
9d008d84:	15610014 	bne	t3,at,9d008dd8 <BretA>
9d008d88:	00000000 	nop
9d008d8c:	00856826 	xor	t5,a0,a1
9d008d90:	05a00015 	bltz	t5,9d008de8 <Bnan>
9d008d94:	00000000 	nop
9d008d98:	1000000d 	b	9d008dd0 <BretB>
9d008d9c:	00000000 	nop

9d008da0 <BspecB>:
9d008da0:	15600008 	bnez	t3,9d008dc4 <i15>
9d008da4:	00000000 	nop
9d008da8:	014a5021 	addu	t2,t2,t2
9d008dac:	1140000a 	beqz	t2,9d008dd8 <BretA>
9d008db0:	00000000 	nop
9d008db4:	714c6020 	clz	t4,t2
9d008db8:	016c5823 	subu	t3,t3,t4
9d008dbc:	1000ff82 	b	9d008bc8 <Blab2>
9d008dc0:	018a5004 	sllv	t2,t2,t4

9d008dc4 <i15>:
9d008dc4:	014a6821 	addu	t5,t2,t2
9d008dc8:	15a00007 	bnez	t5,9d008de8 <Bnan>
9d008dcc:	00000000 	nop

9d008dd0 <BretB>:
9d008dd0:	1000ffc4 	b	9d008ce4 <B999>
9d008dd4:	00051025 	or	v0,zero,a1

9d008dd8 <BretA>:
9d008dd8:	1000ffc2 	b	9d008ce4 <B999>
9d008ddc:	00041025 	or	v0,zero,a0

9d008de0 <Bzer>:
9d008de0:	1000ffc0 	b	9d008ce4 <B999>
9d008de4:	24020000 	li	v0,0

9d008de8 <Bnan>:
9d008de8:	1000ffbe 	b	9d008ce4 <B999>
9d008dec:	3c02ffc0 	lui	v0,0xffc0
9d008df0:	00000000 	nop

Disassembly of section .text.fp32div:

9d008df4 <__divsf3>:
9d008df4:	3c0b8000 000445c2 310800ff 000555c2     ...<.E.....1.U..
9d008e04:	314a00ff 00043a00 00eb3825 00054a00     ..J1.:..%8...J..
9d008e14:	012b4825 00857026 016e5824 250effff     %H+.&p..$Xn....%
9d008e24:	2dc100fe 1020003f 00000000              ...-?. .....

9d008e30 <Dlab1>:
9d008e30:	254effff 	addiu	t6,t2,-1
9d008e34:	2dc100fe 	sltiu	at,t6,254
9d008e38:	10200053 	beqz	at,9d008f88 <DspecB>
9d008e3c:	00000000 	nop

9d008e40 <Dlab2>:
9d008e40:	00e9082b 	sltu	at,a3,t1
9d008e44:	14200003 	bnez	at,9d008e54 <i27>
9d008e48:	00000000 	nop
9d008e4c:	00073842 	srl	a3,a3,0x1
9d008e50:	25080001 	addiu	t0,t0,1

9d008e54 <i27>:
9d008e54:	00096382 	srl	t4,t1,0xe
9d008e58:	018001f4 	teq	t4,zero,0x7
9d008e5c:	00ec001b 	divu	zero,a3,t4
9d008e60:	00002012 	mflo	a0
9d008e64:	00003010 	mfhi	a2
9d008e68:	312d3fff 	andi	t5,t1,0x3fff
9d008e6c:	01a40019 	multu	t5,a0
9d008e70:	00002812 	mflo	a1
9d008e74:	00063380 	sll	a2,a2,0xe
9d008e78:	00c5702b 	sltu	t6,a2,a1
9d008e7c:	11c00004 	beqz	t6,9d008e90 <i28>
9d008e80:	00c53023 	subu	a2,a2,a1
9d008e84:	2484ffff 	addiu	a0,a0,-1
9d008e88:	00c93021 	addu	a2,a2,t1
9d008e8c:	00c9702b 	sltu	t6,a2,t1

9d008e90 <i28>:
9d008e90:	018001f4 	teq	t4,zero,0x7
9d008e94:	00cc001b 	divu	zero,a2,t4
9d008e98:	00003812 	mflo	a3
9d008e9c:	00003010 	mfhi	a2
9d008ea0:	01a70019 	multu	t5,a3
9d008ea4:	00002812 	mflo	a1
9d008ea8:	00063380 	sll	a2,a2,0xe
9d008eac:	00c5702b 	sltu	t6,a2,a1
9d008eb0:	11c00004 	beqz	t6,9d008ec4 <i29>
9d008eb4:	00c53023 	subu	a2,a2,a1
9d008eb8:	24e7ffff 	addiu	a3,a3,-1
9d008ebc:	00c93021 	addu	a2,a2,t1
9d008ec0:	00c9702b 	sltu	t6,a2,t1

9d008ec4 <i29>:
9d008ec4:	00047380 	sll	t6,a0,0xe
9d008ec8:	00ee3821 	addu	a3,a3,t6
9d008ecc:	10c00002 	beqz	a2,9d008ed8 <i30>
9d008ed0:	00073900 	sll	a3,a3,0x4
9d008ed4:	34e70001 	ori	a3,a3,0x1

9d008ed8 <i30>:
9d008ed8:	240e007e 	li	t6,126
9d008edc:	01ca7023 	subu	t6,t6,t2
9d008ee0:	010e4021 	addu	t0,t0,t6
9d008ee4:	250effff 	addiu	t6,t0,-1
9d008ee8:	2dc100fe 	sltiu	at,t6,254
9d008eec:	10200034 	beqz	at,9d008fc0 <Doveund>
9d008ef0:	00000000 	nop

9d008ef4 <Dlab8>:
9d008ef4:	24e70080 	addiu	a3,a3,128
9d008ef8:	2cee0080 	sltiu	t6,a3,128
9d008efc:	010e4021 	addu	t0,t0,t6
9d008f00:	00077202 	srl	t6,a3,0x8
9d008f04:	31ce0001 	andi	t6,t6,0x1
9d008f08:	00ee3823 	subu	a3,a3,t6
9d008f0c:	00073840 	sll	a3,a3,0x1
9d008f10:	00073a42 	srl	a3,a3,0x9
9d008f14:	000875c0 	sll	t6,t0,0x17
9d008f18:	00ee3825 	or	a3,a3,t6
9d008f1c:	00eb1025 	or	v0,a3,t3

9d008f20 <D999>:
9d008f20:	03e00008 	jr	ra
9d008f24:	00000000 	nop

9d008f28 <DspecA>:
9d008f28:	15000008 	bnez	t0,9d008f4c <i31>
9d008f2c:	00000000 	nop
9d008f30:	00e73821 	addu	a3,a3,a3
9d008f34:	10e00005 	beqz	a3,9d008f4c <i31>
9d008f38:	00000000 	nop
9d008f3c:	70ec6020 	clz	t4,a3
9d008f40:	010c4023 	subu	t0,t0,t4
9d008f44:	1000ffba 	b	9d008e30 <Dlab1>
9d008f48:	01873804 	sllv	a3,a3,t4

9d008f4c <i31>:
9d008f4c:	15480004 	bne	t2,t0,9d008f60 <i33>
9d008f50:	00000000 	nop
9d008f54:	01297021 	addu	t6,t1,t1
9d008f58:	11c0002f 	beqz	t6,9d009018 <Dnan>
9d008f5c:	00000000 	nop

9d008f60 <i33>:
9d008f60:	240100ff 	li	at,255
9d008f64:	11410008 	beq	t2,at,9d008f88 <DspecB>
9d008f68:	00000000 	nop
9d008f6c:	11000012 	beqz	t0,9d008fb8 <Dzer>
9d008f70:	00000000 	nop
9d008f74:	00e77021 	addu	t6,a3,a3
9d008f78:	15c00027 	bnez	t6,9d009018 <Dnan>
9d008f7c:	00000000 	nop
9d008f80:	10000022 	b	9d00900c <Dinf>
9d008f84:	00000000 	nop

9d008f88 <DspecB>:
9d008f88:	15400008 	bnez	t2,9d008fac <i34>
9d008f8c:	00000000 	nop
9d008f90:	01294821 	addu	t1,t1,t1
9d008f94:	1120001d 	beqz	t1,9d00900c <Dinf>
9d008f98:	00000000 	nop
9d008f9c:	712c6020 	clz	t4,t1
9d008fa0:	014c5023 	subu	t2,t2,t4
9d008fa4:	1000ffa6 	b	9d008e40 <Dlab2>
9d008fa8:	01894804 	sllv	t1,t1,t4

9d008fac <i34>:
9d008fac:	01297021 	addu	t6,t1,t1
9d008fb0:	15c00019 	bnez	t6,9d009018 <Dnan>
9d008fb4:	00000000 	nop

9d008fb8 <Dzer>:
9d008fb8:	1000ffd9 	b	9d008f20 <D999>
9d008fbc:	000b1025 	or	v0,zero,t3

9d008fc0 <Doveund>:
9d008fc0:	1d000012 	bgtz	t0,9d00900c <Dinf>
9d008fc4:	00000000 	nop
9d008fc8:	240c0001 	li	t4,1
9d008fcc:	01886023 	subu	t4,t4,t0
9d008fd0:	2d810020 	sltiu	at,t4,32
9d008fd4:	1020fff8 	beqz	at,9d008fb8 <Dzer>
9d008fd8:	00000000 	nop
9d008fdc:	240e0020 	li	t6,32
9d008fe0:	01cc7023 	subu	t6,t6,t4
9d008fe4:	01c74004 	sllv	t0,a3,t6
9d008fe8:	11000002 	beqz	t0,9d008ff4 <i37>
9d008fec:	01873806 	srlv	a3,a3,t4
9d008ff0:	34e70002 	ori	a3,a3,0x2

9d008ff4 <i37>:
9d008ff4:	24080000 	li	t0,0
9d008ff8:	24ee0080 	addiu	t6,a3,128
9d008ffc:	05c1ffbd 	bgez	t6,9d008ef4 <Dlab8>
9d009000:	00000000 	nop
9d009004:	1000ffbb 	b	9d008ef4 <Dlab8>
9d009008:	24080001 	li	t0,1

9d00900c <Dinf>:
9d00900c:	3c017f80 	lui	at,0x7f80
9d009010:	1000ffc3 	b	9d008f20 <D999>
9d009014:	01611025 	or	v0,t3,at

9d009018 <Dnan>:
9d009018:	1000ffc1 	b	9d008f20 <D999>
9d00901c:	3c02ffc0 	lui	v0,0xffc0
9d009020:	00000000 	nop

Disassembly of section .text:

9d009024 <setMODE>:
         
static volatile mode MODE;            	// Operating mode
static volatile control_data_t DATA;    // Struct containing data arrays
static volatile N;                      // Number of samples to store

void setMODE(mode newMODE) {  // Set mode
9d009024:	27bdffe8 	addiu	sp,sp,-24
9d009028:	afbf0014 	sw	ra,20(sp)
    MODE = newMODE;     // Update global MODE
9d00902c:	af848044 	sw	a0,-32700(gp)
	if (MODE == IDLE)
9d009030:	8f828044 	lw	v0,-32700(gp)
9d009034:	14400003 	bnez	v0,9d009044 <setMODE+0x20>
9d009038:	00000000 	nop
	{
		motor_off();
9d00903c:	0f401d09 	jal	9d007424 <motor_off>
9d009040:	00000000 	nop
	}
	if (MODE == HOLD)
9d009044:	8f838044 	lw	v1,-32700(gp)
9d009048:	24020001 	li	v0,1
9d00904c:	14620004 	bne	v1,v0,9d009060 <setMODE+0x3c>
9d009050:	8fbf0014 	lw	ra,20(sp)
	{
		motor_on();
9d009054:	0f401c93 	jal	9d00724c <motor_on>
9d009058:	00000000 	nop
	}
}
9d00905c:	8fbf0014 	lw	ra,20(sp)
9d009060:	03e00008 	jr	ra
9d009064:	27bd0018 	addiu	sp,sp,24

9d009068 <getMODE>:

mode getMODE() {  // Return current mode
    return MODE;    // Return MODE
9d009068:	8f828044 	lw	v0,-32700(gp)
}
9d00906c:	03e00008 	jr	ra
9d009070:	00000000 	nop

9d009074 <setN_client>:

void setN_client(void)          // Recieve number of values to store in data arrays from client
{                   
9d009074:	27bdffd8 	addiu	sp,sp,-40
9d009078:	afbf0024 	sw	ra,36(sp)
    char buffer[10];            // Buffer holding number of samples
    NU32_ReadUART3(buffer,10);  // Read number of samples from client
9d00907c:	27a40010 	addiu	a0,sp,16
9d009080:	0f402553 	jal	9d00954c <NU32_ReadUART3>
9d009084:	2405000a 	li	a1,10
    sscanf(buffer,"%d",&N);     // Update global N
9d009088:	27a40010 	addiu	a0,sp,16
9d00908c:	3c059d01 	lui	a1,0x9d01
9d009090:	24a5b9fc 	addiu	a1,a1,-17924
9d009094:	0f402c5a 	jal	9d00b168 <_sscanf_cdfFnopuxX>
9d009098:	27868040 	addiu	a2,gp,-32704
}
9d00909c:	8fbf0024 	lw	ra,36(sp)
9d0090a0:	03e00008 	jr	ra
9d0090a4:	27bd0028 	addiu	sp,sp,40

9d0090a8 <setN_manual>:


void setN_manual(int n)         // Manually set number of values to store in data arrays
{
    N = n;                      // Store input into global N
9d0090a8:	af848040 	sw	a0,-32704(gp)
9d0090ac:	03e00008 	jr	ra
9d0090b0:	00000000 	nop

9d0090b4 <getN>:
}

int getN(void){ // Return number of samples to be stored
    return N;                   // Return number of samples to be stored
9d0090b4:	8f828040 	lw	v0,-32704(gp)
}
9d0090b8:	03e00008 	jr	ra
9d0090bc:	00000000 	nop

9d0090c0 <write_reference_position>:

void write_reference_position(float position, int index)     // Write reference position to data array
{
    if (index < N)
9d0090c0:	8f828040 	lw	v0,-32704(gp)
9d0090c4:	00a2102a 	slt	v0,a1,v0
9d0090c8:	10400005 	beqz	v0,9d0090e0 <write_reference_position+0x20>
9d0090cc:	00052880 	sll	a1,a1,0x2
    {
        DATA.position_reference[index] = position;
9d0090d0:	3c02a000 	lui	v0,0xa000
9d0090d4:	2442003c 	addiu	v0,v0,60
9d0090d8:	00a22821 	addu	a1,a1,v0
9d0090dc:	aca40000 	sw	a0,0(a1)
9d0090e0:	03e00008 	jr	ra
9d0090e4:	00000000 	nop

9d0090e8 <write_actual_position>:
    }
}

void write_actual_position(float position, int index)        // Write actual position to data array
{
    if (index < N)
9d0090e8:	8f828040 	lw	v0,-32704(gp)
9d0090ec:	00a2102a 	slt	v0,a1,v0
9d0090f0:	10400006 	beqz	v0,9d00910c <write_actual_position+0x24>
9d0090f4:	24a507e0 	addiu	a1,a1,2016
    {
        DATA.position_actual[index] = position;
9d0090f8:	00052880 	sll	a1,a1,0x2
9d0090fc:	3c02a000 	lui	v0,0xa000
9d009100:	2442003c 	addiu	v0,v0,60
9d009104:	00a22821 	addu	a1,a1,v0
9d009108:	aca40000 	sw	a0,0(a1)
9d00910c:	03e00008 	jr	ra
9d009110:	00000000 	nop

9d009114 <write_current_control>:
    }
}

void write_current_control(float current, int index)
{
	if (index < N)
9d009114:	8f828040 	lw	v0,-32704(gp)
9d009118:	00a2102a 	slt	v0,a1,v0
9d00911c:	10400006 	beqz	v0,9d009138 <write_current_control+0x24>
9d009120:	24a50fc0 	addiu	a1,a1,4032
	{
		DATA.current_control[index] = current;
9d009124:	00052880 	sll	a1,a1,0x2
9d009128:	3c02a000 	lui	v0,0xa000
9d00912c:	2442003c 	addiu	v0,v0,60
9d009130:	00a22821 	addu	a1,a1,v0
9d009134:	aca40000 	sw	a0,0(a1)
9d009138:	03e00008 	jr	ra
9d00913c:	00000000 	nop

9d009140 <get_reference_position>:
	}
}

float get_reference_position(int index)           // Return reference position from given index
{
	return DATA.position_reference[index];
9d009140:	00042080 	sll	a0,a0,0x2
9d009144:	3c02a000 	lui	v0,0xa000
9d009148:	2442003c 	addiu	v0,v0,60
9d00914c:	00822021 	addu	a0,a0,v0
9d009150:	8c820000 	lw	v0,0(a0)
}
9d009154:	03e00008 	jr	ra
9d009158:	00000000 	nop

9d00915c <send_position_data>:

void send_position_data(void)   // Send position data to client for plotting
{
9d00915c:	27bdff90 	addiu	sp,sp,-112
9d009160:	afbf006c 	sw	ra,108(sp)
9d009164:	afb50068 	sw	s5,104(sp)
9d009168:	afb40064 	sw	s4,100(sp)
9d00916c:	afb30060 	sw	s3,96(sp)
9d009170:	afb2005c 	sw	s2,92(sp)
9d009174:	afb10058 	sw	s1,88(sp)
9d009178:	afb00054 	sw	s0,84(sp)
    int i; char buffer[50];
    
    sprintf(buffer,"%d\r\n",N); // Store number of samples in buffer
9d00917c:	8f868040 	lw	a2,-32704(gp)
9d009180:	27a40018 	addiu	a0,sp,24
9d009184:	3c059d01 	lui	a1,0x9d01
9d009188:	0f402c77 	jal	9d00b1dc <_sprintf_cdfFnopuxX>
9d00918c:	24a5ba00 	addiu	a1,a1,-17920
    NU32_WriteUART3(buffer);    // Send number of samples to client
9d009190:	0f402570 	jal	9d0095c0 <NU32_WriteUART3>
9d009194:	27a40018 	addiu	a0,sp,24
    
    for (i = 0; i < N; i++) {      
9d009198:	8f828040 	lw	v0,-32704(gp)
9d00919c:	18400021 	blez	v0,9d009224 <send_position_data+0xc8>
9d0091a0:	00008021 	move	s0,zero
        sprintf(buffer, "%f %f %f\r\n",DATA.position_reference[i],DATA.position_actual[i],DATA.current_control[i]*100);   // Store data in buffer
9d0091a4:	3c11a000 	lui	s1,0xa000
9d0091a8:	2631003c 	addiu	s1,s1,60
9d0091ac:	3c029d01 	lui	v0,0x9d01
9d0091b0:	8c55ba14 	lw	s5,-17900(v0)
9d0091b4:	3c149d01 	lui	s4,0x9d01
9d0091b8:	2694ba08 	addiu	s4,s4,-17912
9d0091bc:	00101080 	sll	v0,s0,0x2
9d0091c0:	00511021 	addu	v0,v0,s1
9d0091c4:	8c530000 	lw	s3,0(v0)
9d0091c8:	260207e0 	addiu	v0,s0,2016
9d0091cc:	00021080 	sll	v0,v0,0x2
9d0091d0:	00511021 	addu	v0,v0,s1
9d0091d4:	8c520000 	lw	s2,0(v0)
9d0091d8:	26020fc0 	addiu	v0,s0,4032
9d0091dc:	00021080 	sll	v0,v0,0x2
9d0091e0:	00511021 	addu	v0,v0,s1
9d0091e4:	8c440000 	lw	a0,0(v0)
9d0091e8:	0f40257f 	jal	9d0095fc <__mulsf3>
9d0091ec:	02a02821 	move	a1,s5
9d0091f0:	afa20010 	sw	v0,16(sp)
9d0091f4:	27a40018 	addiu	a0,sp,24
9d0091f8:	02802821 	move	a1,s4
9d0091fc:	02603021 	move	a2,s3
9d009200:	0f402c77 	jal	9d00b1dc <_sprintf_cdfFnopuxX>
9d009204:	02403821 	move	a3,s2
        NU32_WriteUART3(buffer);                                                           // Write data to client
9d009208:	0f402570 	jal	9d0095c0 <NU32_WriteUART3>
9d00920c:	27a40018 	addiu	a0,sp,24
    int i; char buffer[50];
    
    sprintf(buffer,"%d\r\n",N); // Store number of samples in buffer
    NU32_WriteUART3(buffer);    // Send number of samples to client
    
    for (i = 0; i < N; i++) {      
9d009210:	26100001 	addiu	s0,s0,1
9d009214:	8f828040 	lw	v0,-32704(gp)
9d009218:	0202102a 	slt	v0,s0,v0
9d00921c:	1440ffe8 	bnez	v0,9d0091c0 <send_position_data+0x64>
9d009220:	00101080 	sll	v0,s0,0x2
        sprintf(buffer, "%f %f %f\r\n",DATA.position_reference[i],DATA.position_actual[i],DATA.current_control[i]*100);   // Store data in buffer
        NU32_WriteUART3(buffer);                                                           // Write data to client
    }
}
9d009224:	8fbf006c 	lw	ra,108(sp)
9d009228:	8fb50068 	lw	s5,104(sp)
9d00922c:	8fb40064 	lw	s4,100(sp)
9d009230:	8fb30060 	lw	s3,96(sp)
9d009234:	8fb2005c 	lw	s2,92(sp)
9d009238:	8fb10058 	lw	s1,88(sp)
9d00923c:	8fb00054 	lw	s0,84(sp)
9d009240:	03e00008 	jr	ra
9d009244:	27bd0070 	addiu	sp,sp,112

9d009248 <dac_init>:
  // SPI4 pins are: SDO4(F5), SCK4(B14), SS4 (B15)
  
  // set up chip select pin as an output
  // clear CS to low when a command is beginning
  // set CS to high when a command is ending
  TRISBbits.TRISB15 = 0;
9d009248:	3c02bf88 	lui	v0,0xbf88
9d00924c:	94436040 	lhu	v1,24640(v0)
9d009250:	7c037bc4 	ins	v1,zero,0xf,0x1
9d009254:	a4436040 	sh	v1,24640(v0)
  CS = 1;
9d009258:	3c02bf88 	lui	v0,0xbf88
9d00925c:	94446060 	lhu	a0,24672(v0)
9d009260:	24030001 	li	v1,1
9d009264:	7c647bc4 	ins	a0,v1,0xf,0x1
9d009268:	a4446060 	sh	a0,24672(v0)
  
  // setup SPI4
  SPI4CON = 0;              // turn off the SPI module and reset it
9d00926c:	3c02bf80 	lui	v0,0xbf80
9d009270:	ac405c00 	sw	zero,23552(v0)
  SPI4BUF;                  // clear the rx buffer by reading from it
9d009274:	3c02bf80 	lui	v0,0xbf80
9d009278:	8c425c20 	lw	v0,23584(v0)
  SPI4BRG = 0x3;            // baud rate to 20 MHz [SPI4BRG = (80000000/(2*desired))-1]
9d00927c:	24040003 	li	a0,3
9d009280:	3c02bf80 	lui	v0,0xbf80
9d009284:	ac445c30 	sw	a0,23600(v0)
  SPI4STATbits.SPIROV = 0;  // clear the overflow bit
9d009288:	3c02bf80 	lui	v0,0xbf80
9d00928c:	8c445c10 	lw	a0,23568(v0)
9d009290:	7c043184 	ins	a0,zero,0x6,0x1
9d009294:	ac445c10 	sw	a0,23568(v0)
  SPI4CONbits.CKE = 1;      // data changes when clock goes from hi to lo (since CKP is 0)
9d009298:	3c02bf80 	lui	v0,0xbf80
9d00929c:	8c445c00 	lw	a0,23552(v0)
9d0092a0:	7c644204 	ins	a0,v1,0x8,0x1
9d0092a4:	ac445c00 	sw	a0,23552(v0)
  SPI4CONbits.MSTEN = 1;    // master operation
9d0092a8:	8c445c00 	lw	a0,23552(v0)
9d0092ac:	7c642944 	ins	a0,v1,0x5,0x1
9d0092b0:	ac445c00 	sw	a0,23552(v0)
  SPI4CONbits.ON = 1;       // turn on SPI4
9d0092b4:	8c445c00 	lw	a0,23552(v0)
9d0092b8:	7c647bc4 	ins	a0,v1,0xf,0x1
9d0092bc:	ac445c00 	sw	a0,23552(v0)
9d0092c0:	03e00008 	jr	ra
9d0092c4:	00000000 	nop

9d0092c8 <SPI4_IO>:
}

// send a byte via SPI and return the response
unsigned char SPI4_IO(unsigned char write)
{
9d0092c8:	308400ff 	andi	a0,a0,0xff
    SPI4BUF = write;
9d0092cc:	3c02bf80 	lui	v0,0xbf80
9d0092d0:	ac445c20 	sw	a0,23584(v0)
    while(!SPI4STATbits.SPIRBF) { // wait to receive the byte
9d0092d4:	3c03bf80 	lui	v1,0xbf80
9d0092d8:	8c625c10 	lw	v0,23568(v1)
9d0092dc:	30420001 	andi	v0,v0,0x1
9d0092e0:	1040fffd 	beqz	v0,9d0092d8 <SPI4_IO+0x10>
9d0092e4:	3c02bf80 	lui	v0,0xbf80
        ;
    }
    return SPI4BUF;
9d0092e8:	8c425c20 	lw	v0,23584(v0)
}
9d0092ec:	03e00008 	jr	ra
9d0092f0:	304200ff 	andi	v0,v0,0xff

9d0092f4 <v_convert>:

// convert voltage value to 8-bit output level (0-255)
unsigned char v_convert(float voltage)
{
9d0092f4:	27bdffe8 	addiu	sp,sp,-24
9d0092f8:	afbf0014 	sw	ra,20(sp)
9d0092fc:	afb00010 	sw	s0,16(sp)
9d009300:	00808021 	move	s0,a0
	// adjust large values
	if (voltage > 10)
9d009304:	3c029d01 	lui	v0,0x9d01
9d009308:	8c44bb94 	lw	a0,-17516(v0)
9d00930c:	0f402adf 	jal	9d00ab7c <__eqsf2>
9d009310:	02002821 	move	a1,s0
9d009314:	04410002 	bgez	v0,9d009320 <v_convert+0x2c>
9d009318:	3c029d01 	lui	v0,0x9d01
	{
		voltage = 10;
9d00931c:	8c50bb94 	lw	s0,-17516(v0)
	}
	
	return voltage*25.5;
9d009320:	02002021 	move	a0,s0
9d009324:	3c029d01 	lui	v0,0x9d01
9d009328:	0f40257f 	jal	9d0095fc <__mulsf3>
9d00932c:	8c45bb98 	lw	a1,-17512(v0)
9d009330:	0f402bff 	jal	9d00affc <__fixunssfsi>
9d009334:	00402021 	move	a0,v0
}
9d009338:	304200ff 	andi	v0,v0,0xff
9d00933c:	8fbf0014 	lw	ra,20(sp)
9d009340:	8fb00010 	lw	s0,16(sp)
9d009344:	03e00008 	jr	ra
9d009348:	27bd0018 	addiu	sp,sp,24

9d00934c <setVoltage>:
// set voltage for MCP4902 DAC
// positive voltages are output by VoutA
// negative voltages are output by VoutB
// voltages are amplified (G = +/-2) by LM348N Op-amp
void setVoltage(float voltage)
{    
9d00934c:	27bdffe0 	addiu	sp,sp,-32
9d009350:	afbf001c 	sw	ra,28(sp)
9d009354:	afb20018 	sw	s2,24(sp)
9d009358:	afb10014 	sw	s1,20(sp)
9d00935c:	afb00010 	sw	s0,16(sp)
9d009360:	00808021 	move	s0,a0
	int channel;
	static int prev_chan;
	unsigned char output;
	
	// Choose output channel
	if (voltage < 0) {
9d009364:	0f402adf 	jal	9d00ab7c <__eqsf2>
9d009368:	00002821 	move	a1,zero
9d00936c:	04430004 	bgezl	v0,9d009380 <setVoltage+0x34>
9d009370:	00008821 	move	s1,zero
		channel = 1;
		voltage = voltage * -1; // make positive
9d009374:	3c028000 	lui	v0,0x8000
9d009378:	00508026 	xor	s0,v0,s0
9d00937c:	24110001 	li	s1,1
	} else if (voltage > 0) {
		channel = 0;
	}
	
	output = v_convert(voltage); //convert voltage to 8-bit output level
9d009380:	0f4024bd 	jal	9d0092f4 <v_convert>
9d009384:	02002021 	move	a0,s0
9d009388:	00409021 	move	s2,v0
	
    CS = 0; // start writing
9d00938c:	3c10bf88 	lui	s0,0xbf88
9d009390:	96026060 	lhu	v0,24672(s0)
9d009394:	7c027bc4 	ins	v0,zero,0xf,0x1
9d009398:	a6026060 	sh	v0,24672(s0)
    
    // write data
    // (0-3) config bits 
    // (4-11) 8-bit output level
    // (12-15) XXXX
	SPI4_IO((channel << 7 | 0b01110000)|(output >> 4));
9d00939c:	00122102 	srl	a0,s2,0x4
9d0093a0:	34840070 	ori	a0,a0,0x70
9d0093a4:	001111c0 	sll	v0,s1,0x7
9d0093a8:	00822025 	or	a0,a0,v0
9d0093ac:	0f4024b2 	jal	9d0092c8 <SPI4_IO>
9d0093b0:	308400ff 	andi	a0,a0,0xff
    SPI4_IO(output << 4);
9d0093b4:	00122100 	sll	a0,s2,0x4
9d0093b8:	0f4024b2 	jal	9d0092c8 <SPI4_IO>
9d0093bc:	308400f0 	andi	a0,a0,0xf0
   
    CS = 1; // finish writing (latch data)
9d0093c0:	96026060 	lhu	v0,24672(s0)
9d0093c4:	24030001 	li	v1,1
9d0093c8:	7c627bc4 	ins	v0,v1,0xf,0x1
9d0093cc:	a6026060 	sh	v0,24672(s0)

	// Check for sign change and zero
	if (!(channel == prev_chan) || output == 0)
9d0093d0:	8f828020 	lw	v0,-32736(gp)
9d0093d4:	16220003 	bne	s1,v0,9d0093e4 <setVoltage+0x98>
9d0093d8:	3c02bf88 	lui	v0,0xbf88
9d0093dc:	56400010 	bnezl	s2,9d009420 <setVoltage+0xd4>
9d0093e0:	af918020 	sw	s1,-32736(gp)
	{
		CS = 0;
9d0093e4:	94436060 	lhu	v1,24672(v0)
9d0093e8:	7c037bc4 	ins	v1,zero,0xf,0x1
9d0093ec:	a4436060 	sh	v1,24672(v0)
		SPI4_IO((!channel) << 7 | 0b01110000);
9d0093f0:	240200f0 	li	v0,240
9d0093f4:	24040070 	li	a0,112
9d0093f8:	0f4024b2 	jal	9d0092c8 <SPI4_IO>
9d0093fc:	0051200a 	movz	a0,v0,s1
		SPI4_IO(0b00000000);
9d009400:	0f4024b2 	jal	9d0092c8 <SPI4_IO>
9d009404:	00002021 	move	a0,zero
		CS = 1;
9d009408:	3c02bf88 	lui	v0,0xbf88
9d00940c:	94436060 	lhu	v1,24672(v0)
9d009410:	24040001 	li	a0,1
9d009414:	7c837bc4 	ins	v1,a0,0xf,0x1
9d009418:	a4436060 	sh	v1,24672(v0)
	}
	
	prev_chan = channel;
9d00941c:	af918020 	sw	s1,-32736(gp)
9d009420:	8fbf001c 	lw	ra,28(sp)
9d009424:	8fb20018 	lw	s2,24(sp)
9d009428:	8fb10014 	lw	s1,20(sp)
9d00942c:	8fb00010 	lw	s0,16(sp)
9d009430:	03e00008 	jr	ra
9d009434:	27bd0020 	addiu	sp,sp,32

9d009438 <NU32_Startup>:

// Perform startup routines:
//  Make NU32_LED1 and NU32_LED2 pins outputs (NU32_USER is by default an input)
//  Initialize the serial port - UART3 (no interrupt) 
//  Enable interrupts
void NU32_Startup() {
9d009438:	27bdfff8 	addiu	sp,sp,-8
9d00943c:	afbf0004 	sw	ra,4(sp)
  // disable interrupts
  __builtin_disable_interrupts();
9d009440:	41626000 	di	v0
9d009444:	000000c0 	ehb
  // see Chapter 2 "CPU for Devices with M4K Core" of the PIC32 reference manual
  // most of the other bits have prescribed values
  // microchip does not provide a _CP0_SET_CONFIG macro, so we directly use
  // the compiler built-in command _mtc0
  // to disable cache, use 0xa4210582 
  __builtin_mtc0(_CP0_CONFIG, _CP0_CONFIG_SELECT, 0xa4210583); 
9d009448:	3c02a421 	lui	v0,0xa421
9d00944c:	24420583 	addiu	v0,v0,1411
9d009450:	40828000 	mtc0	v0,c0_config
9d009454:	000000c0 	ehb
  
  // set the prefectch cache wait state to 2, as per the
  // electrical characteristics data sheet
  CHECONbits.PFMWS = 0x2;   
9d009458:	3c02bf88 	lui	v0,0xbf88
9d00945c:	8c434000 	lw	v1,16384(v0)
9d009460:	24050002 	li	a1,2
9d009464:	7ca31004 	ins	v1,a1,0x0,0x3
9d009468:	ac434000 	sw	v1,16384(v0)

  //enable prefetch for cacheable and noncacheable memory
  CHECONbits.PREFEN = 0x3; 
9d00946c:	8c434000 	lw	v1,16384(v0)
9d009470:	24040003 	li	a0,3
9d009474:	7c832904 	ins	v1,a0,0x4,0x2
9d009478:	ac434000 	sw	v1,16384(v0)

  // 0 data RAM access wait states
  BMXCONbits.BMXWSDRM = 0x0;
9d00947c:	3c02bf88 	lui	v0,0xbf88
9d009480:	8c432000 	lw	v1,8192(v0)
9d009484:	7c033184 	ins	v1,zero,0x6,0x1
9d009488:	ac432000 	sw	v1,8192(v0)
  
  // enable multi vector interrupts
  INTCONbits.MVEC = 0x1;
9d00948c:	3c02bf88 	lui	v0,0xbf88
9d009490:	8c461000 	lw	a2,4096(v0)
9d009494:	24030001 	li	v1,1
9d009498:	7c666304 	ins	a2,v1,0xc,0x1
9d00949c:	ac461000 	sw	a2,4096(v0)

  // disable JTAG to get B10, B11, B12 and B13 back
  DDPCONbits.JTAGEN = 0;
9d0094a0:	3c02bf81 	lui	v0,0xbf81
9d0094a4:	9046f200 	lbu	a2,-3584(v0)
9d0094a8:	7c0618c4 	ins	a2,zero,0x3,0x1
9d0094ac:	a046f200 	sb	a2,-3584(v0)

  TRISFCLR = 0x0003;  // Make F0 and F1 outputs (LED1 and LED2)
9d0094b0:	3c02bf88 	lui	v0,0xbf88
9d0094b4:	ac446144 	sw	a0,24900(v0)
  NU32_LED1 = 1;      // LED1 is off
9d0094b8:	3c02bf88 	lui	v0,0xbf88
9d0094bc:	90446160 	lbu	a0,24928(v0)
9d0094c0:	7c640004 	ins	a0,v1,0x0,0x1
9d0094c4:	a0446160 	sb	a0,24928(v0)
  NU32_LED2 = 0;      // LED2 is on
9d0094c8:	90446160 	lbu	a0,24928(v0)
9d0094cc:	7c040844 	ins	a0,zero,0x1,0x1
9d0094d0:	a0446160 	sb	a0,24928(v0)

  // turn on UART3 without an interrupt
  U3MODEbits.BRGH = 0; // set baud to NU32_DESIRED_BAUD
9d0094d4:	3c02bf80 	lui	v0,0xbf80
9d0094d8:	94446400 	lhu	a0,25600(v0)
9d0094dc:	7c0418c4 	ins	a0,zero,0x3,0x1
9d0094e0:	a4446400 	sh	a0,25600(v0)
  U3BRG = ((NU32_SYS_FREQ / NU32_DESIRED_BAUD) / 16) - 1;
9d0094e4:	24060014 	li	a2,20
9d0094e8:	3c04bf80 	lui	a0,0xbf80
9d0094ec:	ac866440 	sw	a2,25664(a0)

  // 8 bit, no parity bit, and 1 stop bit (8N1 setup)
  U3MODEbits.PDSEL = 0;
9d0094f0:	94446400 	lhu	a0,25600(v0)
9d0094f4:	7c041044 	ins	a0,zero,0x1,0x2
9d0094f8:	a4446400 	sh	a0,25600(v0)
  U3MODEbits.STSEL = 0;
9d0094fc:	94446400 	lhu	a0,25600(v0)
9d009500:	7c040004 	ins	a0,zero,0x0,0x1
9d009504:	a4446400 	sh	a0,25600(v0)

  // configure TX & RX pins as output & input pins
  U3STAbits.UTXEN = 1;
9d009508:	3c04bf80 	lui	a0,0xbf80
9d00950c:	8c866410 	lw	a2,25616(a0)
9d009510:	7c665284 	ins	a2,v1,0xa,0x1
9d009514:	ac866410 	sw	a2,25616(a0)
  U3STAbits.URXEN = 1;
9d009518:	8c866410 	lw	a2,25616(a0)
9d00951c:	7c666304 	ins	a2,v1,0xc,0x1
9d009520:	ac866410 	sw	a2,25616(a0)
  // configure hardware flow control using RTS and CTS
  U3MODEbits.UEN = 2;
9d009524:	94446400 	lhu	a0,25600(v0)
9d009528:	7ca44a04 	ins	a0,a1,0x8,0x2
9d00952c:	a4446400 	sh	a0,25600(v0)

  // enable the uart
  U3MODEbits.ON = 1;
9d009530:	94446400 	lhu	a0,25600(v0)
9d009534:	7c647bc4 	ins	a0,v1,0xf,0x1
9d009538:	a4446400 	sh	a0,25600(v0)

  __builtin_enable_interrupts();
9d00953c:	41626020 	ei	v0
}
9d009540:	8fbf0004 	lw	ra,4(sp)
9d009544:	03e00008 	jr	ra
9d009548:	27bd0008 	addiu	sp,sp,8

9d00954c <NU32_ReadUART3>:
// Read from UART3
// block other functions until you get a '\r' or '\n'
// send the pointer to your char array and the number of elements in the array
void NU32_ReadUART3(char * message, int maxLength) {
  char data = 0;
  int complete = 0, num_bytes = 0;
9d00954c:	00003021 	move	a2,zero
  // loop until you get a '\r' or '\n'
  while (!complete) {
    if (U3STAbits.URXDA) { // if data is available
9d009550:	3c03bf80 	lui	v1,0xbf80
      data = U3RXREG;      // read the data
9d009554:	3c08bf80 	lui	t0,0xbf80
      if ((data == '\n') || (data == '\r')) {
9d009558:	2407000a 	li	a3,10
9d00955c:	0b402567 	j	9d00959c <NU32_ReadUART3+0x50>
9d009560:	2409000d 	li	t1,13
void NU32_ReadUART3(char * message, int maxLength) {
  char data = 0;
  int complete = 0, num_bytes = 0;
  // loop until you get a '\r' or '\n'
  while (!complete) {
    if (U3STAbits.URXDA) { // if data is available
9d009564:	8c626410 	lw	v0,25616(v1)
9d009568:	30420001 	andi	v0,v0,0x1
9d00956c:	1040fffd 	beqz	v0,9d009564 <NU32_ReadUART3+0x18>
9d009570:	00000000 	nop
      data = U3RXREG;      // read the data
9d009574:	8d026430 	lw	v0,25648(t0)
9d009578:	7c021420 	seb	v0,v0
      if ((data == '\n') || (data == '\r')) {
9d00957c:	5047000e 	beql	v0,a3,9d0095b8 <NU32_ReadUART3+0x6c>
9d009580:	00862021 	addu	a0,a0,a2
9d009584:	1049000b 	beq	v0,t1,9d0095b4 <NU32_ReadUART3+0x68>
9d009588:	00865021 	addu	t2,a0,a2
        complete = 1;
      } else {
        message[num_bytes] = data;
9d00958c:	a1420000 	sb	v0,0(t2)
        ++num_bytes;
9d009590:	24c60001 	addiu	a2,a2,1
        // roll over if the array is too small
        if (num_bytes >= maxLength) {
9d009594:	00c5102a 	slt	v0,a2,a1
          num_bytes = 0;
9d009598:	0002300a 	movz	a2,zero,v0
void NU32_ReadUART3(char * message, int maxLength) {
  char data = 0;
  int complete = 0, num_bytes = 0;
  // loop until you get a '\r' or '\n'
  while (!complete) {
    if (U3STAbits.URXDA) { // if data is available
9d00959c:	8c626410 	lw	v0,25616(v1)
9d0095a0:	30420001 	andi	v0,v0,0x1
9d0095a4:	1040ffef 	beqz	v0,9d009564 <NU32_ReadUART3+0x18>
9d0095a8:	00000000 	nop
9d0095ac:	0b40255d 	j	9d009574 <NU32_ReadUART3+0x28>
9d0095b0:	00000000 	nop
        }
      }
    }
  }
  // end the string
  message[num_bytes] = '\0';
9d0095b4:	00862021 	addu	a0,a0,a2
9d0095b8:	03e00008 	jr	ra
9d0095bc:	a0800000 	sb	zero,0(a0)

9d0095c0 <NU32_WriteUART3>:
}

// Write a character array using UART3
void NU32_WriteUART3(const char * string) {
  while (*string != '\0') {
9d0095c0:	80850000 	lb	a1,0(a0)
9d0095c4:	10a0000b 	beqz	a1,9d0095f4 <NU32_WriteUART3+0x34>
9d0095c8:	3c03bf80 	lui	v1,0xbf80
    while (U3STAbits.UTXBF) {
      ; // wait until tx buffer isn't full
    }
    U3TXREG = *string;
9d0095cc:	3c06bf80 	lui	a2,0xbf80
}

// Write a character array using UART3
void NU32_WriteUART3(const char * string) {
  while (*string != '\0') {
    while (U3STAbits.UTXBF) {
9d0095d0:	8c626410 	lw	v0,25616(v1)
9d0095d4:	30420200 	andi	v0,v0,0x200
9d0095d8:	1440fffd 	bnez	v0,9d0095d0 <NU32_WriteUART3+0x10>
9d0095dc:	00000000 	nop
      ; // wait until tx buffer isn't full
    }
    U3TXREG = *string;
9d0095e0:	acc56420 	sw	a1,25632(a2)
    ++string;
9d0095e4:	24840001 	addiu	a0,a0,1
  message[num_bytes] = '\0';
}

// Write a character array using UART3
void NU32_WriteUART3(const char * string) {
  while (*string != '\0') {
9d0095e8:	80850000 	lb	a1,0(a0)
9d0095ec:	14a0fff8 	bnez	a1,9d0095d0 <NU32_WriteUART3+0x10>
9d0095f0:	00000000 	nop
9d0095f4:	03e00008 	jr	ra
9d0095f8:	00000000 	nop

Disassembly of section .text.fp32mul:

9d0095fc <__mulsf3>:
9d0095fc:	00043dc2 30e700ff 00054dc2 312900ff     .=.....0.M....)1
9d00960c:	3c0a8000 00043200 00ca3025 00054200     ...<.2..%0...B..
9d00961c:	010a4025 00856026 014c5024 24ecffff     %@..&`..$PL....$
9d00962c:	2d8100fe 10200021 00000000              ...-!. .....

9d009638 <Clab1>:
9d009638:	252cffff 	addiu	t4,t1,-1
9d00963c:	2d8100fe 	sltiu	at,t4,254
9d009640:	10200036 	beqz	at,9d00971c <CspecB>
9d009644:	00000000 	nop

9d009648 <Clab2>:
9d009648:	00c80019 	multu	a2,t0
9d00964c:	00005812 	mflo	t3
9d009650:	11600002 	beqz	t3,9d00965c <i17>
9d009654:	00003010 	mfhi	a2
9d009658:	34c60001 	ori	a2,a2,0x1

9d00965c <i17>:
9d00965c:	04c00003 	bltz	a2,9d00966c <i18>
9d009660:	00000000 	nop
9d009664:	00063040 	sll	a2,a2,0x1
9d009668:	24e7ffff 	addiu	a3,a3,-1

9d00966c <i18>:
9d00966c:	252cff82 	addiu	t4,t1,-126
9d009670:	00ec3821 	addu	a3,a3,t4
9d009674:	24ecffff 	addiu	t4,a3,-1
9d009678:	2d8100fe 	sltiu	at,t4,254
9d00967c:	1020003a 	beqz	at,9d009768 <Coveund>
9d009680:	00000000 	nop

9d009684 <Clab8>:
9d009684:	24c60080 	addiu	a2,a2,128
9d009688:	2ccc0080 	sltiu	t4,a2,128
9d00968c:	00ec3821 	addu	a3,a3,t4
9d009690:	00066202 	srl	t4,a2,0x8
9d009694:	318c0001 	andi	t4,t4,0x1
9d009698:	00cc3023 	subu	a2,a2,t4
9d00969c:	00063040 	sll	a2,a2,0x1
9d0096a0:	00063242 	srl	a2,a2,0x9
9d0096a4:	000765c0 	sll	t4,a3,0x17
9d0096a8:	00cc3025 	or	a2,a2,t4
9d0096ac:	00ca1025 	or	v0,a2,t2

9d0096b0 <C999>:
9d0096b0:	03e00008 	jr	ra
9d0096b4:	00000000 	nop

9d0096b8 <CspecA>:
9d0096b8:	14e0000d 	bnez	a3,9d0096f0 <i19>
9d0096bc:	00000000 	nop
9d0096c0:	00c63021 	addu	a2,a2,a2
9d0096c4:	10c00005 	beqz	a2,9d0096dc <i20>
9d0096c8:	00000000 	nop
9d0096cc:	70cb5820 	clz	t3,a2
9d0096d0:	00eb3823 	subu	a3,a3,t3
9d0096d4:	1000ffd8 	b	9d009638 <Clab1>
9d0096d8:	01663004 	sllv	a2,a2,t3

9d0096dc <i20>:
9d0096dc:	240100ff 	li	at,255
9d0096e0:	1121001f 	beq	t1,at,9d009760 <Cnan>
9d0096e4:	00000000 	nop
9d0096e8:	10000015 	b	9d009740 <Czer>
9d0096ec:	00000000 	nop

9d0096f0 <i19>:
9d0096f0:	00c66021 	addu	t4,a2,a2
9d0096f4:	1580001a 	bnez	t4,9d009760 <Cnan>
9d0096f8:	00000000 	nop
9d0096fc:	15200004 	bnez	t1,9d009710 <i21>
9d009700:	00000000 	nop
9d009704:	01086021 	addu	t4,t0,t0
9d009708:	11800015 	beqz	t4,9d009760 <Cnan>
9d00970c:	00000000 	nop

9d009710 <i21>:
9d009710:	240100ff 	li	at,255
9d009714:	1521000f 	bne	t1,at,9d009754 <Cinf>
9d009718:	00000000 	nop

9d00971c <CspecB>:
9d00971c:	1520000a 	bnez	t1,9d009748 <i22>
9d009720:	00000000 	nop
9d009724:	01084021 	addu	t0,t0,t0
9d009728:	11000005 	beqz	t0,9d009740 <Czer>
9d00972c:	00000000 	nop
9d009730:	710b5820 	clz	t3,t0
9d009734:	012b4823 	subu	t1,t1,t3
9d009738:	1000ffc3 	b	9d009648 <Clab2>
9d00973c:	01684004 	sllv	t0,t0,t3

9d009740 <Czer>:
9d009740:	1000ffdb 	b	9d0096b0 <C999>
9d009744:	000a1025 	or	v0,zero,t2

9d009748 <i22>:
9d009748:	01086021 	addu	t4,t0,t0
9d00974c:	15800004 	bnez	t4,9d009760 <Cnan>
9d009750:	00000000 	nop

9d009754 <Cinf>:
9d009754:	3c017f80 	lui	at,0x7f80
9d009758:	1000ffd5 	b	9d0096b0 <C999>
9d00975c:	01411025 	or	v0,t2,at

9d009760 <Cnan>:
9d009760:	1000ffd3 	b	9d0096b0 <C999>
9d009764:	3c02ffc0 	lui	v0,0xffc0

9d009768 <Coveund>:
9d009768:	1ce0fffa 	bgtz	a3,9d009754 <Cinf>
9d00976c:	00000000 	nop
9d009770:	240b0001 	li	t3,1
9d009774:	01675823 	subu	t3,t3,a3
9d009778:	2d610020 	sltiu	at,t3,32
9d00977c:	1020fff0 	beqz	at,9d009740 <Czer>
9d009780:	00000000 	nop
9d009784:	240c0020 	li	t4,32
9d009788:	018b6023 	subu	t4,t4,t3
9d00978c:	01863804 	sllv	a3,a2,t4
9d009790:	10e00002 	beqz	a3,9d00979c <i25>
9d009794:	01663006 	srlv	a2,a2,t3
9d009798:	34c60002 	ori	a2,a2,0x2

9d00979c <i25>:
9d00979c:	24070000 	li	a3,0
9d0097a0:	24cc0080 	addiu	t4,a2,128
9d0097a4:	0581ffb7 	bgez	t4,9d009684 <Clab8>
9d0097a8:	00000000 	nop
9d0097ac:	1000ffb5 	b	9d009684 <Clab8>
9d0097b0:	24070001 	li	a3,1
9d0097b4:	00000000 	nop

Disassembly of section .text.__ldexp:

9d0097b8 <__ldexp>:
9d0097b8:	27bdffe0 	addiu	sp,sp,-32
9d0097bc:	afbf001c 	sw	ra,28(sp)
9d0097c0:	afb20018 	sw	s2,24(sp)
9d0097c4:	afb10014 	sw	s1,20(sp)
9d0097c8:	afb00010 	sw	s0,16(sp)
9d0097cc:	7ca75500 	ext	a3,a1,0x14,0xb
9d0097d0:	24e2ffff 	addiu	v0,a3,-1
9d0097d4:	7ca89800 	ext	t0,a1,0x0,0x14
9d0097d8:	2c4907fe 	sltiu	t1,v0,2046
9d0097dc:	00c08821 	move	s1,a2
9d0097e0:	000587c2 	srl	s0,a1,0x1f
9d0097e4:	00801021 	move	v0,a0
9d0097e8:	11200041 	beqz	t1,9d0098f0 <__ldexp+0x138>
9d0097ec:	01001821 	move	v1,t0
9d0097f0:	24e7fc01 	addiu	a3,a3,-1023
9d0097f4:	3c040010 	lui	a0,0x10
9d0097f8:	01041825 	or	v1,t0,a0
9d0097fc:	00f13821 	addu	a3,a3,s1
9d009800:	00022f42 	srl	a1,v0,0x1d
9d009804:	000318c0 	sll	v1,v1,0x3
9d009808:	24e403ff 	addiu	a0,a3,1023
9d00980c:	00a31825 	or	v1,a1,v1
9d009810:	18800025 	blez	a0,9d0098a8 <__ldexp+0xf0>
9d009814:	000210c0 	sll	v0,v0,0x3
9d009818:	30450007 	andi	a1,v0,0x7
9d00981c:	14a00015 	bnez	a1,9d009874 <__ldexp+0xbc>
9d009820:	7c4500c0 	ext	a1,v0,0x3,0x1
9d009824:	00033740 	sll	a2,v1,0x1d
9d009828:	000210c2 	srl	v0,v0,0x3
9d00982c:	288507ff 	slti	a1,a0,2047
9d009830:	00c21025 	or	v0,a2,v0
9d009834:	10a00036 	beqz	a1,9d009910 <__ldexp+0x158>
9d009838:	000318c2 	srl	v1,v1,0x3
9d00983c:	7c650500 	ext	a1,v1,0x14,0x1
9d009840:	50a00002 	beqzl	a1,9d00984c <__ldexp+0x94>
9d009844:	00002021 	move	a0,zero
9d009848:	7c639800 	ext	v1,v1,0x0,0x14
9d00984c:	001082c0 	sll	s0,s0,0xb
9d009850:	00902025 	or	a0,a0,s0
9d009854:	00042500 	sll	a0,a0,0x14
9d009858:	00831825 	or	v1,a0,v1
9d00985c:	8fbf001c 	lw	ra,28(sp)
9d009860:	8fb20018 	lw	s2,24(sp)
9d009864:	8fb10014 	lw	s1,20(sp)
9d009868:	8fb00010 	lw	s0,16(sp)
9d00986c:	03e00008 	jr	ra
9d009870:	27bd0020 	addiu	sp,sp,32
9d009874:	24a50003 	addiu	a1,a1,3
9d009878:	00452821 	addu	a1,v0,a1
9d00987c:	00a2102b 	sltu	v0,a1,v0
9d009880:	00431821 	addu	v1,v0,v1
9d009884:	7c660600 	ext	a2,v1,0x18,0x1
9d009888:	10c0ffe6 	beqz	a2,9d009824 <__ldexp+0x6c>
9d00988c:	00a01021 	move	v0,a1
9d009890:	00032fc0 	sll	a1,v1,0x1f
9d009894:	00021042 	srl	v0,v0,0x1
9d009898:	00a21025 	or	v0,a1,v0
9d00989c:	00031842 	srl	v1,v1,0x1
9d0098a0:	0b402609 	j	9d009824 <__ldexp+0x6c>
9d0098a4:	24840001 	addiu	a0,a0,1
9d0098a8:	2406fc02 	li	a2,-1022
9d0098ac:	00c73023 	subu	a2,a2,a3
9d0098b0:	28c40038 	slti	a0,a2,56
9d0098b4:	5080001b 	beqzl	a0,9d009924 <__ldexp+0x16c>
9d0098b8:	00001021 	move	v0,zero
9d0098bc:	00062023 	negu	a0,a2
9d0098c0:	30850020 	andi	a1,a0,0x20
9d0098c4:	14a00003 	bnez	a1,9d0098d4 <__ldexp+0x11c>
9d0098c8:	00828804 	sllv	s1,v0,a0
9d0098cc:	00832004 	sllv	a0,v1,a0
9d0098d0:	00828825 	or	s1,a0,v0
9d0098d4:	00402021 	move	a0,v0
9d0098d8:	0f402de4 	jal	9d00b790 <__lshrdi3>
9d0098dc:	00602821 	move	a1,v1
9d0098e0:	0011882b 	sltu	s1,zero,s1
9d0098e4:	02221025 	or	v0,s1,v0
9d0098e8:	0b402606 	j	9d009818 <__ldexp+0x60>
9d0098ec:	24040001 	li	a0,1
9d0098f0:	54e00005 	bnezl	a3,9d009908 <__ldexp+0x150>
9d0098f4:	00801021 	move	v0,a0
9d0098f8:	01043025 	or	a2,t0,a0
9d0098fc:	14c0000c 	bnez	a2,9d009930 <__ldexp+0x178>
9d009900:	00000000 	nop
9d009904:	00801021 	move	v0,a0
9d009908:	0b402617 	j	9d00985c <__ldexp+0xa4>
9d00990c:	00a01821 	move	v1,a1
9d009910:	00101ac0 	sll	v1,s0,0xb
9d009914:	346307ff 	ori	v1,v1,0x7ff
9d009918:	00031d00 	sll	v1,v1,0x14
9d00991c:	0b402617 	j	9d00985c <__ldexp+0xa4>
9d009920:	00001021 	move	v0,zero
9d009924:	00001821 	move	v1,zero
9d009928:	0b402613 	j	9d00984c <__ldexp+0x94>
9d00992c:	00002021 	move	a0,zero
9d009930:	15000003 	bnez	t0,9d009940 <__ldexp+0x188>
9d009934:	71129020 	clz	s2,t0
9d009938:	70929020 	clz	s2,a0
9d00993c:	26520020 	addiu	s2,s2,32
9d009940:	2646fff5 	addiu	a2,s2,-11
9d009944:	10c0ffad 	beqz	a2,9d0097fc <__ldexp+0x44>
9d009948:	2407fc02 	li	a3,-1022
9d00994c:	0f402df4 	jal	9d00b7d0 <__ashldi3>
9d009950:	01002821 	move	a1,t0
9d009954:	2407fc0d 	li	a3,-1011
9d009958:	0b4025ff 	j	9d0097fc <__ldexp+0x44>
9d00995c:	00f23823 	subu	a3,a3,s2

Disassembly of section .text._sbrk_init:

9d009960 <_sbrk_init>:
9d009960:	27bdffd8 	addiu	sp,sp,-40
9d009964:	afbf0024 	sw	ra,36(sp)
9d009968:	afb40020 	sw	s4,32(sp)
9d00996c:	afb3001c 	sw	s3,28(sp)
9d009970:	afb20018 	sw	s2,24(sp)
9d009974:	afb10014 	sw	s1,20(sp)
9d009978:	afb00010 	sw	s0,16(sp)
9d00997c:	3c10a000 	lui	s0,0xa000
9d009980:	8e026474 	lw	v0,25716(s0)
9d009984:	10400009 	beqz	v0,9d0099ac <_sbrk_init+0x4c>
9d009988:	3c12a000 	lui	s2,0xa000
9d00998c:	8fbf0024 	lw	ra,36(sp)
9d009990:	8fb40020 	lw	s4,32(sp)
9d009994:	8fb3001c 	lw	s3,28(sp)
9d009998:	8fb20018 	lw	s2,24(sp)
9d00999c:	8fb10014 	lw	s1,20(sp)
9d0099a0:	8fb00010 	lw	s0,16(sp)
9d0099a4:	03e00008 	jr	ra
9d0099a8:	27bd0028 	addiu	sp,sp,40
9d0099ac:	8e43647c 	lw	v1,25724(s2)
9d0099b0:	5060003d 	beqzl	v1,9d009aa8 <_sbrk_init+0x148>
9d0099b4:	3c03a000 	lui	v1,0xa000
9d0099b8:	3c13a000 	lui	s3,0xa000
9d0099bc:	8e626478 	lw	v0,25720(s3)
9d0099c0:	5040003b 	beqzl	v0,9d009ab0 <_sbrk_init+0x150>
9d0099c4:	3c040000 	lui	a0,0x0
9d0099c8:	00038f82 	srl	s1,v1,0x1e
9d0099cc:	0002a782 	srl	s4,v0,0x1e
9d0099d0:	7c65e000 	ext	a1,v1,0x0,0x1d
9d0099d4:	3a310002 	xori	s1,s1,0x2
9d0099d8:	7c44e000 	ext	a0,v0,0x0,0x1d
9d0099dc:	3a940002 	xori	s4,s4,0x2
9d0099e0:	00b1180a 	movz	v1,a1,s1
9d0099e4:	00608821 	move	s1,v1
9d0099e8:	0094100a 	movz	v0,a0,s4
9d0099ec:	0f402e4e 	jal	9d00b938 <_stub_sbd_memlayout>
9d0099f0:	0040a021 	move	s4,v0
9d0099f4:	8c430000 	lw	v1,0(v0)
9d0099f8:	8c440004 	lw	a0,4(v0)
9d0099fc:	0223102b 	sltu	v0,s1,v1
9d009a00:	10400024 	beqz	v0,9d009a94 <_sbrk_init+0x134>
9d009a04:	00642021 	addu	a0,v1,a0
9d009a08:	3c02a000 	lui	v0,0xa000
9d009a0c:	2442003c 	addiu	v0,v0,60
9d009a10:	7c42e000 	ext	v0,v0,0x0,0x1d
9d009a14:	0062102b 	sltu	v0,v1,v0
9d009a18:	1440ffdd 	bnez	v0,9d009990 <_sbrk_init+0x30>
9d009a1c:	8fbf0024 	lw	ra,36(sp)
9d009a20:	0283102b 	sltu	v0,s4,v1
9d009a24:	14400005 	bnez	v0,9d009a3c <_sbrk_init+0xdc>
9d009a28:	0064102b 	sltu	v0,v1,a0
9d009a2c:	0284102b 	sltu	v0,s4,a0
9d009a30:	54400004 	bnezl	v0,9d009a44 <_sbrk_init+0xe4>
9d009a34:	02802021 	move	a0,s4
9d009a38:	0064102b 	sltu	v0,v1,a0
9d009a3c:	1040ffd4 	beqz	v0,9d009990 <_sbrk_init+0x30>
9d009a40:	8fbf0024 	lw	ra,36(sp)
9d009a44:	3c02a000 	lui	v0,0xa000
9d009a48:	2442003c 	addiu	v0,v0,60
9d009a4c:	00021742 	srl	v0,v0,0x1d
9d009a50:	24050005 	li	a1,5
9d009a54:	1445001b 	bne	v0,a1,9d009ac4 <_sbrk_init+0x164>
9d009a58:	24050004 	li	a1,4
9d009a5c:	3c02a000 	lui	v0,0xa000
9d009a60:	00621825 	or	v1,v1,v0
9d009a64:	00822025 	or	a0,a0,v0
9d009a68:	ae43647c 	sw	v1,25724(s2)
9d009a6c:	ae646478 	sw	a0,25720(s3)
9d009a70:	ae036474 	sw	v1,25716(s0)
9d009a74:	8fbf0024 	lw	ra,36(sp)
9d009a78:	8fb40020 	lw	s4,32(sp)
9d009a7c:	8fb3001c 	lw	s3,28(sp)
9d009a80:	8fb20018 	lw	s2,24(sp)
9d009a84:	8fb10014 	lw	s1,20(sp)
9d009a88:	8fb00010 	lw	s0,16(sp)
9d009a8c:	03e00008 	jr	ra
9d009a90:	27bd0028 	addiu	sp,sp,40
9d009a94:	0224102b 	sltu	v0,s1,a0
9d009a98:	1040ffdc 	beqz	v0,9d009a0c <_sbrk_init+0xac>
9d009a9c:	3c02a000 	lui	v0,0xa000
9d009aa0:	0b402688 	j	9d009a20 <_sbrk_init+0xc0>
9d009aa4:	02201821 	move	v1,s1
9d009aa8:	0b40266e 	j	9d0099b8 <_sbrk_init+0x58>
9d009aac:	246364b0 	addiu	v1,v1,25776
9d009ab0:	24840000 	addiu	a0,a0,0
9d009ab4:	3c02a000 	lui	v0,0xa000
9d009ab8:	244264b0 	addiu	v0,v0,25776
9d009abc:	0b402672 	j	9d0099c8 <_sbrk_init+0x68>
9d009ac0:	00441021 	addu	v0,v0,a0
9d009ac4:	14450007 	bne	v0,a1,9d009ae4 <_sbrk_init+0x184>
9d009ac8:	3c028000 	lui	v0,0x8000
9d009acc:	00621825 	or	v1,v1,v0
9d009ad0:	00821025 	or	v0,a0,v0
9d009ad4:	ae43647c 	sw	v1,25724(s2)
9d009ad8:	ae626478 	sw	v0,25720(s3)
9d009adc:	0b40269d 	j	9d009a74 <_sbrk_init+0x114>
9d009ae0:	ae036474 	sw	v1,25716(s0)
9d009ae4:	ae44647c 	sw	a0,25724(s2)
9d009ae8:	00801821 	move	v1,a0
9d009aec:	0b40269d 	j	9d009a74 <_sbrk_init+0x114>
9d009af0:	ae036474 	sw	v1,25716(s0)

Disassembly of section .text:

9d009af4 <encoder_command>:
#include "encoder.h"                   


static int encoder_command(int read) { // send a command to the encoder chip
                                       // 0 = reset count to 32,768, 1 = return the count
  SPI3BUF = read;                      // send the command
9d009af4:	3c02bf80 	lui	v0,0xbf80
9d009af8:	ac445820 	sw	a0,22560(v0)
  while (!SPI3STATbits.SPIRBF) { ; }   // wait for the response
9d009afc:	3c03bf80 	lui	v1,0xbf80
9d009b00:	8c625810 	lw	v0,22544(v1)
9d009b04:	30420001 	andi	v0,v0,0x1
9d009b08:	1040fffd 	beqz	v0,9d009b00 <encoder_command+0xc>
9d009b0c:	3c02bf80 	lui	v0,0xbf80
  SPI3BUF;                             // garbage was transferred, ignore it
9d009b10:	8c435820 	lw	v1,22560(v0)
  SPI3BUF = 5;                         // write garbage, but the read will have the data
9d009b14:	24030005 	li	v1,5
9d009b18:	ac435820 	sw	v1,22560(v0)
  while (!SPI3STATbits.SPIRBF) { ; }
9d009b1c:	3c03bf80 	lui	v1,0xbf80
9d009b20:	8c625810 	lw	v0,22544(v1)
9d009b24:	30420001 	andi	v0,v0,0x1
9d009b28:	1040fffd 	beqz	v0,9d009b20 <encoder_command+0x2c>
9d009b2c:	3c02bf80 	lui	v0,0xbf80
  return SPI3BUF;
9d009b30:	8c425820 	lw	v0,22560(v0)
}
9d009b34:	03e00008 	jr	ra
9d009b38:	00000000 	nop

9d009b3c <encoder_counts>:

int encoder_counts(void) {
9d009b3c:	27bdffe8 	addiu	sp,sp,-24
9d009b40:	afbf0014 	sw	ra,20(sp)
  return encoder_command(1);
9d009b44:	0f4026bd 	jal	9d009af4 <encoder_command>
9d009b48:	24040001 	li	a0,1

9d009b4c <.LVL1>:
}
9d009b4c:	8fbf0014 	lw	ra,20(sp)
9d009b50:	03e00008 	jr	ra
9d009b54:	27bd0018 	addiu	sp,sp,24

9d009b58 <encoder_position>:

double encoder_position(void) {
9d009b58:	27bdffe8 	addiu	sp,sp,-24
9d009b5c:	afbf0014 	sw	ra,20(sp)
	double position; 
	position = (32768 - encoder_counts())/(double)100;	// convert counts to position (mm)
9d009b60:	0f4026cf 	jal	9d009b3c <encoder_counts>
9d009b64:	00000000 	nop

9d009b68 <.LVL2>:
9d009b68:	34048000 	li	a0,0x8000
9d009b6c:	0f402d12 	jal	9d00b448 <__floatsisf>
9d009b70:	00822023 	subu	a0,a0,v0
9d009b74:	00402021 	move	a0,v0
9d009b78:	3c029d01 	lui	v0,0x9d01
9d009b7c:	0f40237d 	jal	9d008df4 <__divsf3>
9d009b80:	8c45bc94 	lw	a1,-17260(v0)
    return position;
}
9d009b84:	8fbf0014 	lw	ra,20(sp)
9d009b88:	03e00008 	jr	ra
9d009b8c:	27bd0018 	addiu	sp,sp,24

9d009b90 <encoder_reset>:

void encoder_reset(void) {
9d009b90:	27bdffe8 	addiu	sp,sp,-24
9d009b94:	afbf0014 	sw	ra,20(sp)
    encoder_command(0);
9d009b98:	0f4026bd 	jal	9d009af4 <encoder_command>
9d009b9c:	00002021 	move	a0,zero

9d009ba0 <.LVL5>:
	//
}
9d009ba0:	8fbf0014 	lw	ra,20(sp)
9d009ba4:	03e00008 	jr	ra
9d009ba8:	27bd0018 	addiu	sp,sp,24

9d009bac <encoder_init>:

void encoder_init(void) {
  // SPI initialization for reading from the decoder chip
  SPI3CON = 0;              // stop and reset SPI3
9d009bac:	3c02bf80 	lui	v0,0xbf80
9d009bb0:	ac405800 	sw	zero,22528(v0)
  SPI3BUF;                  // read to clear the rx receive buffer
9d009bb4:	3c02bf80 	lui	v0,0xbf80
9d009bb8:	8c425820 	lw	v0,22560(v0)
  SPI3BRG = 0x4;            // bit rate to 8 MHz, SPI4BRG = 80000000/(2*desired)-1
9d009bbc:	24030004 	li	v1,4
9d009bc0:	3c02bf80 	lui	v0,0xbf80
9d009bc4:	ac435830 	sw	v1,22576(v0)
  SPI3STATbits.SPIROV = 0;  // clear the overflow
9d009bc8:	3c02bf80 	lui	v0,0xbf80
9d009bcc:	8c435810 	lw	v1,22544(v0)
9d009bd0:	7c033184 	ins	v1,zero,0x6,0x1
9d009bd4:	ac435810 	sw	v1,22544(v0)
  SPI3CONbits.MSTEN = 1;    // master mode
9d009bd8:	3c02bf80 	lui	v0,0xbf80
9d009bdc:	8c445800 	lw	a0,22528(v0)
9d009be0:	24030001 	li	v1,1
9d009be4:	7c642944 	ins	a0,v1,0x5,0x1
9d009be8:	ac445800 	sw	a0,22528(v0)
  SPI3CONbits.MSSEN = 1;    // slave select enable
9d009bec:	8c445800 	lw	a0,22528(v0)
9d009bf0:	7c64e704 	ins	a0,v1,0x1c,0x1
9d009bf4:	ac445800 	sw	a0,22528(v0)
  SPI3CONbits.MODE16 = 1;   // 16 bit mode
9d009bf8:	8c445800 	lw	a0,22528(v0)
9d009bfc:	7c645284 	ins	a0,v1,0xa,0x1
9d009c00:	ac445800 	sw	a0,22528(v0)
  SPI3CONbits.MODE32 = 0; 
9d009c04:	8c445800 	lw	a0,22528(v0)
9d009c08:	7c045ac4 	ins	a0,zero,0xb,0x1
9d009c0c:	ac445800 	sw	a0,22528(v0)
  SPI3CONbits.SMP = 1;      // sample at the end of the clock
9d009c10:	8c445800 	lw	a0,22528(v0)
9d009c14:	7c644a44 	ins	a0,v1,0x9,0x1
9d009c18:	ac445800 	sw	a0,22528(v0)
  SPI3CONbits.ON = 1;       // turn SPI3 on
9d009c1c:	8c445800 	lw	a0,22528(v0)
9d009c20:	7c647bc4 	ins	a0,v1,0xf,0x1
9d009c24:	ac445800 	sw	a0,22528(v0)
9d009c28:	03e00008 	jr	ra
9d009c2c:	00000000 	nop

Disassembly of section .text._outcnvrt:

9d009c30 <_outcnvrt>:
9d009c30:	27bdffd8 	addiu	sp,sp,-40
9d009c34:	afbf0024 	sw	ra,36(sp)
9d009c38:	afb40020 	sw	s4,32(sp)
9d009c3c:	afb3001c 	sw	s3,28(sp)
9d009c40:	afb20018 	sw	s2,24(sp)
9d009c44:	afb10014 	sw	s1,20(sp)
9d009c48:	afb00010 	sw	s0,16(sp)
9d009c4c:	97a20038 	lhu	v0,56(sp)
9d009c50:	00809821 	move	s3,a0
9d009c54:	00a0a021 	move	s4,a1
9d009c58:	30420008 	andi	v0,v0,0x8
9d009c5c:	00c08021 	move	s0,a2
9d009c60:	10400014 	beqz	v0,9d009cb4 <_outcnvrt+0x84>
9d009c64:	00e08821 	move	s1,a3
9d009c68:	00a02021 	move	a0,a1
9d009c6c:	00c02821 	move	a1,a2
9d009c70:	0f402c92 	jal	9d00b248 <__sputn>
9d009c74:	02603021 	move	a2,s3
9d009c78:	2403ffff 	li	v1,-1
9d009c7c:	10430003 	beq	v0,v1,9d009c8c <_outcnvrt+0x5c>
9d009c80:	0211902a 	slt	s2,s0,s1
9d009c84:	1640001c 	bnez	s2,9d009cf8 <_outcnvrt+0xc8>
9d009c88:	02602021 	move	a0,s3
9d009c8c:	02201021 	move	v0,s1
9d009c90:	0212100a 	movz	v0,s0,s2
9d009c94:	8fbf0024 	lw	ra,36(sp)
9d009c98:	8fb40020 	lw	s4,32(sp)
9d009c9c:	8fb3001c 	lw	s3,28(sp)
9d009ca0:	8fb20018 	lw	s2,24(sp)
9d009ca4:	8fb10014 	lw	s1,20(sp)
9d009ca8:	8fb00010 	lw	s0,16(sp)
9d009cac:	03e00008 	jr	ra
9d009cb0:	27bd0028 	addiu	sp,sp,40
9d009cb4:	00c7902a 	slt	s2,a2,a3
9d009cb8:	1640001d 	bnez	s2,9d009d30 <_outcnvrt+0x100>
9d009cbc:	00e62823 	subu	a1,a3,a2
9d009cc0:	02802021 	move	a0,s4
9d009cc4:	02002821 	move	a1,s0
9d009cc8:	0f402c92 	jal	9d00b248 <__sputn>
9d009ccc:	02603021 	move	a2,s3
9d009cd0:	02201021 	move	v0,s1
9d009cd4:	0212100a 	movz	v0,s0,s2
9d009cd8:	8fbf0024 	lw	ra,36(sp)
9d009cdc:	8fb40020 	lw	s4,32(sp)
9d009ce0:	8fb3001c 	lw	s3,28(sp)
9d009ce4:	8fb20018 	lw	s2,24(sp)
9d009ce8:	8fb10014 	lw	s1,20(sp)
9d009cec:	8fb00010 	lw	s0,16(sp)
9d009cf0:	03e00008 	jr	ra
9d009cf4:	27bd0028 	addiu	sp,sp,40
9d009cf8:	02302823 	subu	a1,s1,s0
9d009cfc:	3c069d01 	lui	a2,0x9d01
9d009d00:	0f402b06 	jal	9d00ac18 <repl>
9d009d04:	24c6b524 	addiu	a2,a2,-19164
9d009d08:	02201021 	move	v0,s1
9d009d0c:	0212100a 	movz	v0,s0,s2
9d009d10:	8fbf0024 	lw	ra,36(sp)
9d009d14:	8fb40020 	lw	s4,32(sp)
9d009d18:	8fb3001c 	lw	s3,28(sp)
9d009d1c:	8fb20018 	lw	s2,24(sp)
9d009d20:	8fb10014 	lw	s1,20(sp)
9d009d24:	8fb00010 	lw	s0,16(sp)
9d009d28:	03e00008 	jr	ra
9d009d2c:	27bd0028 	addiu	sp,sp,40
9d009d30:	3c069d01 	lui	a2,0x9d01
9d009d34:	0f402b06 	jal	9d00ac18 <repl>
9d009d38:	24c6b524 	addiu	a2,a2,-19164
9d009d3c:	2403ffff 	li	v1,-1
9d009d40:	1443ffdf 	bne	v0,v1,9d009cc0 <_outcnvrt+0x90>
9d009d44:	02201021 	move	v0,s1
9d009d48:	0212100a 	movz	v0,s0,s2
9d009d4c:	8fbf0024 	lw	ra,36(sp)
9d009d50:	8fb40020 	lw	s4,32(sp)
9d009d54:	8fb3001c 	lw	s3,28(sp)
9d009d58:	8fb20018 	lw	s2,24(sp)
9d009d5c:	8fb10014 	lw	s1,20(sp)
9d009d60:	8fb00010 	lw	s0,16(sp)
9d009d64:	03e00008 	jr	ra
9d009d68:	27bd0028 	addiu	sp,sp,40

Disassembly of section .text.ungetc:

9d009d6c <ungetc>:
9d009d6c:	27bdffe0 	addiu	sp,sp,-32
9d009d70:	afbf001c 	sw	ra,28(sp)
9d009d74:	afb20018 	sw	s2,24(sp)
9d009d78:	afb10014 	sw	s1,20(sp)
9d009d7c:	afb00010 	sw	s0,16(sp)
9d009d80:	2412ffff 	li	s2,-1
9d009d84:	10920028 	beq	a0,s2,9d009e28 <ungetc+0xbc>
9d009d88:	00808821 	move	s1,a0
9d009d8c:	00a08021 	move	s0,a1
9d009d90:	8ca20018 	lw	v0,24(a1)
9d009d94:	00a02021 	move	a0,a1
9d009d98:	8c420010 	lw	v0,16(v0)
9d009d9c:	0040f809 	jalr	v0
9d009da0:	24050002 	li	a1,2
9d009da4:	10400021 	beqz	v0,9d009e2c <ungetc+0xc0>
9d009da8:	2402ffff 	li	v0,-1
9d009dac:	8e020000 	lw	v0,0(s0)
9d009db0:	10520037 	beq	v0,s2,9d009e90 <ungetc+0x124>
9d009db4:	00000000 	nop
9d009db8:	8e02000c 	lw	v0,12(s0)
9d009dbc:	50400017 	beqzl	v0,9d009e1c <ungetc+0xb0>
9d009dc0:	8e030004 	lw	v1,4(s0)
9d009dc4:	8e020004 	lw	v0,4(s0)
9d009dc8:	8e030008 	lw	v1,8(s0)
9d009dcc:	0062182b 	sltu	v1,v1,v0
9d009dd0:	1060001c 	beqz	v1,9d009e44 <ungetc+0xd8>
9d009dd4:	8e030000 	lw	v1,0(s0)
9d009dd8:	2442ffff 	addiu	v0,v0,-1
9d009ddc:	ae020004 	sw	v0,4(s0)
9d009de0:	24630001 	addiu	v1,v1,1
9d009de4:	ae030000 	sw	v1,0(s0)
9d009de8:	90430000 	lbu	v1,0(v0)
9d009dec:	54710001 	bnel	v1,s1,9d009df4 <ungetc+0x88>
9d009df0:	a0510000 	sb	s1,0(v0)
9d009df4:	96030010 	lhu	v1,16(s0)
9d009df8:	02201021 	move	v0,s1
9d009dfc:	3063ffdf 	andi	v1,v1,0xffdf
9d009e00:	a6030010 	sh	v1,16(s0)
9d009e04:	8fbf001c 	lw	ra,28(sp)
9d009e08:	8fb20018 	lw	s2,24(sp)
9d009e0c:	8fb10014 	lw	s1,20(sp)
9d009e10:	8fb00010 	lw	s0,16(sp)
9d009e14:	03e00008 	jr	ra
9d009e18:	27bd0020 	addiu	sp,sp,32
9d009e1c:	2402ffff 	li	v0,-1
9d009e20:	50620011 	beql	v1,v0,9d009e68 <ungetc+0xfc>
9d009e24:	96030010 	lhu	v1,16(s0)
9d009e28:	2402ffff 	li	v0,-1
9d009e2c:	8fbf001c 	lw	ra,28(sp)
9d009e30:	8fb20018 	lw	s2,24(sp)
9d009e34:	8fb10014 	lw	s1,20(sp)
9d009e38:	8fb00010 	lw	s0,16(sp)
9d009e3c:	03e00008 	jr	ra
9d009e40:	27bd0020 	addiu	sp,sp,32
9d009e44:	5060ffe7 	beqzl	v1,9d009de4 <ungetc+0x78>
9d009e48:	24630001 	addiu	v1,v1,1
9d009e4c:	02201021 	move	v0,s1
9d009e50:	8fbf001c 	lw	ra,28(sp)
9d009e54:	8fb20018 	lw	s2,24(sp)
9d009e58:	8fb10014 	lw	s1,20(sp)
9d009e5c:	8fb00010 	lw	s0,16(sp)
9d009e60:	03e00008 	jr	ra
9d009e64:	27bd0020 	addiu	sp,sp,32
9d009e68:	ae110004 	sw	s1,4(s0)
9d009e6c:	02201021 	move	v0,s1
9d009e70:	3063ffdf 	andi	v1,v1,0xffdf
9d009e74:	a6030010 	sh	v1,16(s0)
9d009e78:	8fbf001c 	lw	ra,28(sp)
9d009e7c:	8fb20018 	lw	s2,24(sp)
9d009e80:	8fb10014 	lw	s1,20(sp)
9d009e84:	8fb00010 	lw	s0,16(sp)
9d009e88:	03e00008 	jr	ra
9d009e8c:	27bd0020 	addiu	sp,sp,32
9d009e90:	0f402b54 	jal	9d00ad50 <_i_init>
9d009e94:	02002021 	move	a0,s0
9d009e98:	0b40276f 	j	9d009dbc <ungetc+0x50>
9d009e9c:	8e02000c 	lw	v0,12(s0)

Disassembly of section .text.putget.2773:

9d009ea0 <putget.2773>:
9d009ea0:	27bdffe0 	addiu	sp,sp,-32
9d009ea4:	afbf001c 	sw	ra,28(sp)
9d009ea8:	afb10018 	sw	s1,24(sp)
9d009eac:	afb00014 	sw	s0,20(sp)
9d009eb0:	01e08021 	move	s0,t7
9d009eb4:	8de50014 	lw	a1,20(t7)
9d009eb8:	8de20010 	lw	v0,16(t7)
9d009ebc:	10a20019 	beq	a1,v0,9d009f24 <putget.2773+0x84>
9d009ec0:	00808821 	move	s1,a0
9d009ec4:	8de20008 	lw	v0,8(t7)
9d009ec8:	24a30001 	addiu	v1,a1,1
9d009ecc:	00452821 	addu	a1,v0,a1
9d009ed0:	ae030014 	sw	v1,20(s0)
9d009ed4:	1220000d 	beqz	s1,9d009f0c <putget.2773+0x6c>
9d009ed8:	a0b10000 	sb	s1,0(a1)
9d009edc:	8e020004 	lw	v0,4(s0)
9d009ee0:	1040000a 	beqz	v0,9d009f0c <putget.2773+0x6c>
9d009ee4:	2411ffff 	li	s1,-1
9d009ee8:	0f402ce0 	jal	9d00b380 <gsgetc>
9d009eec:	8e040000 	lw	a0,0(s0)
9d009ef0:	00408821 	move	s1,v0
9d009ef4:	2402ffff 	li	v0,-1
9d009ef8:	12220005 	beq	s1,v0,9d009f10 <putget.2773+0x70>
9d009efc:	02201021 	move	v0,s1
9d009f00:	8e020004 	lw	v0,4(s0)
9d009f04:	2442ffff 	addiu	v0,v0,-1
9d009f08:	ae020004 	sw	v0,4(s0)
9d009f0c:	02201021 	move	v0,s1
9d009f10:	8fbf001c 	lw	ra,28(sp)
9d009f14:	8fb10018 	lw	s1,24(sp)
9d009f18:	8fb00014 	lw	s0,20(sp)
9d009f1c:	03e00008 	jr	ra
9d009f20:	27bd0020 	addiu	sp,sp,32
9d009f24:	8de4000c 	lw	a0,12(t7)
9d009f28:	24a50080 	addiu	a1,a1,128
9d009f2c:	10800007 	beqz	a0,9d009f4c <putget.2773+0xac>
9d009f30:	ade50010 	sw	a1,16(t7)
9d009f34:	0f40123d 	jal	9d0048f4 <realloc>
9d009f38:	00000000 	nop
9d009f3c:	ae02000c 	sw	v0,12(s0)
9d009f40:	8e050014 	lw	a1,20(s0)
9d009f44:	0b4027b2 	j	9d009ec8 <putget.2773+0x28>
9d009f48:	ae020008 	sw	v0,8(s0)
9d009f4c:	0f400d37 	jal	9d0034dc <malloc>
9d009f50:	00a02021 	move	a0,a1
9d009f54:	8e030008 	lw	v1,8(s0)
9d009f58:	ae02000c 	sw	v0,12(s0)
9d009f5c:	24680080 	addiu	t0,v1,128
9d009f60:	88670003 	lwl	a3,3(v1)
9d009f64:	88660007 	lwl	a2,7(v1)
9d009f68:	8865000b 	lwl	a1,11(v1)
9d009f6c:	8864000f 	lwl	a0,15(v1)
9d009f70:	98670000 	lwr	a3,0(v1)
9d009f74:	98660004 	lwr	a2,4(v1)
9d009f78:	98650008 	lwr	a1,8(v1)
9d009f7c:	9864000c 	lwr	a0,12(v1)
9d009f80:	24630010 	addiu	v1,v1,16
9d009f84:	ac470000 	sw	a3,0(v0)
9d009f88:	ac460004 	sw	a2,4(v0)
9d009f8c:	ac450008 	sw	a1,8(v0)
9d009f90:	ac44000c 	sw	a0,12(v0)
9d009f94:	1468fff2 	bne	v1,t0,9d009f60 <putget.2773+0xc0>
9d009f98:	24420010 	addiu	v0,v0,16
9d009f9c:	8e02000c 	lw	v0,12(s0)
9d009fa0:	8e050014 	lw	a1,20(s0)
9d009fa4:	0b4027b2 	j	9d009ec8 <putget.2773+0x28>
9d009fa8:	ae020008 	sw	v0,8(s0)

Disassembly of section .text.malloc_trim:

9d009fac <malloc_trim>:
9d009fac:	27bdffe0 	addiu	sp,sp,-32
9d009fb0:	afbf001c 	sw	ra,28(sp)
9d009fb4:	afb20018 	sw	s2,24(sp)
9d009fb8:	afb10014 	sw	s1,20(sp)
9d009fbc:	afb00010 	sw	s0,16(sp)
9d009fc0:	0f402f1f 	jal	9d00bc7c <getpagesize>
9d009fc4:	00809021 	move	s2,a0
9d009fc8:	3c10a000 	lui	s0,0xa000
9d009fcc:	26105ec4 	addiu	s0,s0,24260
9d009fd0:	8e030008 	lw	v1,8(s0)
9d009fd4:	8c710004 	lw	s1,4(v1)
9d009fd8:	2403fffc 	li	v1,-4
9d009fdc:	02238824 	and	s1,s1,v1
9d009fe0:	02322023 	subu	a0,s1,s2
9d009fe4:	2484ffef 	addiu	a0,a0,-17
9d009fe8:	00822021 	addu	a0,a0,v0
9d009fec:	0082001b 	divu	zero,a0,v0
9d009ff0:	004001f4 	teq	v0,zero,0x7
9d009ff4:	00009012 	mflo	s2
9d009ff8:	2652ffff 	addiu	s2,s2,-1
9d009ffc:	72429002 	mul	s2,s2,v0
9d00a000:	0242102a 	slt	v0,s2,v0
9d00a004:	10400008 	beqz	v0,9d00a028 <malloc_trim+0x7c>
9d00a008:	00000000 	nop
9d00a00c:	00001021 	move	v0,zero
9d00a010:	8fbf001c 	lw	ra,28(sp)
9d00a014:	8fb20018 	lw	s2,24(sp)
9d00a018:	8fb10014 	lw	s1,20(sp)
9d00a01c:	8fb00010 	lw	s0,16(sp)
9d00a020:	03e00008 	jr	ra
9d00a024:	27bd0020 	addiu	sp,sp,32
9d00a028:	0f402d54 	jal	9d00b550 <sbrk>
9d00a02c:	00002021 	move	a0,zero
9d00a030:	8e030008 	lw	v1,8(s0)
9d00a034:	00711821 	addu	v1,v1,s1
9d00a038:	1443fff5 	bne	v0,v1,9d00a010 <malloc_trim+0x64>
9d00a03c:	00001021 	move	v0,zero
9d00a040:	0f402d54 	jal	9d00b550 <sbrk>
9d00a044:	00122023 	negu	a0,s2
9d00a048:	2403ffff 	li	v1,-1
9d00a04c:	1043000a 	beq	v0,v1,9d00a078 <malloc_trim+0xcc>
9d00a050:	3c02a000 	lui	v0,0xa000
9d00a054:	8c446428 	lw	a0,25640(v0)
9d00a058:	8e030008 	lw	v1,8(s0)
9d00a05c:	02328823 	subu	s1,s1,s2
9d00a060:	36310001 	ori	s1,s1,0x1
9d00a064:	00929023 	subu	s2,a0,s2
9d00a068:	ac710004 	sw	s1,4(v1)
9d00a06c:	ac526428 	sw	s2,25640(v0)
9d00a070:	0b402804 	j	9d00a010 <malloc_trim+0x64>
9d00a074:	24020001 	li	v0,1
9d00a078:	0f402d54 	jal	9d00b550 <sbrk>
9d00a07c:	00002021 	move	a0,zero
9d00a080:	8e030008 	lw	v1,8(s0)
9d00a084:	00432023 	subu	a0,v0,v1
9d00a088:	28850010 	slti	a1,a0,16
9d00a08c:	54a0ffe0 	bnezl	a1,9d00a010 <malloc_trim+0x64>
9d00a090:	00001021 	move	v0,zero
9d00a094:	3c05a000 	lui	a1,0xa000
9d00a098:	8ca55ebc 	lw	a1,24252(a1)
9d00a09c:	34840001 	ori	a0,a0,0x1
9d00a0a0:	00451023 	subu	v0,v0,a1
9d00a0a4:	3c05a000 	lui	a1,0xa000
9d00a0a8:	aca26428 	sw	v0,25640(a1)
9d00a0ac:	0b402803 	j	9d00a00c <malloc_trim+0x60>
9d00a0b0:	ac640004 	sw	a0,4(v1)

Disassembly of section .rodata:

9d00a0b4 <_ctype>:
9d00a0b4:	20202000 20202020 28282020 20282828     .         ((((( 
9d00a0c4:	20202020 20202020 20202020 20202020                     
9d00a0d4:	10108020 10101010 10101010 10101010      ...............
9d00a0e4:	04040410 04040404 10040404 10101010     ................
9d00a0f4:	41411010 41414141 01010101 01010101     ..AAAAAA........
9d00a104:	01010101 01010101 01010101 10101010     ................
9d00a114:	42421010 42424242 02020202 02020202     ..BBBBBB........
9d00a124:	02020202 02020202 02020202 10101010     ................
9d00a134:	00000020 00000000 00000000 00000000      ...............
	...

Disassembly of section .text.__ldexpf:

9d00a1b8 <__ldexpf>:
9d00a1b8:	7c863dc0 	ext	a2,a0,0x17,0x8
9d00a1bc:	24c8ffff 	addiu	t0,a2,-1
9d00a1c0:	2d0800fe 	sltiu	t0,t0,254
9d00a1c4:	00044fc2 	srl	t1,a0,0x1f
9d00a1c8:	1100002b 	beqz	t0,9d00a278 <__ldexpf+0xc0>
9d00a1cc:	7c87b000 	ext	a3,a0,0x0,0x17
9d00a1d0:	24c6ff81 	addiu	a2,a2,-127
9d00a1d4:	3c020080 	lui	v0,0x80
9d00a1d8:	00e21025 	or	v0,a3,v0
9d00a1dc:	00c53021 	addu	a2,a2,a1
9d00a1e0:	24c3007f 	addiu	v1,a2,127
9d00a1e4:	18600018 	blez	v1,9d00a248 <__ldexpf+0x90>
9d00a1e8:	000210c0 	sll	v0,v0,0x3
9d00a1ec:	30440007 	andi	a0,v0,0x7
9d00a1f0:	1480000d 	bnez	a0,9d00a228 <__ldexpf+0x70>
9d00a1f4:	7c4400c0 	ext	a0,v0,0x3,0x1
9d00a1f8:	286400ff 	slti	a0,v1,255
9d00a1fc:	10800024 	beqz	a0,9d00a290 <__ldexpf+0xd8>
9d00a200:	000210c2 	srl	v0,v0,0x3
9d00a204:	7c4405c0 	ext	a0,v0,0x17,0x1
9d00a208:	50800002 	beqzl	a0,9d00a214 <__ldexpf+0x5c>
9d00a20c:	00001821 	move	v1,zero
9d00a210:	7c42b000 	ext	v0,v0,0x0,0x17
9d00a214:	00094a00 	sll	t1,t1,0x8
9d00a218:	00691825 	or	v1,v1,t1
9d00a21c:	00031dc0 	sll	v1,v1,0x17
9d00a220:	03e00008 	jr	ra
9d00a224:	00621025 	or	v0,v1,v0
9d00a228:	24420003 	addiu	v0,v0,3
9d00a22c:	00441021 	addu	v0,v0,a0
9d00a230:	000226c2 	srl	a0,v0,0x1b
9d00a234:	1080fff1 	beqz	a0,9d00a1fc <__ldexpf+0x44>
9d00a238:	286400ff 	slti	a0,v1,255
9d00a23c:	00021042 	srl	v0,v0,0x1
9d00a240:	0b40287e 	j	9d00a1f8 <__ldexpf+0x40>
9d00a244:	24630001 	addiu	v1,v1,1
9d00a248:	2403ff82 	li	v1,-126
9d00a24c:	00661823 	subu	v1,v1,a2
9d00a250:	2864001b 	slti	a0,v1,27
9d00a254:	50800012 	beqzl	a0,9d00a2a0 <__ldexpf+0xe8>
9d00a258:	00001021 	move	v0,zero
9d00a25c:	24c4009e 	addiu	a0,a2,158
9d00a260:	00822004 	sllv	a0,v0,a0
9d00a264:	00621006 	srlv	v0,v0,v1
9d00a268:	0004182b 	sltu	v1,zero,a0
9d00a26c:	00621025 	or	v0,v1,v0
9d00a270:	0b40287b 	j	9d00a1ec <__ldexpf+0x34>
9d00a274:	24030001 	li	v1,1
9d00a278:	14c00003 	bnez	a2,9d00a288 <__ldexpf+0xd0>
9d00a27c:	00000000 	nop
9d00a280:	14e00009 	bnez	a3,9d00a2a8 <__ldexpf+0xf0>
9d00a284:	70e31820 	clz	v1,a3
9d00a288:	03e00008 	jr	ra
9d00a28c:	00801021 	move	v0,a0
9d00a290:	00091200 	sll	v0,t1,0x8
9d00a294:	344200ff 	ori	v0,v0,0xff
9d00a298:	03e00008 	jr	ra
9d00a29c:	000215c0 	sll	v0,v0,0x17
9d00a2a0:	0b402885 	j	9d00a214 <__ldexpf+0x5c>
9d00a2a4:	00001821 	move	v1,zero
9d00a2a8:	2462fff8 	addiu	v0,v1,-8
9d00a2ac:	00471004 	sllv	v0,a3,v0
9d00a2b0:	2406ff8a 	li	a2,-118
9d00a2b4:	0b402877 	j	9d00a1dc <__ldexpf+0x24>
9d00a2b8:	00c33023 	subu	a2,a2,v1

Disassembly of section .text._flsbuf_simple:

9d00a2bc <_flsbuf_simple>:
9d00a2bc:	27bdffd8 	addiu	sp,sp,-40
9d00a2c0:	afbf0024 	sw	ra,36(sp)
9d00a2c4:	afb10020 	sw	s1,32(sp)
9d00a2c8:	afb0001c 	sw	s0,28(sp)
9d00a2cc:	00a08021 	move	s0,a1
9d00a2d0:	8ca2000c 	lw	v0,12(a1)
9d00a2d4:	1040002d 	beqz	v0,9d00a38c <_flsbuf_simple+0xd0>
9d00a2d8:	00808821 	move	s1,a0
9d00a2dc:	8ca20000 	lw	v0,0(a1)
9d00a2e0:	24420001 	addiu	v0,v0,1
9d00a2e4:	2403ffff 	li	v1,-1
9d00a2e8:	1043001e 	beq	v0,v1,9d00a364 <_flsbuf_simple+0xa8>
9d00a2ec:	aca20000 	sw	v0,0(a1)
9d00a2f0:	0f402b9f 	jal	9d00ae7c <_fflush_simple>
9d00a2f4:	02002021 	move	a0,s0
9d00a2f8:	8e040000 	lw	a0,0(s0)
9d00a2fc:	8e020004 	lw	v0,4(s0)
9d00a300:	2484ffff 	addiu	a0,a0,-1
9d00a304:	24430001 	addiu	v1,v0,1
9d00a308:	ae040000 	sw	a0,0(s0)
9d00a30c:	ae030004 	sw	v1,4(s0)
9d00a310:	a0510000 	sb	s1,0(v0)
9d00a314:	2402000a 	li	v0,10
9d00a318:	52220007 	beql	s1,v0,9d00a338 <_flsbuf_simple+0x7c>
9d00a31c:	96020010 	lhu	v0,16(s0)
9d00a320:	02201021 	move	v0,s1
9d00a324:	8fbf0024 	lw	ra,36(sp)
9d00a328:	8fb10020 	lw	s1,32(sp)
9d00a32c:	8fb0001c 	lw	s0,28(sp)
9d00a330:	03e00008 	jr	ra
9d00a334:	27bd0028 	addiu	sp,sp,40
9d00a338:	30420008 	andi	v0,v0,0x8
9d00a33c:	1040fff9 	beqz	v0,9d00a324 <_flsbuf_simple+0x68>
9d00a340:	02201021 	move	v0,s1
9d00a344:	0f402b9f 	jal	9d00ae7c <_fflush_simple>
9d00a348:	02002021 	move	a0,s0
9d00a34c:	02201021 	move	v0,s1
9d00a350:	8fbf0024 	lw	ra,36(sp)
9d00a354:	8fb10020 	lw	s1,32(sp)
9d00a358:	8fb0001c 	lw	s0,28(sp)
9d00a35c:	03e00008 	jr	ra
9d00a360:	27bd0028 	addiu	sp,sp,40
9d00a364:	8ca20008 	lw	v0,8(a1)
9d00a368:	1440ffe1 	bnez	v0,9d00a2f0 <_flsbuf_simple+0x34>
9d00a36c:	00000000 	nop
9d00a370:	94a20010 	lhu	v0,16(a1)
9d00a374:	aca00004 	sw	zero,4(a1)
9d00a378:	aca0000c 	sw	zero,12(a1)
9d00a37c:	34420010 	ori	v0,v0,0x10
9d00a380:	aca00000 	sw	zero,0(a1)
9d00a384:	0b4028bc 	j	9d00a2f0 <_flsbuf_simple+0x34>
9d00a388:	a4a20010 	sh	v0,16(a1)
9d00a38c:	27a40010 	addiu	a0,sp,16
9d00a390:	24050001 	li	a1,1
9d00a394:	0f402d68 	jal	9d00b5a0 <.LFE4>
9d00a398:	a3b10010 	sb	s1,16(sp)
9d00a39c:	ae000000 	sw	zero,0(s0)
9d00a3a0:	02201021 	move	v0,s1
9d00a3a4:	8fbf0024 	lw	ra,36(sp)
9d00a3a8:	8fb10020 	lw	s1,32(sp)
9d00a3ac:	8fb0001c 	lw	s0,28(sp)
9d00a3b0:	03e00008 	jr	ra
9d00a3b4:	27bd0028 	addiu	sp,sp,40

Disassembly of section .text.strchr:

9d00a3b8 <strchr>:
9d00a3b8:	30820003 	andi	v0,a0,0x3
9d00a3bc:	14400034 	bnez	v0,9d00a490 <strchr+0xd8>
9d00a3c0:	30a600ff 	andi	a2,a1,0xff
9d00a3c4:	30a500ff 	andi	a1,a1,0xff
9d00a3c8:	00054a00 	sll	t1,a1,0x8
9d00a3cc:	8c820000 	lw	v0,0(a0)
9d00a3d0:	01252825 	or	a1,t1,a1
9d00a3d4:	00054c00 	sll	t1,a1,0x10
9d00a3d8:	01254825 	or	t1,t1,a1
9d00a3dc:	01221826 	xor	v1,t1,v0
9d00a3e0:	3c05fefe 	lui	a1,0xfefe
9d00a3e4:	34a5feff 	ori	a1,a1,0xfeff
9d00a3e8:	00034027 	nor	t0,zero,v1
9d00a3ec:	00651821 	addu	v1,v1,a1
9d00a3f0:	00023827 	nor	a3,zero,v0
9d00a3f4:	00451021 	addu	v0,v0,a1
9d00a3f8:	01031824 	and	v1,t0,v1
9d00a3fc:	00e21024 	and	v0,a3,v0
9d00a400:	00621025 	or	v0,v1,v0
9d00a404:	3c0a8080 	lui	t2,0x8080
9d00a408:	354a8080 	ori	t2,t2,0x8080
9d00a40c:	004a1024 	and	v0,v0,t2
9d00a410:	54400020 	bnezl	v0,9d00a494 <strchr+0xdc>
9d00a414:	90820000 	lbu	v0,0(a0)
9d00a418:	24840004 	addiu	a0,a0,4
9d00a41c:	8c820000 	lw	v0,0(a0)
9d00a420:	01221826 	xor	v1,t1,v0
9d00a424:	00034027 	nor	t0,zero,v1
9d00a428:	00651821 	addu	v1,v1,a1
9d00a42c:	00023827 	nor	a3,zero,v0
9d00a430:	00451021 	addu	v0,v0,a1
9d00a434:	01031824 	and	v1,t0,v1
9d00a438:	00e21024 	and	v0,a3,v0
9d00a43c:	00621025 	or	v0,v1,v0
9d00a440:	004a1024 	and	v0,v0,t2
9d00a444:	54400013 	bnezl	v0,9d00a494 <strchr+0xdc>
9d00a448:	90820000 	lbu	v0,0(a0)
9d00a44c:	24840004 	addiu	a0,a0,4
9d00a450:	8c820000 	lw	v0,0(a0)
9d00a454:	01221826 	xor	v1,t1,v0
9d00a458:	00034027 	nor	t0,zero,v1
9d00a45c:	00651821 	addu	v1,v1,a1
9d00a460:	00023827 	nor	a3,zero,v0
9d00a464:	00451021 	addu	v0,v0,a1
9d00a468:	01031824 	and	v1,t0,v1
9d00a46c:	00e21024 	and	v0,a3,v0
9d00a470:	00621025 	or	v0,v1,v0
9d00a474:	004a1024 	and	v0,v0,t2
9d00a478:	5040ffe8 	beqzl	v0,9d00a41c <strchr+0x64>
9d00a47c:	24840004 	addiu	a0,a0,4
9d00a480:	0b402925 	j	9d00a494 <strchr+0xdc>
9d00a484:	90820000 	lbu	v0,0(a0)
9d00a488:	10400006 	beqz	v0,9d00a4a4 <strchr+0xec>
9d00a48c:	24840001 	addiu	a0,a0,1
9d00a490:	90820000 	lbu	v0,0(a0)
9d00a494:	1446fffc 	bne	v0,a2,9d00a488 <strchr+0xd0>
9d00a498:	00000000 	nop
9d00a49c:	03e00008 	jr	ra
9d00a4a0:	00801021 	move	v0,a0
9d00a4a4:	03e00008 	jr	ra
9d00a4a8:	00001021 	move	v0,zero

Disassembly of section .text._mon_getc:

9d00a4ac <_mon_getc>:
9d00a4ac:	27bdffe8 	addiu	sp,sp,-24
9d00a4b0:	afbf0014 	sw	ra,20(sp)
9d00a4b4:	3c02a000 	lui	v0,0xa000
9d00a4b8:	8c42000c 	lw	v0,12(v0)
9d00a4bc:	1440000a 	bnez	v0,9d00a4e8 <_mon_getc+0x3c>
9d00a4c0:	24030002 	li	v1,2
9d00a4c4:	3c020000 	lui	v0,0x0
9d00a4c8:	24420000 	addiu	v0,v0,0
9d00a4cc:	10400029 	beqz	v0,9d00a574 <_mon_getc+0xc8>
9d00a4d0:	3c020000 	lui	v0,0x0
9d00a4d4:	0c000000 	jal	90000000 <_bmxdkpba_address+0x8ffe0000>
9d00a4d8:	00000000 	nop
9d00a4dc:	8fbf0014 	lw	ra,20(sp)
9d00a4e0:	03e00008 	jr	ra
9d00a4e4:	27bd0018 	addiu	sp,sp,24
9d00a4e8:	1043001c 	beq	v0,v1,9d00a55c <_mon_getc+0xb0>
9d00a4ec:	3c02bf80 	lui	v0,0xbf80
9d00a4f0:	3c02bf80 	lui	v0,0xbf80
9d00a4f4:	8c426000 	lw	v0,24576(v0)
9d00a4f8:	3c05bf80 	lui	a1,0xbf80
9d00a4fc:	24a56030 	addiu	a1,a1,24624
9d00a500:	3c04bf80 	lui	a0,0xbf80
9d00a504:	24846010 	addiu	a0,a0,24592
9d00a508:	30428000 	andi	v0,v0,0x8000
9d00a50c:	14400003 	bnez	v0,9d00a51c <_mon_getc+0x70>
9d00a510:	34038000 	li	v1,0x8000
9d00a514:	3c02bf80 	lui	v0,0xbf80
9d00a518:	ac436008 	sw	v1,24584(v0)
9d00a51c:	8c820000 	lw	v0,0(a0)
9d00a520:	30420001 	andi	v0,v0,0x1
9d00a524:	14400009 	bnez	v0,9d00a54c <_mon_getc+0xa0>
9d00a528:	240200a0 	li	v0,160
9d00a52c:	0b40294f 	j	9d00a53c <_mon_getc+0x90>
9d00a530:	00000000 	nop
9d00a534:	10400005 	beqz	v0,9d00a54c <_mon_getc+0xa0>
9d00a538:	00000000 	nop
9d00a53c:	8c830000 	lw	v1,0(a0)
9d00a540:	30630001 	andi	v1,v1,0x1
9d00a544:	1060fffb 	beqz	v1,9d00a534 <_mon_getc+0x88>
9d00a548:	2442ffff 	addiu	v0,v0,-1
9d00a54c:	8ca20000 	lw	v0,0(a1)
9d00a550:	8fbf0014 	lw	ra,20(sp)
9d00a554:	03e00008 	jr	ra
9d00a558:	27bd0018 	addiu	sp,sp,24
9d00a55c:	8c426800 	lw	v0,26624(v0)
9d00a560:	3c05bf80 	lui	a1,0xbf80
9d00a564:	24a56830 	addiu	a1,a1,26672
9d00a568:	3c04bf80 	lui	a0,0xbf80
9d00a56c:	0b402942 	j	9d00a508 <_mon_getc+0x5c>
9d00a570:	24846810 	addiu	a0,a0,26640
9d00a574:	24420000 	addiu	v0,v0,0
9d00a578:	5040ffde 	beqzl	v0,9d00a4f4 <_mon_getc+0x48>
9d00a57c:	3c02bf80 	lui	v0,0xbf80
9d00a580:	0c000000 	jal	90000000 <_bmxdkpba_address+0x8ffe0000>
9d00a584:	00000000 	nop
9d00a588:	0b402938 	j	9d00a4e0 <_mon_getc+0x34>
9d00a58c:	8fbf0014 	lw	ra,20(sp)

Disassembly of section .text.general_exception:

9d00a590 <_general_exception_context>:
9d00a590:	27bdffa8 	addiu	sp,sp,-88
9d00a594:	afa10004 	sw	at,4(sp)
9d00a598:	afa20008 	sw	v0,8(sp)
9d00a59c:	afa3000c 	sw	v1,12(sp)
9d00a5a0:	afa40010 	sw	a0,16(sp)
9d00a5a4:	afa50014 	sw	a1,20(sp)
9d00a5a8:	afa60018 	sw	a2,24(sp)
9d00a5ac:	afa7001c 	sw	a3,28(sp)
9d00a5b0:	afa80020 	sw	t0,32(sp)
9d00a5b4:	afa90024 	sw	t1,36(sp)
9d00a5b8:	afaa0028 	sw	t2,40(sp)
9d00a5bc:	afab002c 	sw	t3,44(sp)
9d00a5c0:	afac0030 	sw	t4,48(sp)
9d00a5c4:	afad0034 	sw	t5,52(sp)
9d00a5c8:	afae0038 	sw	t6,56(sp)
9d00a5cc:	afaf003c 	sw	t7,60(sp)
9d00a5d0:	afb80040 	sw	t8,64(sp)
9d00a5d4:	afb90044 	sw	t9,68(sp)
9d00a5d8:	afbf0048 	sw	ra,72(sp)
9d00a5dc:	00004012 	mflo	t0
9d00a5e0:	afa8004c 	sw	t0,76(sp)
9d00a5e4:	00004010 	mfhi	t0
9d00a5e8:	afa80050 	sw	t0,80(sp)
9d00a5ec:	3c1a9d01 	lui	k0,0x9d01
9d00a5f0:	275ab634 	addiu	k0,k0,-18892
9d00a5f4:	00000000 	nop
9d00a5f8:	40046800 	mfc0	a0,c0_cause
9d00a5fc:	40056000 	mfc0	a1,c0_status
9d00a600:	0340f809 	jalr	k0
9d00a604:	00000000 	nop
9d00a608:	8fa80050 	lw	t0,80(sp)
9d00a60c:	01000011 	mthi	t0
9d00a610:	8fa8004c 	lw	t0,76(sp)
9d00a614:	01000013 	mtlo	t0
9d00a618:	8fa10004 	lw	at,4(sp)
9d00a61c:	8fa20008 	lw	v0,8(sp)
9d00a620:	8fa3000c 	lw	v1,12(sp)
9d00a624:	8fa40010 	lw	a0,16(sp)
9d00a628:	8fa50014 	lw	a1,20(sp)
9d00a62c:	8fa60018 	lw	a2,24(sp)
9d00a630:	8fa7001c 	lw	a3,28(sp)
9d00a634:	8fa80020 	lw	t0,32(sp)
9d00a638:	8fa90024 	lw	t1,36(sp)
9d00a63c:	8faa0028 	lw	t2,40(sp)
9d00a640:	8fab002c 	lw	t3,44(sp)
9d00a644:	8fac0030 	lw	t4,48(sp)
9d00a648:	8fad0034 	lw	t5,52(sp)
9d00a64c:	8fae0038 	lw	t6,56(sp)
9d00a650:	8faf003c 	lw	t7,60(sp)
9d00a654:	8fb80040 	lw	t8,64(sp)
9d00a658:	8fb90044 	lw	t9,68(sp)
9d00a65c:	8fbf0048 	lw	ra,72(sp)
9d00a660:	27bd0058 	addiu	sp,sp,88
9d00a664:	000000c0 	ehb
9d00a668:	42000018 	eret

Disassembly of section .text._mon_putc:

9d00a66c <_mon_putc>:
9d00a66c:	27bdffe8 	addiu	sp,sp,-24
9d00a670:	afbf0014 	sw	ra,20(sp)
9d00a674:	3c02a000 	lui	v0,0xa000
9d00a678:	8c42000c 	lw	v0,12(v0)
9d00a67c:	1440000a 	bnez	v0,9d00a6a8 <_mon_putc+0x3c>
9d00a680:	7c042420 	seb	a0,a0
9d00a684:	3c020000 	lui	v0,0x0
9d00a688:	24420000 	addiu	v0,v0,0
9d00a68c:	10400025 	beqz	v0,9d00a724 <_mon_putc+0xb8>
9d00a690:	3c020000 	lui	v0,0x0
9d00a694:	0c000000 	jal	90000000 <_bmxdkpba_address+0x8ffe0000>
9d00a698:	00000000 	nop
9d00a69c:	8fbf0014 	lw	ra,20(sp)
9d00a6a0:	03e00008 	jr	ra
9d00a6a4:	27bd0018 	addiu	sp,sp,24
9d00a6a8:	24030001 	li	v1,1
9d00a6ac:	10430015 	beq	v0,v1,9d00a704 <_mon_putc+0x98>
9d00a6b0:	3c05bf80 	lui	a1,0xbf80
9d00a6b4:	3c05bf80 	lui	a1,0xbf80
9d00a6b8:	24a56820 	addiu	a1,a1,26656
9d00a6bc:	3c02bf80 	lui	v0,0xbf80
9d00a6c0:	24426818 	addiu	v0,v0,26648
9d00a6c4:	3c06bf80 	lui	a2,0xbf80
9d00a6c8:	24c66808 	addiu	a2,a2,26632
9d00a6cc:	3c03bf80 	lui	v1,0xbf80
9d00a6d0:	24636810 	addiu	v1,v1,26640
9d00a6d4:	34078000 	li	a3,0x8000
9d00a6d8:	acc70000 	sw	a3,0(a2)
9d00a6dc:	24060400 	li	a2,1024
9d00a6e0:	ac460000 	sw	a2,0(v0)
9d00a6e4:	8c620000 	lw	v0,0(v1)
9d00a6e8:	30420100 	andi	v0,v0,0x100
9d00a6ec:	1040fffd 	beqz	v0,9d00a6e4 <_mon_putc+0x78>
9d00a6f0:	00000000 	nop
9d00a6f4:	aca40000 	sw	a0,0(a1)
9d00a6f8:	8fbf0014 	lw	ra,20(sp)
9d00a6fc:	03e00008 	jr	ra
9d00a700:	27bd0018 	addiu	sp,sp,24
9d00a704:	24a56020 	addiu	a1,a1,24608
9d00a708:	3c02bf80 	lui	v0,0xbf80
9d00a70c:	24426018 	addiu	v0,v0,24600
9d00a710:	3c06bf80 	lui	a2,0xbf80
9d00a714:	24c66008 	addiu	a2,a2,24584
9d00a718:	3c03bf80 	lui	v1,0xbf80
9d00a71c:	0b4029b5 	j	9d00a6d4 <_mon_putc+0x68>
9d00a720:	24636010 	addiu	v1,v1,24592
9d00a724:	24420000 	addiu	v0,v0,0
9d00a728:	1040ffe3 	beqz	v0,9d00a6b8 <_mon_putc+0x4c>
9d00a72c:	3c05bf80 	lui	a1,0xbf80
9d00a730:	0c000000 	jal	90000000 <_bmxdkpba_address+0x8ffe0000>
9d00a734:	00000000 	nop
9d00a738:	0b4029a8 	j	9d00a6a0 <_mon_putc+0x34>
9d00a73c:	8fbf0014 	lw	ra,20(sp)

Disassembly of section .text.libm:

9d00a740 <fpmodf>:
9d00a740:	00043dc2 30e700ff 3c088000 00043200     .=.....0...<.2..
9d00a750:	00c83025 01044024 240100ff 10e10028     %0..$@.....$(...
9d00a760:	00000000 00064825 00075025 00085825     ....%H..%P..%X..
9d00a770:	240c009e 01876023 19800006 00000000     ...$#`..........
9d00a780:	29810020 1020001c 00000000 01894806      ..).. ......H..
9d00a790:	01894804                                .H..

9d00a794 <Dlab3>:
9d00a794:	00096040 	sll	t4,t1,0x1
9d00a798:	000c6242 	srl	t4,t4,0x9
9d00a79c:	000a6dc0 	sll	t5,t2,0x17
9d00a7a0:	018d6025 	or	t4,t4,t5
9d00a7a4:	018b6825 	or	t5,t4,t3
9d00a7a8:	acad0000 	sw	t5,0(a1)
9d00a7ac:	00ea6023 	subu	t4,a3,t2
9d00a7b0:	2d810020 	sltiu	at,t4,32
9d00a7b4:	14200002 	bnez	at,9d00a7c0 <L2>
9d00a7b8:	00000000 	nop
9d00a7bc:	34090000 	li	t1,0x0

9d00a7c0 <L2>:
9d00a7c0:	01894806 	srlv	t1,t1,t4
9d00a7c4:	00c93023 	subu	a2,a2,t1
9d00a7c8:	10c00008 	beqz	a2,9d00a7ec <Dret2>
9d00a7cc:	00000000 	nop
9d00a7d0:	70cc6020 	clz	t4,a2
9d00a7d4:	00ec3823 	subu	a3,a3,t4
9d00a7d8:	01863004 	sllv	a2,a2,t4

9d00a7dc <Dret>:
9d00a7dc:	00063040 	sll	a2,a2,0x1
9d00a7e0:	00063242 	srl	a2,a2,0x9
9d00a7e4:	00076dc0 	sll	t5,a3,0x17
9d00a7e8:	00cd3025 	or	a2,a2,t5

9d00a7ec <Dret2>:
9d00a7ec:	00c81025 	or	v0,a2,t0

9d00a7f0 <D999>:
9d00a7f0:	03e00008 	jr	ra
9d00a7f4:	00000000 	nop

9d00a7f8 <Dzer>:
9d00a7f8:	1000fff8 	b	9d00a7dc <Dret>
9d00a7fc:	aca80000 	sw	t0,0(a1)

9d00a800 <Dinfnan>:
9d00a800:	3c04ffc0 	lui	a0,0xffc0
9d00a804:	aca40000 	sw	a0,0(a1)
9d00a808:	1000fff9 	b	9d00a7f0 <D999>
9d00a80c:	00041025 	or	v0,zero,a0
9d00a810:	00000000 	nop

Disassembly of section .text._sbrk:

9d00a814 <_sbrk>:
9d00a814:	27bdffe0 	addiu	sp,sp,-32
9d00a818:	afbf001c 	sw	ra,28(sp)
9d00a81c:	afb00018 	sw	s0,24(sp)
9d00a820:	3c10a000 	lui	s0,0xa000
9d00a824:	8e026474 	lw	v0,25716(s0)
9d00a828:	10400010 	beqz	v0,9d00a86c <_sbrk+0x58>
9d00a82c:	00000000 	nop
9d00a830:	1880001b 	blez	a0,9d00a8a0 <_sbrk+0x8c>
9d00a834:	00441821 	addu	v1,v0,a0
9d00a838:	0062202b 	sltu	a0,v1,v0
9d00a83c:	54800011 	bnezl	a0,9d00a884 <_sbrk+0x70>
9d00a840:	2403000c 	li	v1,12
9d00a844:	3c04a000 	lui	a0,0xa000
9d00a848:	8c846478 	lw	a0,25720(a0)
9d00a84c:	0083202b 	sltu	a0,a0,v1
9d00a850:	5480000c 	bnezl	a0,9d00a884 <_sbrk+0x70>
9d00a854:	2403000c 	li	v1,12
9d00a858:	ae036474 	sw	v1,25716(s0)
9d00a85c:	8fbf001c 	lw	ra,28(sp)
9d00a860:	8fb00018 	lw	s0,24(sp)
9d00a864:	03e00008 	jr	ra
9d00a868:	27bd0020 	addiu	sp,sp,32
9d00a86c:	0f402658 	jal	9d009960 <.LFE23>
9d00a870:	afa40010 	sw	a0,16(sp)
9d00a874:	8e026474 	lw	v0,25716(s0)
9d00a878:	1440ffed 	bnez	v0,9d00a830 <_sbrk+0x1c>
9d00a87c:	8fa40010 	lw	a0,16(sp)
9d00a880:	2403000c 	li	v1,12
9d00a884:	3c02a000 	lui	v0,0xa000
9d00a888:	ac430038 	sw	v1,56(v0)
9d00a88c:	2402ffff 	li	v0,-1
9d00a890:	8fbf001c 	lw	ra,28(sp)
9d00a894:	8fb00018 	lw	s0,24(sp)
9d00a898:	03e00008 	jr	ra
9d00a89c:	27bd0020 	addiu	sp,sp,32
9d00a8a0:	0043202b 	sltu	a0,v0,v1
9d00a8a4:	14800005 	bnez	a0,9d00a8bc <_sbrk+0xa8>
9d00a8a8:	3c04a000 	lui	a0,0xa000
9d00a8ac:	8c84647c 	lw	a0,25724(a0)
9d00a8b0:	0064202b 	sltu	a0,v1,a0
9d00a8b4:	5080ffe9 	beqzl	a0,9d00a85c <_sbrk+0x48>
9d00a8b8:	ae036474 	sw	v1,25716(s0)
9d00a8bc:	24030016 	li	v1,22
9d00a8c0:	3c02a000 	lui	v0,0xa000
9d00a8c4:	ac430038 	sw	v1,56(v0)
9d00a8c8:	2402ffff 	li	v0,-1
9d00a8cc:	8fbf001c 	lw	ra,28(sp)
9d00a8d0:	8fb00018 	lw	s0,24(sp)
9d00a8d4:	03e00008 	jr	ra
9d00a8d8:	27bd0020 	addiu	sp,sp,32

Disassembly of section .text.fputc:

9d00a8dc <fputc>:
9d00a8dc:	27bdffe0 	addiu	sp,sp,-32
9d00a8e0:	afbf001c 	sw	ra,28(sp)
9d00a8e4:	afb10018 	sw	s1,24(sp)
9d00a8e8:	afb00014 	sw	s0,20(sp)
9d00a8ec:	00a08021 	move	s0,a1
9d00a8f0:	8ca20018 	lw	v0,24(a1)
9d00a8f4:	00808821 	move	s1,a0
9d00a8f8:	24050001 	li	a1,1
9d00a8fc:	8c420010 	lw	v0,16(v0)
9d00a900:	0040f809 	jalr	v0
9d00a904:	02002021 	move	a0,s0
9d00a908:	1040000e 	beqz	v0,9d00a944 <fputc+0x68>
9d00a90c:	2402ffff 	li	v0,-1
9d00a910:	8e020000 	lw	v0,0(s0)
9d00a914:	2442ffff 	addiu	v0,v0,-1
9d00a918:	04400011 	bltz	v0,9d00a960 <fputc+0x84>
9d00a91c:	ae020000 	sw	v0,0(s0)
9d00a920:	96020010 	lhu	v0,16(s0)
9d00a924:	30420008 	andi	v0,v0,0x8
9d00a928:	1440000b 	bnez	v0,9d00a958 <fputc+0x7c>
9d00a92c:	2402000a 	li	v0,10
9d00a930:	8e030004 	lw	v1,4(s0)
9d00a934:	02201021 	move	v0,s1
9d00a938:	24640001 	addiu	a0,v1,1
9d00a93c:	ae040004 	sw	a0,4(s0)
9d00a940:	a0710000 	sb	s1,0(v1)
9d00a944:	8fbf001c 	lw	ra,28(sp)
9d00a948:	8fb10018 	lw	s1,24(sp)
9d00a94c:	8fb00014 	lw	s0,20(sp)
9d00a950:	03e00008 	jr	ra
9d00a954:	27bd0020 	addiu	sp,sp,32
9d00a958:	5622fff6 	bnel	s1,v0,9d00a934 <fputc+0x58>
9d00a95c:	8e030004 	lw	v1,4(s0)
9d00a960:	8e020018 	lw	v0,24(s0)
9d00a964:	02202021 	move	a0,s1
9d00a968:	8c420004 	lw	v0,4(v0)
9d00a96c:	0040f809 	jalr	v0
9d00a970:	02002821 	move	a1,s0
9d00a974:	8fbf001c 	lw	ra,28(sp)
9d00a978:	8fb10018 	lw	s1,24(sp)
9d00a97c:	8fb00014 	lw	s0,20(sp)
9d00a980:	03e00008 	jr	ra
9d00a984:	27bd0020 	addiu	sp,sp,32

Disassembly of section .text.fptodp:

9d00a988 <__extendsfdf2>:
9d00a988:	00043dc2 30e700ff 3c018000 00813024     .=.....0...<$0..
9d00a998:	24e9ffff 2d2100fe 1020000d 00000000     ...$..!-.. .....

9d00a9a8 <Glab1>:
9d00a9a8:	24e70380 	addiu	a3,a3,896
9d00a9ac:	00044a40 	sll	t1,a0,0x9
9d00a9b0:	00094b02 	srl	t1,t1,0xc
9d00a9b4:	00c93025 	or	a2,a2,t1
9d00a9b8:	00042f40 	sll	a1,a0,0x1d

9d00a9bc <Gret>:
9d00a9bc:	00074d00 	sll	t1,a3,0x14
9d00a9c0:	00c93025 	or	a2,a2,t1
9d00a9c4:	00051025 	or	v0,zero,a1
9d00a9c8:	00061825 	or	v1,zero,a2

9d00a9cc <G999>:
9d00a9cc:	03e00008 	jr	ra
9d00a9d0:	00000000 	nop
9d00a9d4:	00000000 	nop

9d00a9d8 <Gspec>:
9d00a9d8:	24050000 	li	a1,0
9d00a9dc:	00842021 	addu	a0,a0,a0
9d00a9e0:	1080fff6 	beqz	a0,9d00a9bc <Gret>
9d00a9e4:	00000000 	nop
9d00a9e8:	14e00009 	bnez	a3,9d00aa10 <i42>
9d00a9ec:	00000000 	nop

9d00a9f0 <b43>:
9d00a9f0:	24e7ffff 	addiu	a3,a3,-1
9d00a9f4:	00842021 	addu	a0,a0,a0
9d00a9f8:	3c010080 	lui	at,0x80
9d00a9fc:	0081082b 	sltu	at,a0,at
9d00aa00:	1420fffb 	bnez	at,9d00a9f0 <b43>
9d00aa04:	00000000 	nop
9d00aa08:	1000ffe7 	b	9d00a9a8 <Glab1>
9d00aa0c:	00000000 	nop

9d00aa10 <i42>:
9d00aa10:	240707ff 	li	a3,2047
9d00aa14:	3c01ff00 	lui	at,0xff00
9d00aa18:	34210001 	ori	at,at,0x1
9d00aa1c:	0081082b 	sltu	at,a0,at
9d00aa20:	1420ffe6 	bnez	at,9d00a9bc <Gret>
9d00aa24:	00000000 	nop
9d00aa28:	1000ffe4 	b	9d00a9bc <Gret>
9d00aa2c:	3c06fff8 	lui	a2,0xfff8
9d00aa30:	00000000 	nop

Disassembly of section .text._fullexit:

9d00aa34 <_fullexit>:
9d00aa34:	27bdffe0 	addiu	sp,sp,-32
9d00aa38:	afbf001c 	sw	ra,28(sp)
9d00aa3c:	afb20018 	sw	s2,24(sp)
9d00aa40:	afb10014 	sw	s1,20(sp)
9d00aa44:	afb00010 	sw	s0,16(sp)
9d00aa48:	3c10a000 	lui	s0,0xa000
9d00aa4c:	3c11a000 	lui	s1,0xa000
9d00aa50:	00809021 	move	s2,a0
9d00aa54:	0f402ef9 	jal	9d00bbe4 <_weak_pthread_mutex_lock>
9d00aa58:	26046480 	addiu	a0,s0,25728
9d00aa5c:	8e220008 	lw	v0,8(s1)
9d00aa60:	26046480 	addiu	a0,s0,25728
9d00aa64:	24030001 	li	v1,1
9d00aa68:	0f402efd 	jal	9d00bbf4 <_weak_pthread_mutex_unlock>
9d00aa6c:	ac430038 	sw	v1,56(v0)
9d00aa70:	8e220008 	lw	v0,8(s1)
9d00aa74:	8c500010 	lw	s0,16(v0)
9d00aa78:	5600000a 	bnezl	s0,9d00aaa4 <_fullexit+0x70>
9d00aa7c:	8e020004 	lw	v0,4(s0)
9d00aa80:	0b402ab0 	j	9d00aac0 <_fullexit+0x8c>
9d00aa84:	8c420034 	lw	v0,52(v0)
9d00aa88:	00031880 	sll	v1,v1,0x2
9d00aa8c:	02031821 	addu	v1,s0,v1
9d00aa90:	8c630000 	lw	v1,0(v1)
9d00aa94:	2442ffff 	addiu	v0,v0,-1
9d00aa98:	0060f809 	jalr	v1
9d00aa9c:	ae020004 	sw	v0,4(s0)
9d00aaa0:	8e020004 	lw	v0,4(s0)
9d00aaa4:	1c40fff8 	bgtz	v0,9d00aa88 <_fullexit+0x54>
9d00aaa8:	24430001 	addiu	v1,v0,1
9d00aaac:	8e100000 	lw	s0,0(s0)
9d00aab0:	5600fffc 	bnezl	s0,9d00aaa4 <_fullexit+0x70>
9d00aab4:	8e020004 	lw	v0,4(s0)
9d00aab8:	8e220008 	lw	v0,8(s1)
9d00aabc:	8c420034 	lw	v0,52(v0)
9d00aac0:	10400003 	beqz	v0,9d00aad0 <_fullexit+0x9c>
9d00aac4:	00000000 	nop
9d00aac8:	0040f809 	jalr	v0
9d00aacc:	00000000 	nop
9d00aad0:	0f402f21 	jal	9d00bc84 <.LFE0>
9d00aad4:	02402021 	move	a0,s2

Disassembly of section .text._o_init:

9d00aad8 <_o_init>:
9d00aad8:	27bdffe8 	addiu	sp,sp,-24
9d00aadc:	afbf0014 	sw	ra,20(sp)
9d00aae0:	afb00010 	sw	s0,16(sp)
9d00aae4:	00808021 	move	s0,a0
9d00aae8:	3c02a000 	lui	v0,0xa000
9d00aaec:	8c430008 	lw	v1,8(v0)
9d00aaf0:	8c820008 	lw	v0,8(a0)
9d00aaf4:	3c059d01 	lui	a1,0x9d01
9d00aaf8:	24a5b8dc 	addiu	a1,a1,-18212
9d00aafc:	1040001b 	beqz	v0,9d00ab6c <_o_init+0x94>
9d00ab00:	ac650034 	sw	a1,52(v1)
9d00ab04:	8e03000c 	lw	v1,12(s0)
9d00ab08:	50600004 	beqzl	v1,9d00ab1c <_o_init+0x44>
9d00ab0c:	96020010 	lhu	v0,16(s0)
9d00ab10:	8e020008 	lw	v0,8(s0)
9d00ab14:	ae020004 	sw	v0,4(s0)
9d00ab18:	96020010 	lhu	v0,16(s0)
9d00ab1c:	ae030000 	sw	v1,0(s0)
9d00ab20:	34430002 	ori	v1,v0,0x2
9d00ab24:	30441000 	andi	a0,v0,0x1000
9d00ab28:	10800006 	beqz	a0,9d00ab44 <_o_init+0x6c>
9d00ab2c:	a6030010 	sh	v1,16(s0)
9d00ab30:	30420008 	andi	v0,v0,0x8
9d00ab34:	14400007 	bnez	v0,9d00ab54 <_o_init+0x7c>
9d00ab38:	00000000 	nop
9d00ab3c:	3063efff 	andi	v1,v1,0xefff
9d00ab40:	a6030010 	sh	v1,16(s0)
9d00ab44:	8fbf0014 	lw	ra,20(sp)
9d00ab48:	8fb00010 	lw	s0,16(sp)
9d00ab4c:	03e00008 	jr	ra
9d00ab50:	27bd0018 	addiu	sp,sp,24
9d00ab54:	0f402f23 	jal	9d00bc8c <.LFE0>
9d00ab58:	86040012 	lh	a0,18(s0)
9d00ab5c:	1440fff7 	bnez	v0,9d00ab3c <_o_init+0x64>
9d00ab60:	96030010 	lhu	v1,16(s0)
9d00ab64:	0b402acf 	j	9d00ab3c <_o_init+0x64>
9d00ab68:	3063fff7 	andi	v1,v1,0xfff7
9d00ab6c:	0f402cc6 	jal	9d00b318 <_bufalloc>
9d00ab70:	00000000 	nop
9d00ab74:	0b402ac2 	j	9d00ab08 <_o_init+0x30>
9d00ab78:	8e03000c 	lw	v1,12(s0)

Disassembly of section .text.fpcmp:

9d00ab7c <__eqsf2>:
9d00ab7c:	2408fffe 00043040 00053840 00c74825     ...$@0..@8..%H..
9d00ab8c:	1120001b 00000000 3c01ff00 34210001     .. ........<..!4
9d00ab9c:	00c1082b 1020001a 00000000 3c01ff00     +..... ........<
9d00abac:	34210001 00e1082b 10200015 00000000     ..!4+..... .....
9d00abbc:	04810002 00063042 00063023              ....B0..#0..

9d00abc8 <i48>:
9d00abc8:	04a10002 	bgez	a1,9d00abd4 <i49>
9d00abcc:	00073842 	srl	a3,a3,0x1
9d00abd0:	00073823 	negu	a3,a3

9d00abd4 <i49>:
9d00abd4:	00c7082a 	slt	at,a2,a3
9d00abd8:	10200003 	beqz	at,9d00abe8 <i50>
9d00abdc:	00000000 	nop
9d00abe0:	10000007 	b	9d00ac00 <J999>
9d00abe4:	2402ffff 	li	v0,-1

9d00abe8 <i50>:
9d00abe8:	00e6082a 	slt	at,a3,a2
9d00abec:	10200003 	beqz	at,9d00abfc <Jequ>
9d00abf0:	00000000 	nop
9d00abf4:	10000002 	b	9d00ac00 <J999>
9d00abf8:	24020001 	li	v0,1

9d00abfc <Jequ>:
9d00abfc:	24020000 	li	v0,0

9d00ac00 <J999>:
9d00ac00:	03e00008 	jr	ra
9d00ac04:	00000000 	nop
9d00ac08:	00000000 	nop

9d00ac0c <Jnan>:
9d00ac0c:	1000fffc 	b	9d00ac00 <J999>
9d00ac10:	00081025 	or	v0,zero,t0
9d00ac14:	00000000 	nop

Disassembly of section .text.repl:

9d00ac18 <repl>:
9d00ac18:	27bdffd8 	addiu	sp,sp,-40
9d00ac1c:	afbf0024 	sw	ra,36(sp)
9d00ac20:	afb40020 	sw	s4,32(sp)
9d00ac24:	afb3001c 	sw	s3,28(sp)
9d00ac28:	afb20018 	sw	s2,24(sp)
9d00ac2c:	afb10014 	sw	s1,20(sp)
9d00ac30:	afb00010 	sw	s0,16(sp)
9d00ac34:	00a08021 	move	s0,a1
9d00ac38:	0080a021 	move	s4,a0
9d00ac3c:	00c09821 	move	s3,a2
9d00ac40:	24120020 	li	s2,32
9d00ac44:	2411ffff 	li	s1,-1
9d00ac48:	12000011 	beqz	s0,9d00ac90 <repl+0x78>
9d00ac4c:	2e020021 	sltiu	v0,s0,33
9d00ac50:	02401821 	move	v1,s2
9d00ac54:	0202180b 	movn	v1,s0,v0
9d00ac58:	02602021 	move	a0,s3
9d00ac5c:	00602821 	move	a1,v1
9d00ac60:	02803021 	move	a2,s4
9d00ac64:	0f402c92 	jal	9d00b248 <__sputn>
9d00ac68:	02038023 	subu	s0,s0,v1
9d00ac6c:	1451fff6 	bne	v0,s1,9d00ac48 <repl+0x30>
9d00ac70:	8fbf0024 	lw	ra,36(sp)
9d00ac74:	8fb40020 	lw	s4,32(sp)
9d00ac78:	8fb3001c 	lw	s3,28(sp)
9d00ac7c:	8fb20018 	lw	s2,24(sp)
9d00ac80:	8fb10014 	lw	s1,20(sp)
9d00ac84:	8fb00010 	lw	s0,16(sp)
9d00ac88:	03e00008 	jr	ra
9d00ac8c:	27bd0028 	addiu	sp,sp,40
9d00ac90:	00001021 	move	v0,zero
9d00ac94:	8fbf0024 	lw	ra,36(sp)
9d00ac98:	8fb40020 	lw	s4,32(sp)
9d00ac9c:	8fb3001c 	lw	s3,28(sp)
9d00aca0:	8fb20018 	lw	s2,24(sp)
9d00aca4:	8fb10014 	lw	s1,20(sp)
9d00aca8:	8fb00010 	lw	s0,16(sp)
9d00acac:	03e00008 	jr	ra
9d00acb0:	27bd0028 	addiu	sp,sp,40

Disassembly of section .text._eat_white:

9d00acb4 <_eat_white>:
9d00acb4:	27bdffe0 	addiu	sp,sp,-32
9d00acb8:	afbf001c 	sw	ra,28(sp)
9d00acbc:	afb20018 	sw	s2,24(sp)
9d00acc0:	afb10014 	sw	s1,20(sp)
9d00acc4:	afb00010 	sw	s0,16(sp)
9d00acc8:	00808021 	move	s0,a0
9d00accc:	2411ffff 	li	s1,-1
9d00acd0:	3c129d01 	lui	s2,0x9d01
9d00acd4:	0b402b3b 	j	9d00acec <_eat_white+0x38>
9d00acd8:	2652a0b5 	addiu	s2,s2,-24395
9d00acdc:	80630000 	lb	v1,0(v1)
9d00ace0:	30630088 	andi	v1,v1,0x88
9d00ace4:	50600010 	beqzl	v1,9d00ad28 <_eat_white+0x74>
9d00ace8:	8e030010 	lw	v1,16(s0)
9d00acec:	0f402ce0 	jal	9d00b380 <gsgetc>
9d00acf0:	02002021 	move	a0,s0
9d00acf4:	1451fff9 	bne	v0,s1,9d00acdc <_eat_white+0x28>
9d00acf8:	00521821 	addu	v1,v0,s2
9d00acfc:	8e030010 	lw	v1,16(s0)
9d00ad00:	ae110004 	sw	s1,4(s0)
9d00ad04:	2402ffff 	li	v0,-1
9d00ad08:	2463ffff 	addiu	v1,v1,-1
9d00ad0c:	ae030010 	sw	v1,16(s0)
9d00ad10:	8fbf001c 	lw	ra,28(sp)
9d00ad14:	8fb20018 	lw	s2,24(sp)
9d00ad18:	8fb10014 	lw	s1,20(sp)
9d00ad1c:	8fb00010 	lw	s0,16(sp)
9d00ad20:	03e00008 	jr	ra
9d00ad24:	27bd0020 	addiu	sp,sp,32
9d00ad28:	ae020004 	sw	v0,4(s0)
9d00ad2c:	00001021 	move	v0,zero
9d00ad30:	2463ffff 	addiu	v1,v1,-1
9d00ad34:	ae030010 	sw	v1,16(s0)
9d00ad38:	8fbf001c 	lw	ra,28(sp)
9d00ad3c:	8fb20018 	lw	s2,24(sp)
9d00ad40:	8fb10014 	lw	s1,20(sp)
9d00ad44:	8fb00010 	lw	s0,16(sp)
9d00ad48:	03e00008 	jr	ra
9d00ad4c:	27bd0020 	addiu	sp,sp,32

Disassembly of section .text._i_init:

9d00ad50 <_i_init>:
9d00ad50:	27bdffe8 	addiu	sp,sp,-24
9d00ad54:	afbf0014 	sw	ra,20(sp)
9d00ad58:	afb00010 	sw	s0,16(sp)
9d00ad5c:	8c820008 	lw	v0,8(a0)
9d00ad60:	1040001d 	beqz	v0,9d00add8 <_i_init+0x88>
9d00ad64:	00808021 	move	s0,a0
9d00ad68:	8e02000c 	lw	v0,12(s0)
9d00ad6c:	54400012 	bnezl	v0,9d00adb8 <_i_init+0x68>
9d00ad70:	8e020008 	lw	v0,8(s0)
9d00ad74:	2402ffff 	li	v0,-1
9d00ad78:	ae020004 	sw	v0,4(s0)
9d00ad7c:	96020010 	lhu	v0,16(s0)
9d00ad80:	ae000000 	sw	zero,0(s0)
9d00ad84:	34430001 	ori	v1,v0,0x1
9d00ad88:	30441000 	andi	a0,v0,0x1000
9d00ad8c:	10800006 	beqz	a0,9d00ada8 <_i_init+0x58>
9d00ad90:	a6030010 	sh	v1,16(s0)
9d00ad94:	30420008 	andi	v0,v0,0x8
9d00ad98:	14400009 	bnez	v0,9d00adc0 <_i_init+0x70>
9d00ad9c:	00000000 	nop
9d00ada0:	3063efff 	andi	v1,v1,0xefff
9d00ada4:	a6030010 	sh	v1,16(s0)
9d00ada8:	8fbf0014 	lw	ra,20(sp)
9d00adac:	8fb00010 	lw	s0,16(sp)
9d00adb0:	03e00008 	jr	ra
9d00adb4:	27bd0018 	addiu	sp,sp,24
9d00adb8:	0b402b5f 	j	9d00ad7c <_i_init+0x2c>
9d00adbc:	ae020004 	sw	v0,4(s0)
9d00adc0:	0f402f23 	jal	9d00bc8c <.LFE0>
9d00adc4:	86040012 	lh	a0,18(s0)
9d00adc8:	1440fff5 	bnez	v0,9d00ada0 <_i_init+0x50>
9d00adcc:	96030010 	lhu	v1,16(s0)
9d00add0:	0b402b68 	j	9d00ada0 <_i_init+0x50>
9d00add4:	3063fff7 	andi	v1,v1,0xfff7
9d00add8:	0f402cc6 	jal	9d00b318 <_bufalloc>
9d00addc:	00000000 	nop
9d00ade0:	0b402b5b 	j	9d00ad6c <_i_init+0x1c>
9d00ade4:	8e02000c 	lw	v0,12(s0)

Disassembly of section .text.strlen:

9d00ade8 <strlen>:
9d00ade8:	30830003 	andi	v1,a0,0x3
9d00adec:	1460001e 	bnez	v1,9d00ae68 <strlen+0x80>
9d00adf0:	00801021 	move	v0,a0
9d00adf4:	8c820000 	lw	v0,0(a0)
9d00adf8:	3c07fefe 	lui	a3,0xfefe
9d00adfc:	34e7feff 	ori	a3,a3,0xfeff
9d00ae00:	00471821 	addu	v1,v0,a3
9d00ae04:	00021027 	nor	v0,zero,v0
9d00ae08:	3c068080 	lui	a2,0x8080
9d00ae0c:	34c68080 	ori	a2,a2,0x8080
9d00ae10:	00621824 	and	v1,v1,v0
9d00ae14:	00661824 	and	v1,v1,a2
9d00ae18:	14600013 	bnez	v1,9d00ae68 <strlen+0x80>
9d00ae1c:	00801021 	move	v0,a0
9d00ae20:	24420004 	addiu	v0,v0,4
9d00ae24:	8c430000 	lw	v1,0(v0)
9d00ae28:	00672821 	addu	a1,v1,a3
9d00ae2c:	00031827 	nor	v1,zero,v1
9d00ae30:	00a31824 	and	v1,a1,v1
9d00ae34:	00661824 	and	v1,v1,a2
9d00ae38:	5460000c 	bnezl	v1,9d00ae6c <strlen+0x84>
9d00ae3c:	80430000 	lb	v1,0(v0)
9d00ae40:	24420004 	addiu	v0,v0,4
9d00ae44:	8c430000 	lw	v1,0(v0)
9d00ae48:	00672821 	addu	a1,v1,a3
9d00ae4c:	00031827 	nor	v1,zero,v1
9d00ae50:	00a31824 	and	v1,a1,v1
9d00ae54:	00661824 	and	v1,v1,a2
9d00ae58:	5060fff2 	beqzl	v1,9d00ae24 <strlen+0x3c>
9d00ae5c:	24420004 	addiu	v0,v0,4
9d00ae60:	0b402b9b 	j	9d00ae6c <strlen+0x84>
9d00ae64:	80430000 	lb	v1,0(v0)
9d00ae68:	80430000 	lb	v1,0(v0)
9d00ae6c:	5460fffe 	bnezl	v1,9d00ae68 <strlen+0x80>
9d00ae70:	24420001 	addiu	v0,v0,1
9d00ae74:	03e00008 	jr	ra
9d00ae78:	00441023 	subu	v0,v0,a0

Disassembly of section .text._fflush_simple:

9d00ae7c <_fflush_simple>:
9d00ae7c:	27bdffe8 	addiu	sp,sp,-24
9d00ae80:	afbf0014 	sw	ra,20(sp)
9d00ae84:	afb00010 	sw	s0,16(sp)
9d00ae88:	94820010 	lhu	v0,16(a0)
9d00ae8c:	30420002 	andi	v0,v0,0x2
9d00ae90:	10400013 	beqz	v0,9d00aee0 <_fflush_simple+0x64>
9d00ae94:	00808021 	move	s0,a0
9d00ae98:	8c850000 	lw	a1,0(a0)
9d00ae9c:	04a0000c 	bltz	a1,9d00aed0 <_fflush_simple+0x54>
9d00aea0:	00001021 	move	v0,zero
9d00aea4:	8c82000c 	lw	v0,12(a0)
9d00aea8:	50a20006 	beql	a1,v0,9d00aec4 <_fflush_simple+0x48>
9d00aeac:	8e030008 	lw	v1,8(s0)
9d00aeb0:	8c840008 	lw	a0,8(a0)
9d00aeb4:	0f402d68 	jal	9d00b5a0 <.LFE4>
9d00aeb8:	00452823 	subu	a1,v0,a1
9d00aebc:	8e02000c 	lw	v0,12(s0)
9d00aec0:	8e030008 	lw	v1,8(s0)
9d00aec4:	ae020000 	sw	v0,0(s0)
9d00aec8:	ae030004 	sw	v1,4(s0)
9d00aecc:	00001021 	move	v0,zero
9d00aed0:	8fbf0014 	lw	ra,20(sp)
9d00aed4:	8fb00010 	lw	s0,16(sp)
9d00aed8:	03e00008 	jr	ra
9d00aedc:	27bd0018 	addiu	sp,sp,24
9d00aee0:	2402ffff 	li	v0,-1
9d00aee4:	ac820004 	sw	v0,4(a0)
9d00aee8:	00001021 	move	v0,zero
9d00aeec:	8fbf0014 	lw	ra,20(sp)
9d00aef0:	8fb00010 	lw	s0,16(sp)
9d00aef4:	03e00008 	jr	ra
9d00aef8:	27bd0018 	addiu	sp,sp,24

Disassembly of section .text._fwrite_simple:

9d00aefc <_fwrite_simple>:
9d00aefc:	27bdffd8 	addiu	sp,sp,-40
9d00af00:	afbf0024 	sw	ra,36(sp)
9d00af04:	afb10020 	sw	s1,32(sp)
9d00af08:	afb0001c 	sw	s0,28(sp)
9d00af0c:	70c58002 	mul	s0,a2,a1
9d00af10:	12000007 	beqz	s0,9d00af30 <_fwrite_simple+0x34>
9d00af14:	00001021 	move	v0,zero
9d00af18:	94e30010 	lhu	v1,16(a3)
9d00af1c:	30630001 	andi	v1,v1,0x1
9d00af20:	10600008 	beqz	v1,9d00af44 <_fwrite_simple+0x48>
9d00af24:	3c03a000 	lui	v1,0xa000
9d00af28:	24040009 	li	a0,9
9d00af2c:	ac640038 	sw	a0,56(v1)
9d00af30:	8fbf0024 	lw	ra,36(sp)
9d00af34:	8fb10020 	lw	s1,32(sp)
9d00af38:	8fb0001c 	lw	s0,28(sp)
9d00af3c:	03e00008 	jr	ra
9d00af40:	27bd0028 	addiu	sp,sp,40
9d00af44:	00808821 	move	s1,a0
9d00af48:	00e02021 	move	a0,a3
9d00af4c:	0f402b9f 	jal	9d00ae7c <_fflush_simple>
9d00af50:	afa60010 	sw	a2,16(sp)
9d00af54:	02202021 	move	a0,s1
9d00af58:	0f402d68 	jal	9d00b5a0 <.LFE4>
9d00af5c:	02002821 	move	a1,s0
9d00af60:	8fa60010 	lw	a2,16(sp)
9d00af64:	00c01021 	move	v0,a2
9d00af68:	8fbf0024 	lw	ra,36(sp)
9d00af6c:	8fb10020 	lw	s1,32(sp)
9d00af70:	8fb0001c 	lw	s0,28(sp)
9d00af74:	03e00008 	jr	ra
9d00af78:	27bd0028 	addiu	sp,sp,40

Disassembly of section .text.fptoli:

9d00af7c <__fixsfsi>:
9d00af7c:	00042a00 3c018000 00a12825 00043dc2     .*.....<%(...=..
9d00af8c:	30e700ff 2406009e 00c73023 18c0000d     ...0...$#0......
9d00af9c:	00000000 28c10020 14200003 00000000     .... ..(.. .....
9d00afac:	10000005 24020000                       .......$

9d00afb4 <i42>:
9d00afb4:	04810002 	bgez	a0,9d00afc0 <i43>
9d00afb8:	00c52806 	srlv	a1,a1,a2
9d00afbc:	00052823 	negu	a1,a1

9d00afc0 <i43>:
9d00afc0:	00051025 	or	v0,zero,a1

9d00afc4 <G999>:
9d00afc4:	03e00008 	jr	ra
9d00afc8:	00000000 	nop
9d00afcc:	00000000 	nop

9d00afd0 <Gspec>:
9d00afd0:	3c017f80 	lui	at,0x7f80
9d00afd4:	34210001 	ori	at,at,0x1
9d00afd8:	0081082b 	sltu	at,a0,at
9d00afdc:	14200003 	bnez	at,9d00afec <i44>
9d00afe0:	00000000 	nop
9d00afe4:	1000fff7 	b	9d00afc4 <G999>
9d00afe8:	3c028000 	lui	v0,0x8000

9d00afec <i44>:
9d00afec:	3c027fff 	lui	v0,0x7fff
9d00aff0:	1000fff4 	b	9d00afc4 <G999>
9d00aff4:	3442ffff 	ori	v0,v0,0xffff
9d00aff8:	00000000 	nop

Disassembly of section .text.fptoul:

9d00affc <__fixunssfsi>:
9d00affc:	00042a00 3c018000 00a12825 00043dc2     .*.....<%(...=..
9d00b00c:	30e700ff 2406009e 00c73023 04c0000d     ...0...$#0......
9d00b01c:	00000000 28c10020 14200003 00000000     .... ..(.. .....
9d00b02c:	10000005 24020000                       .......$

9d00b034 <i45>:
9d00b034:	04810002 	bgez	a0,9d00b040 <i46>
9d00b038:	00c52806 	srlv	a1,a1,a2
9d00b03c:	00052823 	negu	a1,a1

9d00b040 <i46>:
9d00b040:	00051025 	or	v0,zero,a1

9d00b044 <I999>:
9d00b044:	03e00008 	jr	ra
9d00b048:	00000000 	nop
9d00b04c:	00000000 	nop

9d00b050 <Ispec>:
9d00b050:	3c017f80 	lui	at,0x7f80
9d00b054:	34210001 	ori	at,at,0x1
9d00b058:	0081082b 	sltu	at,a0,at
9d00b05c:	14200003 	bnez	at,9d00b06c <i47>
9d00b060:	00000000 	nop
9d00b064:	1000fff7 	b	9d00b044 <I999>
9d00b068:	3c028000 	lui	v0,0x8000

9d00b06c <i47>:
9d00b06c:	1000fff5 	b	9d00b044 <I999>
9d00b070:	2402ffff 	li	v0,-1
9d00b074:	00000000 	nop

Disassembly of section .text.fgetc:

9d00b078 <fgetc>:
9d00b078:	27bdffe8 	addiu	sp,sp,-24
9d00b07c:	afbf0014 	sw	ra,20(sp)
9d00b080:	afb00010 	sw	s0,16(sp)
9d00b084:	00808021 	move	s0,a0
9d00b088:	8c820018 	lw	v0,24(a0)
9d00b08c:	8c420010 	lw	v0,16(v0)
9d00b090:	0040f809 	jalr	v0
9d00b094:	24050002 	li	a1,2
9d00b098:	10400009 	beqz	v0,9d00b0c0 <fgetc+0x48>
9d00b09c:	2402ffff 	li	v0,-1
9d00b0a0:	8e020000 	lw	v0,0(s0)
9d00b0a4:	2442ffff 	addiu	v0,v0,-1
9d00b0a8:	04400009 	bltz	v0,9d00b0d0 <fgetc+0x58>
9d00b0ac:	ae020000 	sw	v0,0(s0)
9d00b0b0:	8e020004 	lw	v0,4(s0)
9d00b0b4:	24430001 	addiu	v1,v0,1
9d00b0b8:	ae030004 	sw	v1,4(s0)
9d00b0bc:	90420000 	lbu	v0,0(v0)
9d00b0c0:	8fbf0014 	lw	ra,20(sp)
9d00b0c4:	8fb00010 	lw	s0,16(sp)
9d00b0c8:	03e00008 	jr	ra
9d00b0cc:	27bd0018 	addiu	sp,sp,24
9d00b0d0:	8e020018 	lw	v0,24(s0)
9d00b0d4:	8c420000 	lw	v0,0(v0)
9d00b0d8:	0040f809 	jalr	v0
9d00b0dc:	02002021 	move	a0,s0
9d00b0e0:	8fbf0014 	lw	ra,20(sp)
9d00b0e4:	8fb00010 	lw	s0,16(sp)
9d00b0e8:	03e00008 	jr	ra
9d00b0ec:	27bd0018 	addiu	sp,sp,24

Disassembly of section .text.litodp:

9d00b0f0 <__floatsidf>:
9d00b0f0:	24050000 00054825 00053825 00043025     ...$%H..%8..%0..
9d00b100:	10c0000c 00000000 04c10006 00000000     ................
9d00b110:	3c098000 0005502b 00052823 00063023     ...<+P..#(..#0..
9d00b120:	00ca3023                                #0..

9d00b124 <i40>:
9d00b124:	2407041e 	li	a3,1054
9d00b128:	70c84020 	clz	t0,a2
9d00b12c:	00e83823 	subu	a3,a3,t0
9d00b130:	01063004 	sllv	a2,a2,t0

9d00b134 <i39>:
9d00b134:	000542c2 	srl	t0,a1,0xb
9d00b138:	00065540 	sll	t2,a2,0x15
9d00b13c:	010a4025 	or	t0,t0,t2
9d00b140:	00065040 	sll	t2,a2,0x1
9d00b144:	000a5302 	srl	t2,t2,0xc
9d00b148:	012a4825 	or	t1,t1,t2
9d00b14c:	00075500 	sll	t2,a3,0x14
9d00b150:	012a4825 	or	t1,t1,t2
9d00b154:	00081025 	or	v0,zero,t0
9d00b158:	00091825 	or	v1,zero,t1

9d00b15c <E999>:
9d00b15c:	03e00008 	jr	ra
9d00b160:	00000000 	nop
9d00b164:	00000000 	nop

Disassembly of section .text._sscanf_cdfFnopuxX:

9d00b168 <_sscanf_cdfFnopuxX>:
9d00b168:	27bdffc0 	addiu	sp,sp,-64
9d00b16c:	afbf003c 	sw	ra,60(sp)
9d00b170:	afb00038 	sw	s0,56(sp)
9d00b174:	00808021 	move	s0,a0
9d00b178:	afa60048 	sw	a2,72(sp)
9d00b17c:	afa7004c 	sw	a3,76(sp)
9d00b180:	2402ffff 	li	v0,-1
9d00b184:	a7a20022 	sh	v0,34(sp)
9d00b188:	24020081 	li	v0,129
9d00b18c:	a7a20020 	sh	v0,32(sp)
9d00b190:	0f402b7a 	jal	9d00ade8 <strlen>
9d00b194:	afa50030 	sw	a1,48(sp)
9d00b198:	27a30048 	addiu	v1,sp,72
9d00b19c:	27a40010 	addiu	a0,sp,16
9d00b1a0:	8fa50030 	lw	a1,48(sp)
9d00b1a4:	00603021 	move	a2,v1
9d00b1a8:	afa20010 	sw	v0,16(sp)
9d00b1ac:	afa2001c 	sw	v0,28(sp)
9d00b1b0:	afb00018 	sw	s0,24(sp)
9d00b1b4:	afb00014 	sw	s0,20(sp)
9d00b1b8:	3c029d01 	lui	v0,0x9d01
9d00b1bc:	2442bb60 	addiu	v0,v0,-17568
9d00b1c0:	afa20028 	sw	v0,40(sp)
9d00b1c4:	0f400780 	jal	9d001e00 <do_scan>
9d00b1c8:	afa3002c 	sw	v1,44(sp)
9d00b1cc:	8fbf003c 	lw	ra,60(sp)
9d00b1d0:	8fb00038 	lw	s0,56(sp)
9d00b1d4:	03e00008 	jr	ra
9d00b1d8:	27bd0040 	addiu	sp,sp,64

Disassembly of section .text._sprintf_cdfFnopuxX:

9d00b1dc <_sprintf_cdfFnopuxX>:
9d00b1dc:	27bdffc8 	addiu	sp,sp,-56
9d00b1e0:	afbf0034 	sw	ra,52(sp)
9d00b1e4:	27a20040 	addiu	v0,sp,64
9d00b1e8:	00801821 	move	v1,a0
9d00b1ec:	afa60040 	sw	a2,64(sp)
9d00b1f0:	27a40010 	addiu	a0,sp,16
9d00b1f4:	00403021 	move	a2,v0
9d00b1f8:	afa70044 	sw	a3,68(sp)
9d00b1fc:	2407ffff 	li	a3,-1
9d00b200:	a7a70022 	sh	a3,34(sp)
9d00b204:	24070082 	li	a3,130
9d00b208:	a7a70020 	sh	a3,32(sp)
9d00b20c:	3c077fff 	lui	a3,0x7fff
9d00b210:	34e7fffe 	ori	a3,a3,0xfffe
9d00b214:	afa70010 	sw	a3,16(sp)
9d00b218:	afa30018 	sw	v1,24(sp)
9d00b21c:	afa30014 	sw	v1,20(sp)
9d00b220:	3c039d01 	lui	v1,0x9d01
9d00b224:	2463bb60 	addiu	v1,v1,-17568
9d00b228:	afa30028 	sw	v1,40(sp)
9d00b22c:	0f400a87 	jal	9d002a1c <_do_print_cdfFnopuxX>
9d00b230:	afa2002c 	sw	v0,44(sp)
9d00b234:	8fa30014 	lw	v1,20(sp)
9d00b238:	a0600000 	sb	zero,0(v1)
9d00b23c:	8fbf0034 	lw	ra,52(sp)
9d00b240:	03e00008 	jr	ra
9d00b244:	27bd0038 	addiu	sp,sp,56

Disassembly of section .text.__sputn:

9d00b248 <__sputn>:
9d00b248:	27bdffd8 	addiu	sp,sp,-40
9d00b24c:	afbf0024 	sw	ra,36(sp)
9d00b250:	afb30020 	sw	s3,32(sp)
9d00b254:	afb2001c 	sw	s2,28(sp)
9d00b258:	afb10018 	sw	s1,24(sp)
9d00b25c:	afb00014 	sw	s0,20(sp)
9d00b260:	00808021 	move	s0,a0
9d00b264:	00c09021 	move	s2,a2
9d00b268:	00858821 	addu	s1,a0,a1
9d00b26c:	0b402ca2 	j	9d00b288 <__sputn+0x40>
9d00b270:	2413ffff 	li	s3,-1
9d00b274:	26100001 	addiu	s0,s0,1
9d00b278:	0f402a37 	jal	9d00a8dc <.LFE3>
9d00b27c:	8204ffff 	lb	a0,-1(s0)
9d00b280:	10530005 	beq	v0,s3,9d00b298 <__sputn+0x50>
9d00b284:	8fbf0024 	lw	ra,36(sp)
9d00b288:	1611fffa 	bne	s0,s1,9d00b274 <__sputn+0x2c>
9d00b28c:	02402821 	move	a1,s2
9d00b290:	00001021 	move	v0,zero
9d00b294:	8fbf0024 	lw	ra,36(sp)
9d00b298:	8fb30020 	lw	s3,32(sp)
9d00b29c:	8fb2001c 	lw	s2,28(sp)
9d00b2a0:	8fb10018 	lw	s1,24(sp)
9d00b2a4:	8fb00014 	lw	s0,20(sp)
9d00b2a8:	03e00008 	jr	ra
9d00b2ac:	27bd0028 	addiu	sp,sp,40

Disassembly of section .text.memmove:

9d00b2b0 <memmove>:
9d00b2b0:	27bdffe8 	addiu	sp,sp,-24
9d00b2b4:	0085102b 	sltu	v0,a0,a1
9d00b2b8:	14400012 	bnez	v0,9d00b304 <memmove+0x54>
9d00b2bc:	afbf0014 	sw	ra,20(sp)
9d00b2c0:	00a61021 	addu	v0,a1,a2
9d00b2c4:	0082102b 	sltu	v0,a0,v0
9d00b2c8:	1040000e 	beqz	v0,9d00b304 <memmove+0x54>
9d00b2cc:	24c2ffff 	addiu	v0,a2,-1
9d00b2d0:	00821821 	addu	v1,a0,v0
9d00b2d4:	00a22821 	addu	a1,a1,v0
9d00b2d8:	10c00006 	beqz	a2,9d00b2f4 <memmove+0x44>
9d00b2dc:	00663823 	subu	a3,v1,a2
9d00b2e0:	24a5ffff 	addiu	a1,a1,-1
9d00b2e4:	90a60001 	lbu	a2,1(a1)
9d00b2e8:	2463ffff 	addiu	v1,v1,-1
9d00b2ec:	1467fffc 	bne	v1,a3,9d00b2e0 <memmove+0x30>
9d00b2f0:	a0660001 	sb	a2,1(v1)
9d00b2f4:	00801021 	move	v0,a0
9d00b2f8:	8fbf0014 	lw	ra,20(sp)
9d00b2fc:	03e00008 	jr	ra
9d00b300:	27bd0018 	addiu	sp,sp,24
9d00b304:	0f402e43 	jal	9d00b90c <memcpy>
9d00b308:	00000000 	nop
9d00b30c:	8fbf0014 	lw	ra,20(sp)
9d00b310:	03e00008 	jr	ra
9d00b314:	27bd0018 	addiu	sp,sp,24

Disassembly of section .text._bufalloc:

9d00b318 <_bufalloc>:
9d00b318:	27bdffe8 	addiu	sp,sp,-24
9d00b31c:	afbf0014 	sw	ra,20(sp)
9d00b320:	afb00010 	sw	s0,16(sp)
9d00b324:	00808021 	move	s0,a0
9d00b328:	8c84000c 	lw	a0,12(a0)
9d00b32c:	5880000e 	blezl	a0,9d00b368 <_bufalloc+0x50>
9d00b330:	ae00000c 	sw	zero,12(s0)
9d00b334:	0f400d37 	jal	9d0034dc <malloc>
9d00b338:	00000000 	nop
9d00b33c:	10400009 	beqz	v0,9d00b364 <_bufalloc+0x4c>
9d00b340:	ae020008 	sw	v0,8(s0)
9d00b344:	96030010 	lhu	v1,16(s0)
9d00b348:	ae020004 	sw	v0,4(s0)
9d00b34c:	34620010 	ori	v0,v1,0x10
9d00b350:	a6020010 	sh	v0,16(s0)
9d00b354:	8fbf0014 	lw	ra,20(sp)
9d00b358:	8fb00010 	lw	s0,16(sp)
9d00b35c:	03e00008 	jr	ra
9d00b360:	27bd0018 	addiu	sp,sp,24
9d00b364:	ae00000c 	sw	zero,12(s0)
9d00b368:	2402ffff 	li	v0,-1
9d00b36c:	ae020004 	sw	v0,4(s0)
9d00b370:	8fbf0014 	lw	ra,20(sp)
9d00b374:	8fb00010 	lw	s0,16(sp)
9d00b378:	03e00008 	jr	ra
9d00b37c:	27bd0018 	addiu	sp,sp,24

Disassembly of section .text.gsgetc:

9d00b380 <gsgetc>:
9d00b380:	27bdffe0 	addiu	sp,sp,-32
9d00b384:	afbf001c 	sw	ra,28(sp)
9d00b388:	afb10018 	sw	s1,24(sp)
9d00b38c:	afb00014 	sw	s0,20(sp)
9d00b390:	8c820004 	lw	v0,4(a0)
9d00b394:	2411ffff 	li	s1,-1
9d00b398:	1051000a 	beq	v0,s1,9d00b3c4 <gsgetc+0x44>
9d00b39c:	00808021 	move	s0,a0
9d00b3a0:	ac910004 	sw	s1,4(a0)
9d00b3a4:	8e030010 	lw	v1,16(s0)
9d00b3a8:	24630001 	addiu	v1,v1,1
9d00b3ac:	ae030010 	sw	v1,16(s0)
9d00b3b0:	8fbf001c 	lw	ra,28(sp)
9d00b3b4:	8fb10018 	lw	s1,24(sp)
9d00b3b8:	8fb00014 	lw	s0,20(sp)
9d00b3bc:	03e00008 	jr	ra
9d00b3c0:	27bd0020 	addiu	sp,sp,32
9d00b3c4:	0f402c1e 	jal	9d00b078 <fgetc>
9d00b3c8:	8c840000 	lw	a0,0(a0)
9d00b3cc:	1451fff5 	bne	v0,s1,9d00b3a4 <gsgetc+0x24>
9d00b3d0:	8fbf001c 	lw	ra,28(sp)
9d00b3d4:	8fb10018 	lw	s1,24(sp)
9d00b3d8:	8fb00014 	lw	s0,20(sp)
9d00b3dc:	03e00008 	jr	ra
9d00b3e0:	27bd0020 	addiu	sp,sp,32

Disassembly of section .text._buffree:

9d00b3e4 <_buffree>:
9d00b3e4:	27bdffe8 	addiu	sp,sp,-24
9d00b3e8:	afbf0014 	sw	ra,20(sp)
9d00b3ec:	afb00010 	sw	s0,16(sp)
9d00b3f0:	00808021 	move	s0,a0
9d00b3f4:	8c840008 	lw	a0,8(a0)
9d00b3f8:	10800010 	beqz	a0,9d00b43c <_buffree+0x58>
9d00b3fc:	8fbf0014 	lw	ra,20(sp)
9d00b400:	96020010 	lhu	v0,16(s0)
9d00b404:	30420010 	andi	v0,v0,0x10
9d00b408:	5040000d 	beqzl	v0,9d00b440 <_buffree+0x5c>
9d00b40c:	8fb00010 	lw	s0,16(sp)
9d00b410:	0f4020ff 	jal	9d0083fc <free>
9d00b414:	00000000 	nop
9d00b418:	96020010 	lhu	v0,16(s0)
9d00b41c:	ae000008 	sw	zero,8(s0)
9d00b420:	3042ffe7 	andi	v0,v0,0xffe7
9d00b424:	ae00000c 	sw	zero,12(s0)
9d00b428:	ae000000 	sw	zero,0(s0)
9d00b42c:	2403ffff 	li	v1,-1
9d00b430:	ae030004 	sw	v1,4(s0)
9d00b434:	a6020010 	sh	v0,16(s0)
9d00b438:	8fbf0014 	lw	ra,20(sp)
9d00b43c:	8fb00010 	lw	s0,16(sp)
9d00b440:	03e00008 	jr	ra
9d00b444:	27bd0018 	addiu	sp,sp,24

Disassembly of section .text.sitofp:

9d00b448 <__floatsisf>:
9d00b448:	3c018000 10800012 00813024 04810002     ...<....$0......
9d00b458:	00000000 00042023                       ....# ..

9d00b460 <i40>:
9d00b460:	2405009e 	li	a1,158
9d00b464:	70873820 	clz	a3,a0
9d00b468:	00a72823 	subu	a1,a1,a3
9d00b46c:	00e42004 	sllv	a0,a0,a3
9d00b470:	24840080 	addiu	a0,a0,128
9d00b474:	2c880080 	sltiu	t0,a0,128
9d00b478:	00a82821 	addu	a1,a1,t0
9d00b47c:	00044203 	sra	t0,a0,0x8
9d00b480:	31080001 	andi	t0,t0,0x1
9d00b484:	00882023 	subu	a0,a0,t0
9d00b488:	00042040 	sll	a0,a0,0x1
9d00b48c:	00042242 	srl	a0,a0,0x9
9d00b490:	000545c0 	sll	t0,a1,0x17
9d00b494:	00882025 	or	a0,a0,t0

9d00b498 <i39>:
9d00b498:	00861025 	or	v0,a0,a2

9d00b49c <E999>:
9d00b49c:	03e00008 	jr	ra
9d00b4a0:	00000000 	nop
9d00b4a4:	00000000 	nop

Disassembly of section .text.main_entry:

9d00b4a8 <_main_entry>:
9d00b4a8:	3c040000 	lui	a0,0x0
9d00b4ac:	27bdffe8 	addiu	sp,sp,-24
9d00b4b0:	24840000 	addiu	a0,a0,0
9d00b4b4:	10800003 	beqz	a0,9d00b4c4 <_main_entry+0x1c>
9d00b4b8:	afbf0014 	sw	ra,20(sp)
9d00b4bc:	0080f809 	jalr	a0
9d00b4c0:	00000000 	nop
9d00b4c4:	30840000 	andi	a0,a0,0x0
9d00b4c8:	30a50000 	andi	a1,a1,0x0
9d00b4cc:	3c089d00 	lui	t0,0x9d00
9d00b4d0:	25087e7c 	addiu	t0,t0,32380
9d00b4d4:	0100f809 	jalr	t0
9d00b4d8:	00000000 	nop

9d00b4dc <__crt0_exit>:
9d00b4dc:	3c020000 24420000 10400003 00000000     ...<..B$..@.....
9d00b4ec:	0040f809 00000000 1000fff9 00000000     ..@.............

Disassembly of section .rodata:

9d00b4fc <zeroData-0x8>:
9d00b4fc:	6c756e28 	0x6c756e28
9d00b500:	0000296c 	0x296c

9d00b504 <zeroData>:
9d00b504:	30303030 30303030 30303030 30303030     0000000000000000
9d00b514:	30303030 30303030 30303030 30303030     0000000000000000

9d00b524 <spaceData>:
9d00b524:	20202020 20202020 20202020 20202020                     
9d00b534:	20202020 20202020 20202020 20202020                     
9d00b544:	41200000 3c23d70a 40800000              .. A..#<...@

Disassembly of section .text.sbrk:

9d00b550 <sbrk>:
9d00b550:	27bdffe0 	addiu	sp,sp,-32
9d00b554:	afbf001c 	sw	ra,28(sp)
9d00b558:	afb10018 	sw	s1,24(sp)
9d00b55c:	afb00014 	sw	s0,20(sp)
9d00b560:	0f402a05 	jal	9d00a814 <_sbrk>
9d00b564:	00808821 	move	s1,a0
9d00b568:	1a200007 	blez	s1,9d00b588 <sbrk+0x38>
9d00b56c:	00408021 	move	s0,v0
9d00b570:	2402ffff 	li	v0,-1
9d00b574:	12020004 	beq	s0,v0,9d00b588 <sbrk+0x38>
9d00b578:	02002021 	move	a0,s0
9d00b57c:	00002821 	move	a1,zero
9d00b580:	0f402e63 	jal	9d00b98c <memset>
9d00b584:	02203021 	move	a2,s1
9d00b588:	02001021 	move	v0,s0
9d00b58c:	8fbf001c 	lw	ra,28(sp)
9d00b590:	8fb10018 	lw	s1,24(sp)
9d00b594:	8fb00014 	lw	s0,20(sp)
9d00b598:	03e00008 	jr	ra
9d00b59c:	27bd0020 	addiu	sp,sp,32

Disassembly of section .text._mon_write:

9d00b5a0 <_mon_write>:
9d00b5a0:	27bdffe0 	addiu	sp,sp,-32
9d00b5a4:	afbf001c 	sw	ra,28(sp)
9d00b5a8:	afb10018 	sw	s1,24(sp)
9d00b5ac:	afb00014 	sw	s0,20(sp)
9d00b5b0:	10800009 	beqz	a0,9d00b5d8 <_mon_write+0x38>
9d00b5b4:	00808021 	move	s0,a0
9d00b5b8:	10a00007 	beqz	a1,9d00b5d8 <_mon_write+0x38>
9d00b5bc:	00a08821 	move	s1,a1
9d00b5c0:	82040000 	lb	a0,0(s0)
9d00b5c4:	2631ffff 	addiu	s1,s1,-1
9d00b5c8:	0f40299b 	jal	9d00a66c <_mon_putc>
9d00b5cc:	26100001 	addiu	s0,s0,1
9d00b5d0:	5620fffc 	bnezl	s1,9d00b5c4 <_mon_write+0x24>
9d00b5d4:	82040000 	lb	a0,0(s0)
9d00b5d8:	8fbf001c 	lw	ra,28(sp)
9d00b5dc:	8fb10018 	lw	s1,24(sp)
9d00b5e0:	8fb00014 	lw	s0,20(sp)
9d00b5e4:	03e00008 	jr	ra
9d00b5e8:	27bd0020 	addiu	sp,sp,32

Disassembly of section .text._bootstrap_exception_handler:

9d00b5ec <_bootstrap_exception_handler>:
9d00b5ec:	3c020000 	lui	v0,0x0
9d00b5f0:	24420000 	addiu	v0,v0,0
9d00b5f4:	10400005 	beqz	v0,9d00b60c <_bootstrap_exception_handler+0x20>
9d00b5f8:	3c020000 	lui	v0,0x0
9d00b5fc:	24420000 	addiu	v0,v0,0
9d00b600:	10400003 	beqz	v0,9d00b610 <_bootstrap_exception_handler+0x24>
9d00b604:	3c029d01 	lui	v0,0x9d01
9d00b608:	7000003f 	sdbbp
9d00b60c:	3c029d01 	lui	v0,0x9d01
9d00b610:	2442b70c 	addiu	v0,v0,-18676
9d00b614:	10400005 	beqz	v0,9d00b62c <_bootstrap_exception_handler+0x40>
9d00b618:	00000000 	nop
9d00b61c:	27bdffe8 	addiu	sp,sp,-24
9d00b620:	afbf0014 	sw	ra,20(sp)
9d00b624:	0040f809 	jalr	v0
9d00b628:	00000000 	nop
9d00b62c:	0b402d8b 	j	9d00b62c <_bootstrap_exception_handler+0x40>
9d00b630:	00000000 	nop

Disassembly of section .text._general_exception_handler:

9d00b634 <_general_exception_handler>:
9d00b634:	3c020000 	lui	v0,0x0
9d00b638:	24420000 	addiu	v0,v0,0
9d00b63c:	10400005 	beqz	v0,9d00b654 <_general_exception_handler+0x20>
9d00b640:	3c020000 	lui	v0,0x0
9d00b644:	24420000 	addiu	v0,v0,0
9d00b648:	10400003 	beqz	v0,9d00b658 <_general_exception_handler+0x24>
9d00b64c:	3c029d01 	lui	v0,0x9d01
9d00b650:	7000003f 	sdbbp
9d00b654:	3c029d01 	lui	v0,0x9d01
9d00b658:	2442b70c 	addiu	v0,v0,-18676
9d00b65c:	10400005 	beqz	v0,9d00b674 <_general_exception_handler+0x40>
9d00b660:	00000000 	nop
9d00b664:	27bdffe8 	addiu	sp,sp,-24
9d00b668:	afbf0014 	sw	ra,20(sp)
9d00b66c:	0040f809 	jalr	v0
9d00b670:	00000000 	nop
9d00b674:	0b402d9d 	j	9d00b674 <_general_exception_handler+0x40>
9d00b678:	00000000 	nop

Disassembly of section .vector_default:

9d00b67c <_DefaultInterrupt>:
9d00b67c:	3c020000 	lui	v0,0x0
9d00b680:	24420000 	addiu	v0,v0,0
9d00b684:	10400007 	beqz	v0,9d00b6a4 <_DefaultInterrupt+0x28>
9d00b688:	3c020000 	lui	v0,0x0
9d00b68c:	24420000 	addiu	v0,v0,0
9d00b690:	50400005 	beqzl	v0,9d00b6a8 <_DefaultInterrupt+0x2c>
9d00b694:	3c029d01 	lui	v0,0x9d01
9d00b698:	7000003f 	sdbbp
9d00b69c:	03e00008 	jr	ra
9d00b6a0:	00000000 	nop
9d00b6a4:	3c029d01 	lui	v0,0x9d01
9d00b6a8:	2442b70c 	addiu	v0,v0,-18676
9d00b6ac:	10400003 	beqz	v0,9d00b6bc <_DefaultInterrupt+0x40>
9d00b6b0:	00000000 	nop
9d00b6b4:	0040f809 	jalr	v0
9d00b6b8:	00000000 	nop
9d00b6bc:	03e00008 	jr	ra
9d00b6c0:	00000000 	nop

Disassembly of section .rodata:

9d00b6c4 <f5pow>:
9d00b6c4:	00000000 40140000 00000000 40390000     .......@......9@
9d00b6d4:	00000000 40838800 00000000 4117d784     .......@.......A
9d00b6e4:	37e08000 4241c379 b5056e17 4493b8b5     ...7y.AB.n.....D
9d00b6f4:	e93ff9f5 49384f03 f9301d32 52827748     ..?..O8I2.0.Hw.R
9d00b704:	7f73bf3c 65154fdd                       <.s..O.e

Disassembly of section .text:

9d00b70c <__pic32_software_reset>:
9d00b70c:	41606000 	di
9d00b710:	000000c0 	ehb
9d00b714:	3c03aa99 	lui	v1,0xaa99
9d00b718:	3c02bf81 	lui	v0,0xbf81
9d00b71c:	24636655 	addiu	v1,v1,26197
9d00b720:	ac40f230 	sw	zero,-3536(v0)
9d00b724:	ac43f230 	sw	v1,-3536(v0)
9d00b728:	3c035566 	lui	v1,0x5566
9d00b72c:	346399aa 	ori	v1,v1,0x99aa
9d00b730:	ac43f230 	sw	v1,-3536(v0)
9d00b734:	3c02bf81 	lui	v0,0xbf81
9d00b738:	24030001 	li	v1,1
9d00b73c:	ac43f618 	sw	v1,-2536(v0)
9d00b740:	3c02bf81 	lui	v0,0xbf81
9d00b744:	8c42f610 	lw	v0,-2544(v0)
9d00b748:	0b402dc5 	j	9d00b714 <__pic32_software_reset+0x8>
9d00b74c:	00000000 	nop

Disassembly of section .text._io_exit:

9d00b750 <.text._io_exit>:
9d00b750:	27bdffe8 	addiu	sp,sp,-24
9d00b754:	afbf0014 	sw	ra,20(sp)
9d00b758:	afb00010 	sw	s0,16(sp)
9d00b75c:	3c10a000 	lui	s0,0xa000
9d00b760:	0f402ef9 	jal	9d00bbe4 <_weak_pthread_mutex_lock>
9d00b764:	26046480 	addiu	a0,s0,25728
9d00b768:	3c02a000 	lui	v0,0xa000
9d00b76c:	8c420008 	lw	v0,8(v0)
9d00b770:	26046480 	addiu	a0,s0,25728
9d00b774:	24030001 	li	v1,1
9d00b778:	0f402efd 	jal	9d00bbf4 <_weak_pthread_mutex_unlock>
9d00b77c:	ac430038 	sw	v1,56(v0)
9d00b780:	8fbf0014 	lw	ra,20(sp)
9d00b784:	8fb00010 	lw	s0,16(sp)
9d00b788:	03e00008 	jr	ra
9d00b78c:	27bd0018 	addiu	sp,sp,24

Disassembly of section .text:

9d00b790 <__lshrdi3>:
9d00b790:	10c00009 	beqz	a2,9d00b7b8 <__lshrdi3+0x28>
9d00b794:	00801021 	move	v0,a0
9d00b798:	24020020 	li	v0,32
9d00b79c:	00461023 	subu	v0,v0,a2
9d00b7a0:	18400007 	blez	v0,9d00b7c0 <__lshrdi3+0x30>
9d00b7a4:	00c42006 	srlv	a0,a0,a2
9d00b7a8:	00451004 	sllv	v0,a1,v0
9d00b7ac:	00c51806 	srlv	v1,a1,a2
9d00b7b0:	03e00008 	jr	ra
9d00b7b4:	00441025 	or	v0,v0,a0
9d00b7b8:	03e00008 	jr	ra
9d00b7bc:	00a01821 	move	v1,a1
9d00b7c0:	00021023 	negu	v0,v0
9d00b7c4:	00001821 	move	v1,zero
9d00b7c8:	03e00008 	jr	ra
9d00b7cc:	00451006 	srlv	v0,a1,v0

9d00b7d0 <__ashldi3>:
9d00b7d0:	10c00009 	beqz	a2,9d00b7f8 <__ashldi3+0x28>
9d00b7d4:	00801021 	move	v0,a0
9d00b7d8:	24030020 	li	v1,32
9d00b7dc:	00661823 	subu	v1,v1,a2
9d00b7e0:	18600007 	blez	v1,9d00b800 <__ashldi3+0x30>
9d00b7e4:	00c52804 	sllv	a1,a1,a2
9d00b7e8:	00641806 	srlv	v1,a0,v1
9d00b7ec:	00c41004 	sllv	v0,a0,a2
9d00b7f0:	03e00008 	jr	ra
9d00b7f4:	00651825 	or	v1,v1,a1
9d00b7f8:	03e00008 	jr	ra
9d00b7fc:	00a01821 	move	v1,a1
9d00b800:	00031823 	negu	v1,v1
9d00b804:	00001021 	move	v0,zero
9d00b808:	03e00008 	jr	ra
9d00b80c:	00641804 	sllv	v1,a0,v1

Disassembly of section .text._weak_pthread_once:

9d00b810 <_weak_pthread_once>:
9d00b810:	8c820000 	lw	v0,0(a0)
9d00b814:	10400003 	beqz	v0,9d00b824 <_weak_pthread_once+0x14>
9d00b818:	00001021 	move	v0,zero
9d00b81c:	03e00008 	jr	ra
9d00b820:	00000000 	nop
9d00b824:	27bdffe8 	addiu	sp,sp,-24
9d00b828:	afbf0014 	sw	ra,20(sp)
9d00b82c:	24020002 	li	v0,2
9d00b830:	00a0f809 	jalr	a1
9d00b834:	ac820000 	sw	v0,0(a0)
9d00b838:	00001021 	move	v0,zero
9d00b83c:	8fbf0014 	lw	ra,20(sp)
9d00b840:	03e00008 	jr	ra
9d00b844:	27bd0018 	addiu	sp,sp,24

Disassembly of section .text._filbuf_simple:

9d00b848 <_filbuf_simple>:
9d00b848:	8c820004 	lw	v0,4(a0)
9d00b84c:	2403ffff 	li	v1,-1
9d00b850:	10430003 	beq	v0,v1,9d00b860 <_filbuf_simple+0x18>
9d00b854:	ac800000 	sw	zero,0(a0)
9d00b858:	03e00008 	jr	ra
9d00b85c:	ac830004 	sw	v1,4(a0)
9d00b860:	27bdffe8 	addiu	sp,sp,-24
9d00b864:	afbf0014 	sw	ra,20(sp)
9d00b868:	0f40292b 	jal	9d00a4ac <_mon_getc>
9d00b86c:	24040001 	li	a0,1
9d00b870:	8fbf0014 	lw	ra,20(sp)
9d00b874:	03e00008 	jr	ra
9d00b878:	27bd0018 	addiu	sp,sp,24

Disassembly of section .text._fsync_simple:

9d00b87c <_fsync_simple>:
9d00b87c:	94830010 	lhu	v1,16(a0)
9d00b880:	00a32824 	and	a1,a1,v1
9d00b884:	10a00007 	beqz	a1,9d00b8a4 <_fsync_simple+0x28>
9d00b888:	24020001 	li	v0,1
9d00b88c:	34630040 	ori	v1,v1,0x40
9d00b890:	a4830010 	sh	v1,16(a0)
9d00b894:	24030009 	li	v1,9
9d00b898:	3c02a000 	lui	v0,0xa000
9d00b89c:	ac430038 	sw	v1,56(v0)
9d00b8a0:	00001021 	move	v0,zero
9d00b8a4:	03e00008 	jr	ra
9d00b8a8:	00000000 	nop

Disassembly of section .rodata:

9d00b8ac <.rodata>:
9d00b8ac:	33323130 	andi	s2,t9,0x3130
9d00b8b0:	37363534 	ori	s6,t9,0x3534
9d00b8b4:	00000000 	nop
9d00b8b8:	33323130 	andi	s2,t9,0x3130
9d00b8bc:	37363534 	ori	s6,t9,0x3534
9d00b8c0:	42413938 	c0	0x413938
9d00b8c4:	46454443 	c1	0x454443
9d00b8c8:	64636261 	0x64636261
9d00b8cc:	00006665 	0x6665
9d00b8d0:	33323130 	andi	s2,t9,0x3130
9d00b8d4:	37363534 	ori	s6,t9,0x3534
9d00b8d8:	00003938 	0x3938

Disassembly of section .text._cleanup:

9d00b8dc <_cleanup>:
9d00b8dc:	3c02a000 	lui	v0,0xa000
9d00b8e0:	8c4264a4 	lw	v0,25764(v0)
9d00b8e4:	10400007 	beqz	v0,9d00b904 <_cleanup+0x28>
9d00b8e8:	00000000 	nop
9d00b8ec:	27bdffe8 	addiu	sp,sp,-24
9d00b8f0:	afbf0014 	sw	ra,20(sp)
9d00b8f4:	0040f809 	jalr	v0
9d00b8f8:	00000000 	nop
9d00b8fc:	8fbf0014 	lw	ra,20(sp)
9d00b900:	27bd0018 	addiu	sp,sp,24
9d00b904:	03e00008 	jr	ra
9d00b908:	00000000 	nop

Disassembly of section .text.memcpy:

9d00b90c <memcpy>:
9d00b90c:	00801021 	move	v0,a0
9d00b910:	00863821 	addu	a3,a0,a2
9d00b914:	10c00006 	beqz	a2,9d00b930 <memcpy+0x24>
9d00b918:	00801821 	move	v1,a0
9d00b91c:	24a50001 	addiu	a1,a1,1
9d00b920:	90a6ffff 	lbu	a2,-1(a1)
9d00b924:	24630001 	addiu	v1,v1,1
9d00b928:	1467fffc 	bne	v1,a3,9d00b91c <memcpy+0x10>
9d00b92c:	a066ffff 	sb	a2,-1(v1)
9d00b930:	03e00008 	jr	ra
9d00b934:	00000000 	nop

Disassembly of section .text._stub_sbd_memlayout:

9d00b938 <_stub_sbd_memlayout>:
9d00b938:	3c03a000 	lui	v1,0xa000
9d00b93c:	2462645c 	addiu	v0,v1,25692
9d00b940:	24040001 	li	a0,1
9d00b944:	ac440008 	sw	a0,8(v0)
9d00b948:	3c04a000 	lui	a0,0xa000
9d00b94c:	248464b0 	addiu	a0,a0,25776
9d00b950:	ac64645c 	sw	a0,25692(v1)
9d00b954:	3c030000 	lui	v1,0x0
9d00b958:	24630000 	addiu	v1,v1,0
9d00b95c:	03e00008 	jr	ra
9d00b960:	ac430004 	sw	v1,4(v0)

Disassembly of section .rodata:

9d00b964 <.LC0>:
9d00b964:	25206625 	addiu	zero,t1,26149
9d00b968:	66252066 	0x66252066
9d00b96c:	00000000 	nop

9d00b970 <.LC1>:
9d00b970:	0a0d6625 	j	98359894 <_bmxdkpba_address+0x98339894>
9d00b974:	00000000 	nop

9d00b978 <.LC2>:
9d00b978:	00006625 	0x6625
9d00b97c:	3fc00000 	0x3fc00000
9d00b980:	bfc00000 	cache	0x0,0(s8)
9d00b984:	43160000 	c0	0x1160000
9d00b988:	c0a00000 	ll	zero,0(a1)

Disassembly of section .text.memset:

9d00b98c <memset>:
9d00b98c:	10c00007 	beqz	a2,9d00b9ac <memset+0x20>
9d00b990:	00801021 	move	v0,a0
9d00b994:	30a500ff 	andi	a1,a1,0xff
9d00b998:	00863021 	addu	a2,a0,a2
9d00b99c:	00801821 	move	v1,a0
9d00b9a0:	24630001 	addiu	v1,v1,1
9d00b9a4:	1466fffe 	bne	v1,a2,9d00b9a0 <memset+0x14>
9d00b9a8:	a065ffff 	sb	a1,-1(v1)
9d00b9ac:	03e00008 	jr	ra
9d00b9b0:	00000000 	nop

Disassembly of section .text.putchar:

9d00b9b4 <putchar>:
9d00b9b4:	27bdffe8 	addiu	sp,sp,-24
9d00b9b8:	afbf0014 	sw	ra,20(sp)
9d00b9bc:	3c02a000 	lui	v0,0xa000
9d00b9c0:	8c420008 	lw	v0,8(v0)
9d00b9c4:	0f402a37 	jal	9d00a8dc <.LFE3>
9d00b9c8:	8c450004 	lw	a1,4(v0)
9d00b9cc:	8fbf0014 	lw	ra,20(sp)
9d00b9d0:	03e00008 	jr	ra
9d00b9d4:	27bd0018 	addiu	sp,sp,24

Disassembly of section .text.getchar:

9d00b9d8 <getchar>:
9d00b9d8:	27bdffe8 	addiu	sp,sp,-24
9d00b9dc:	afbf0014 	sw	ra,20(sp)
9d00b9e0:	3c02a000 	lui	v0,0xa000
9d00b9e4:	8c420008 	lw	v0,8(v0)
9d00b9e8:	0f402c1e 	jal	9d00b078 <fgetc>
9d00b9ec:	8c440000 	lw	a0,0(v0)
9d00b9f0:	8fbf0014 	lw	ra,20(sp)
9d00b9f4:	03e00008 	jr	ra
9d00b9f8:	27bd0018 	addiu	sp,sp,24

Disassembly of section .rodata:

9d00b9fc <.LC0>:
9d00b9fc:	00006425 	0x6425

9d00ba00 <.LC1>:
9d00ba00:	0a0d6425 	j	98359094 <_bmxdkpba_address+0x98339094>
9d00ba04:	00000000 	nop
9d00ba08:	25206625 	addiu	zero,t1,26149
9d00ba0c:	66252066 	0x66252066
9d00ba10:	00000a0d 	break	0x0,0x28
9d00ba14:	42c80000 	c0	0xc80000

Disassembly of section .text._vfprintf_cdfFnopuxX:

9d00ba18 <_vfprintf_cdfFnopuxX>:
9d00ba18:	27bdffe8 	addiu	sp,sp,-24
9d00ba1c:	afbf0014 	sw	ra,20(sp)
9d00ba20:	0f400a87 	jal	9d002a1c <_do_print_cdfFnopuxX>
9d00ba24:	00000000 	nop
9d00ba28:	8fbf0014 	lw	ra,20(sp)
9d00ba2c:	03e00008 	jr	ra
9d00ba30:	27bd0018 	addiu	sp,sp,24

Disassembly of section .text.putc:

9d00ba34 <putc>:
9d00ba34:	27bdffe8 	addiu	sp,sp,-24
9d00ba38:	afbf0014 	sw	ra,20(sp)
9d00ba3c:	0f402a37 	jal	9d00a8dc <.LFE3>
9d00ba40:	00000000 	nop
9d00ba44:	8fbf0014 	lw	ra,20(sp)
9d00ba48:	03e00008 	jr	ra
9d00ba4c:	27bd0018 	addiu	sp,sp,24

Disassembly of section .text.vfscanf:

9d00ba50 <vfscanf>:
9d00ba50:	27bdffe8 	addiu	sp,sp,-24
9d00ba54:	afbf0014 	sw	ra,20(sp)
9d00ba58:	0f400780 	jal	9d001e00 <do_scan>
9d00ba5c:	00000000 	nop
9d00ba60:	8fbf0014 	lw	ra,20(sp)
9d00ba64:	03e00008 	jr	ra
9d00ba68:	27bd0018 	addiu	sp,sp,24

Disassembly of section .text.strtod:

9d00ba6c <strtod>:
9d00ba6c:	27bdffe8 	addiu	sp,sp,-24
9d00ba70:	afbf0014 	sw	ra,20(sp)
9d00ba74:	0f401a8d 	jal	9d006a34 <__strtod>
9d00ba78:	00000000 	nop
9d00ba7c:	8fbf0014 	lw	ra,20(sp)
9d00ba80:	03e00008 	jr	ra
9d00ba84:	27bd0018 	addiu	sp,sp,24

Disassembly of section .text.strtof:

9d00ba88 <strtof>:
9d00ba88:	27bdffe8 	addiu	sp,sp,-24
9d00ba8c:	afbf0014 	sw	ra,20(sp)
9d00ba90:	0f401d3b 	jal	9d0074ec <.LFE9>
9d00ba94:	00000000 	nop
9d00ba98:	8fbf0014 	lw	ra,20(sp)
9d00ba9c:	03e00008 	jr	ra
9d00baa0:	27bd0018 	addiu	sp,sp,24

Disassembly of section .text.getc:

9d00baa4 <getc>:
9d00baa4:	27bdffe8 	addiu	sp,sp,-24
9d00baa8:	afbf0014 	sw	ra,20(sp)
9d00baac:	0f402c1e 	jal	9d00b078 <fgetc>
9d00bab0:	00000000 	nop
9d00bab4:	8fbf0014 	lw	ra,20(sp)
9d00bab8:	03e00008 	jr	ra
9d00babc:	27bd0018 	addiu	sp,sp,24

Disassembly of section .text.negdf2:

9d00bac0 <__negdf2>:
9d00bac0:	3c018000 00a12826 00041025 00051825     ...<&(..%...%...

9d00bad0 <M999>:
9d00bad0:	03e00008 	jr	ra
9d00bad4:	00000000 	nop
9d00bad8:	00000000 	nop

Disassembly of section .rodata:

9d00badc <.LC1-0x8>:
9d00badc:	0a0d6425 	j	98359094 <_bmxdkpba_address+0x98339094>
9d00bae0:	00000000 	nop

9d00bae4 <.LC1>:
9d00bae4:	66322e25 	0x66322e25
9d00bae8:	00000a0d 	break	0x0,0x28

9d00baec <.LC2>:
9d00baec:	00006625 	0x6625
9d00baf0:	00006425 	0x6425

Disassembly of section .text:

9d00baf4 <_nmi_handler>:
9d00baf4:	401a6000 	mfc0	k0,c0_status
9d00baf8:	3c1bffbf 	lui	k1,0xffbf
9d00bafc:	377bffff 	ori	k1,k1,0xffff
9d00bb00:	035bd024 	and	k0,k0,k1
9d00bb04:	409a6000 	mtc0	k0,c0_status
9d00bb08:	42000018 	eret

Disassembly of section .rodata:

9d00bb0c <f5pow>:
9d00bb0c:	40a00000 41c80000 441c4000 48bebc20     ...@...A.@.D ..H
9d00bb1c:	520e1bca 649dc5ae                       ...R...d

Disassembly of section .text._io_exit:

9d00bb24 <_io_exit>:
9d00bb24:	3c02a000 	lui	v0,0xa000
9d00bb28:	8c420008 	lw	v0,8(v0)
9d00bb2c:	24030001 	li	v1,1
9d00bb30:	03e00008 	jr	ra
9d00bb34:	ac430038 	sw	v1,56(v0)

Disassembly of section .rodata:

9d00bb38 <_io_funcs>:
9d00bb38:	9d00b848 9d00a2bc 9d00ae7c 9d00aefc     H.......|.......
9d00bb48:	9d00b87c                                |...

Disassembly of section .text._io_exit:

9d00bb4c <.text._io_exit>:
9d00bb4c:	3c02a000 	lui	v0,0xa000
9d00bb50:	8c420008 	lw	v0,8(v0)
9d00bb54:	24030001 	li	v1,1
9d00bb58:	03e00008 	jr	ra
9d00bb5c:	ac430038 	sw	v1,56(v0)

Disassembly of section .rodata:

9d00bb60 <_io_strfuncs>:
9d00bb60:	9d00bbac 9d00bbb4 9d00bbbc 9d00bbc4     ................
9d00bb70:	9d00bbcc                                ....

Disassembly of section .text.negsf2:

9d00bb74 <__negsf2>:
9d00bb74:	3c018000 00811026                       ...<&...

9d00bb7c <L999>:
9d00bb7c:	03e00008 	jr	ra
9d00bb80:	00000000 	nop
9d00bb84:	00000000 	nop

Disassembly of section .rodata:

9d00bb88 <.rodata>:
9d00bb88:	0a0d6425 	j	98359094 <_bmxdkpba_address+0x98339094>
9d00bb8c:	00000000 	nop
9d00bb90:	3d23d70a 	0x3d23d70a
9d00bb94:	41200000 	0x41200000
9d00bb98:	41cc0000 	wrpgpr	zero,t4

Disassembly of section .text._on_reset:

9d00bb9c <_on_reset>:
9d00bb9c:	03e00008 	jr	ra
9d00bba0:	00000000 	nop

Disassembly of section .text._on_bootstrap:

9d00bba4 <_on_bootstrap>:
9d00bba4:	03e00008 	jr	ra
9d00bba8:	00000000 	nop

Disassembly of section .text._filbuf_string:

9d00bbac <_filbuf_string>:
9d00bbac:	03e00008 	jr	ra
9d00bbb0:	2402ffff 	li	v0,-1

Disassembly of section .text._flsbuf_string:

9d00bbb4 <_flsbuf_string>:
9d00bbb4:	03e00008 	jr	ra
9d00bbb8:	00801021 	move	v0,a0

Disassembly of section .text._fflush_string:

9d00bbbc <_fflush_string>:
9d00bbbc:	03e00008 	jr	ra
9d00bbc0:	00001021 	move	v0,zero

Disassembly of section .text._fwrite_string:

9d00bbc4 <_fwrite_string>:
9d00bbc4:	03e00008 	jr	ra
9d00bbc8:	00001021 	move	v0,zero

Disassembly of section .text._fsync_string:

9d00bbcc <_fsync_string>:
9d00bbcc:	03e00008 	jr	ra
9d00bbd0:	24020001 	li	v0,1

Disassembly of section .text._weak_pthread_mutex_init:

9d00bbd4 <_weak_pthread_mutex_init>:
9d00bbd4:	03e00008 	jr	ra
9d00bbd8:	00001021 	move	v0,zero

Disassembly of section .text._weak_pthread_mutex_destroy:

9d00bbdc <_weak_pthread_mutex_destroy>:
9d00bbdc:	03e00008 	jr	ra
9d00bbe0:	00001021 	move	v0,zero

Disassembly of section .text._weak_pthread_mutex_lock:

9d00bbe4 <_weak_pthread_mutex_lock>:
9d00bbe4:	03e00008 	jr	ra
9d00bbe8:	00001021 	move	v0,zero

Disassembly of section .text._weak_pthread_mutex_trylock:

9d00bbec <_weak_pthread_mutex_trylock>:
9d00bbec:	03e00008 	jr	ra
9d00bbf0:	00001021 	move	v0,zero

Disassembly of section .text._weak_pthread_mutex_unlock:

9d00bbf4 <_weak_pthread_mutex_unlock>:
9d00bbf4:	03e00008 	jr	ra
9d00bbf8:	00001021 	move	v0,zero

Disassembly of section .text._weak_pthread_mutex_setname_np:

9d00bbfc <_weak_pthread_mutex_setname_np>:
9d00bbfc:	03e00008 	jr	ra
9d00bc00:	00001021 	move	v0,zero

Disassembly of section .text._weak_pthread_mutexattr_init:

9d00bc04 <_weak_pthread_mutexattr_init>:
9d00bc04:	03e00008 	jr	ra
9d00bc08:	00001021 	move	v0,zero

Disassembly of section .text._weak_pthread_mutexattr_destroy:

9d00bc0c <_weak_pthread_mutexattr_destroy>:
9d00bc0c:	03e00008 	jr	ra
9d00bc10:	00001021 	move	v0,zero

Disassembly of section .text._weak_pthread_mutexattr_setname_np:

9d00bc14 <_weak_pthread_mutexattr_setname_np>:
9d00bc14:	03e00008 	jr	ra
9d00bc18:	00001021 	move	v0,zero

Disassembly of section .text._weak_pthread_mutexattr_settype_np:

9d00bc1c <_weak_pthread_mutexattr_settype_np>:
9d00bc1c:	03e00008 	jr	ra
9d00bc20:	00001021 	move	v0,zero

Disassembly of section .text._weak_pthread_sysconf_np:

9d00bc24 <_weak_pthread_sysconf_np>:
9d00bc24:	03e00008 	jr	ra
9d00bc28:	2402ffff 	li	v0,-1

Disassembly of section .text._weak_pthread_sigdisable_np:

9d00bc2c <_weak_pthread_sigdisable_np>:
9d00bc2c:	03e00008 	jr	ra
9d00bc30:	00000000 	nop

Disassembly of section .text._weak_pthread_sigrestore_np:

9d00bc34 <_weak_pthread_sigrestore_np>:
9d00bc34:	03e00008 	jr	ra
9d00bc38:	00000000 	nop

Disassembly of section .text._weak__pthread_cleanup_push:

9d00bc3c <_weak__pthread_cleanup_push>:
9d00bc3c:	03e00008 	jr	ra
9d00bc40:	00000000 	nop

Disassembly of section .text._weak__pthread_cleanup_pop:

9d00bc44 <_weak__pthread_cleanup_pop>:
9d00bc44:	03e00008 	jr	ra
9d00bc48:	00000000 	nop

Disassembly of section .text._weak__pthread_cleanup_push_defer:

9d00bc4c <_weak__pthread_cleanup_push_defer>:
9d00bc4c:	03e00008 	jr	ra
9d00bc50:	00000000 	nop

Disassembly of section .text._weak__pthread_cleanup_pop_restore:

9d00bc54 <_weak__pthread_cleanup_pop_restore>:
9d00bc54:	03e00008 	jr	ra
9d00bc58:	00000000 	nop

Disassembly of section .text._weak_pthread_key_create:

9d00bc5c <_weak_pthread_key_create>:
9d00bc5c:	03e00008 	jr	ra
9d00bc60:	2402ffff 	li	v0,-1

Disassembly of section .text._weak_pthread_setspecific:

9d00bc64 <_weak_pthread_setspecific>:
9d00bc64:	03e00008 	jr	ra
9d00bc68:	2402ffff 	li	v0,-1

Disassembly of section .text._weak_pthread_getspecific:

9d00bc6c <_weak_pthread_getspecific>:
9d00bc6c:	03e00008 	jr	ra
9d00bc70:	00001021 	move	v0,zero

Disassembly of section .text._weak__libc_private_storage:

9d00bc74 <_weak__libc_private_storage>:
9d00bc74:	03e00008 	jr	ra
9d00bc78:	00a01021 	move	v0,a1

Disassembly of section .text.getpagesize:

9d00bc7c <getpagesize>:
9d00bc7c:	03e00008 	jr	ra
9d00bc80:	24020080 	li	v0,128

Disassembly of section .text._exit:

9d00bc84 <_exit>:
9d00bc84:	0b402f21 	j	9d00bc84 <_exit>
9d00bc88:	00000000 	nop

Disassembly of section .text.isatty:

9d00bc8c <isatty>:
9d00bc8c:	03e00008 	jr	ra
9d00bc90:	00001021 	move	v0,zero

Disassembly of section .rodata:

9d00bc94 <.rodata>:
9d00bc94:	42c80000 	c0	0xc80000
